
DC-Driver_Project.elf:     file format elf32-littlearm

Sections:
Idx Name          Size      VMA       LMA       File off  Algn
  0 .isr_vector   0000010c  08000000  08000000  00001000  2**0
                  CONTENTS, ALLOC, LOAD, READONLY, DATA
  1 .text         00006f74  08000110  08000110  00001110  2**4
                  CONTENTS, ALLOC, LOAD, READONLY, CODE
  2 .rodata       00000114  08007084  08007084  00008084  2**2
                  CONTENTS, ALLOC, LOAD, READONLY, DATA
  3 .ARM.extab    00000000  08007198  08007198  00009014  2**0
                  CONTENTS, READONLY
  4 .ARM          00000000  08007198  08007198  00009014  2**0
                  CONTENTS, READONLY
  5 .preinit_array 00000000  08007198  08007198  00009014  2**0
                  CONTENTS, ALLOC, LOAD, DATA
  6 .init_array   00000004  08007198  08007198  00008198  2**2
                  CONTENTS, ALLOC, LOAD, READONLY, DATA
  7 .fini_array   00000004  0800719c  0800719c  0000819c  2**2
                  CONTENTS, ALLOC, LOAD, READONLY, DATA
  8 .data         00000014  20000000  080071a0  00009000  2**2
                  CONTENTS, ALLOC, LOAD, DATA
  9 .bss          00001f20  20000014  080071b4  00009014  2**2
                  ALLOC
 10 ._user_heap_stack 00000604  20001f34  080071b4  00009f34  2**0
                  ALLOC
 11 .ARM.attributes 00000029  00000000  00000000  00009014  2**0
                  CONTENTS, READONLY
 12 .comment      00000043  00000000  00000000  0000903d  2**0
                  CONTENTS, READONLY
 13 .debug_frame  000002e4  00000000  00000000  00009080  2**2
                  CONTENTS, READONLY, DEBUGGING, OCTETS

Disassembly of section .text:

08000110 <__do_global_dtors_aux>:
 8000110:	b510      	push	{r4, lr}
 8000112:	4c05      	ldr	r4, [pc, #20]	@ (8000128 <__do_global_dtors_aux+0x18>)
 8000114:	7823      	ldrb	r3, [r4, #0]
 8000116:	b933      	cbnz	r3, 8000126 <__do_global_dtors_aux+0x16>
 8000118:	4b04      	ldr	r3, [pc, #16]	@ (800012c <__do_global_dtors_aux+0x1c>)
 800011a:	b113      	cbz	r3, 8000122 <__do_global_dtors_aux+0x12>
 800011c:	4804      	ldr	r0, [pc, #16]	@ (8000130 <__do_global_dtors_aux+0x20>)
 800011e:	f3af 8000 	nop.w
 8000122:	2301      	movs	r3, #1
 8000124:	7023      	strb	r3, [r4, #0]
 8000126:	bd10      	pop	{r4, pc}
 8000128:	20000014 	.word	0x20000014
 800012c:	00000000 	.word	0x00000000
 8000130:	0800706c 	.word	0x0800706c

08000134 <frame_dummy>:
 8000134:	b508      	push	{r3, lr}
 8000136:	4b03      	ldr	r3, [pc, #12]	@ (8000144 <frame_dummy+0x10>)
 8000138:	b11b      	cbz	r3, 8000142 <frame_dummy+0xe>
 800013a:	4903      	ldr	r1, [pc, #12]	@ (8000148 <frame_dummy+0x14>)
 800013c:	4803      	ldr	r0, [pc, #12]	@ (800014c <frame_dummy+0x18>)
 800013e:	f3af 8000 	nop.w
 8000142:	bd08      	pop	{r3, pc}
 8000144:	00000000 	.word	0x00000000
 8000148:	20000018 	.word	0x20000018
 800014c:	0800706c 	.word	0x0800706c

08000150 <__aeabi_dmul>:
 8000150:	b570      	push	{r4, r5, r6, lr}
 8000152:	f04f 0cff 	mov.w	ip, #255	@ 0xff
 8000156:	f44c 6ce0 	orr.w	ip, ip, #1792	@ 0x700
 800015a:	ea1c 5411 	ands.w	r4, ip, r1, lsr #20
 800015e:	bf1d      	ittte	ne
 8000160:	ea1c 5513 	andsne.w	r5, ip, r3, lsr #20
 8000164:	ea94 0f0c 	teqne	r4, ip
 8000168:	ea95 0f0c 	teqne	r5, ip
 800016c:	f000 f8de 	bleq	800032c <__aeabi_dmul+0x1dc>
 8000170:	442c      	add	r4, r5
 8000172:	ea81 0603 	eor.w	r6, r1, r3
 8000176:	ea21 514c 	bic.w	r1, r1, ip, lsl #21
 800017a:	ea23 534c 	bic.w	r3, r3, ip, lsl #21
 800017e:	ea50 3501 	orrs.w	r5, r0, r1, lsl #12
 8000182:	bf18      	it	ne
 8000184:	ea52 3503 	orrsne.w	r5, r2, r3, lsl #12
 8000188:	f441 1180 	orr.w	r1, r1, #1048576	@ 0x100000
 800018c:	f443 1380 	orr.w	r3, r3, #1048576	@ 0x100000
 8000190:	d038      	beq.n	8000204 <__aeabi_dmul+0xb4>
 8000192:	fba0 ce02 	umull	ip, lr, r0, r2
 8000196:	f04f 0500 	mov.w	r5, #0
 800019a:	fbe1 e502 	umlal	lr, r5, r1, r2
 800019e:	f006 4200 	and.w	r2, r6, #2147483648	@ 0x80000000
 80001a2:	fbe0 e503 	umlal	lr, r5, r0, r3
 80001a6:	f04f 0600 	mov.w	r6, #0
 80001aa:	fbe1 5603 	umlal	r5, r6, r1, r3
 80001ae:	f09c 0f00 	teq	ip, #0
 80001b2:	bf18      	it	ne
 80001b4:	f04e 0e01 	orrne.w	lr, lr, #1
 80001b8:	f1a4 04ff 	sub.w	r4, r4, #255	@ 0xff
 80001bc:	f5b6 7f00 	cmp.w	r6, #512	@ 0x200
 80001c0:	f564 7440 	sbc.w	r4, r4, #768	@ 0x300
 80001c4:	d204      	bcs.n	80001d0 <__aeabi_dmul+0x80>
 80001c6:	ea5f 0e4e 	movs.w	lr, lr, lsl #1
 80001ca:	416d      	adcs	r5, r5
 80001cc:	eb46 0606 	adc.w	r6, r6, r6
 80001d0:	ea42 21c6 	orr.w	r1, r2, r6, lsl #11
 80001d4:	ea41 5155 	orr.w	r1, r1, r5, lsr #21
 80001d8:	ea4f 20c5 	mov.w	r0, r5, lsl #11
 80001dc:	ea40 505e 	orr.w	r0, r0, lr, lsr #21
 80001e0:	ea4f 2ece 	mov.w	lr, lr, lsl #11
 80001e4:	f1b4 0cfd 	subs.w	ip, r4, #253	@ 0xfd
 80001e8:	bf88      	it	hi
 80001ea:	f5bc 6fe0 	cmphi.w	ip, #1792	@ 0x700
 80001ee:	d81e      	bhi.n	800022e <__aeabi_dmul+0xde>
 80001f0:	f1be 4f00 	cmp.w	lr, #2147483648	@ 0x80000000
 80001f4:	bf08      	it	eq
 80001f6:	ea5f 0e50 	movseq.w	lr, r0, lsr #1
 80001fa:	f150 0000 	adcs.w	r0, r0, #0
 80001fe:	eb41 5104 	adc.w	r1, r1, r4, lsl #20
 8000202:	bd70      	pop	{r4, r5, r6, pc}
 8000204:	f006 4600 	and.w	r6, r6, #2147483648	@ 0x80000000
 8000208:	ea46 0101 	orr.w	r1, r6, r1
 800020c:	ea40 0002 	orr.w	r0, r0, r2
 8000210:	ea81 0103 	eor.w	r1, r1, r3
 8000214:	ebb4 045c 	subs.w	r4, r4, ip, lsr #1
 8000218:	bfc2      	ittt	gt
 800021a:	ebd4 050c 	rsbsgt	r5, r4, ip
 800021e:	ea41 5104 	orrgt.w	r1, r1, r4, lsl #20
 8000222:	bd70      	popgt	{r4, r5, r6, pc}
 8000224:	f441 1180 	orr.w	r1, r1, #1048576	@ 0x100000
 8000228:	f04f 0e00 	mov.w	lr, #0
 800022c:	3c01      	subs	r4, #1
 800022e:	f300 80ab 	bgt.w	8000388 <__aeabi_dmul+0x238>
 8000232:	f114 0f36 	cmn.w	r4, #54	@ 0x36
 8000236:	bfde      	ittt	le
 8000238:	2000      	movle	r0, #0
 800023a:	f001 4100 	andle.w	r1, r1, #2147483648	@ 0x80000000
 800023e:	bd70      	pople	{r4, r5, r6, pc}
 8000240:	f1c4 0400 	rsb	r4, r4, #0
 8000244:	3c20      	subs	r4, #32
 8000246:	da35      	bge.n	80002b4 <__aeabi_dmul+0x164>
 8000248:	340c      	adds	r4, #12
 800024a:	dc1b      	bgt.n	8000284 <__aeabi_dmul+0x134>
 800024c:	f104 0414 	add.w	r4, r4, #20
 8000250:	f1c4 0520 	rsb	r5, r4, #32
 8000254:	fa00 f305 	lsl.w	r3, r0, r5
 8000258:	fa20 f004 	lsr.w	r0, r0, r4
 800025c:	fa01 f205 	lsl.w	r2, r1, r5
 8000260:	ea40 0002 	orr.w	r0, r0, r2
 8000264:	f001 4200 	and.w	r2, r1, #2147483648	@ 0x80000000
 8000268:	f021 4100 	bic.w	r1, r1, #2147483648	@ 0x80000000
 800026c:	eb10 70d3 	adds.w	r0, r0, r3, lsr #31
 8000270:	fa21 f604 	lsr.w	r6, r1, r4
 8000274:	eb42 0106 	adc.w	r1, r2, r6
 8000278:	ea5e 0e43 	orrs.w	lr, lr, r3, lsl #1
 800027c:	bf08      	it	eq
 800027e:	ea20 70d3 	biceq.w	r0, r0, r3, lsr #31
 8000282:	bd70      	pop	{r4, r5, r6, pc}
 8000284:	f1c4 040c 	rsb	r4, r4, #12
 8000288:	f1c4 0520 	rsb	r5, r4, #32
 800028c:	fa00 f304 	lsl.w	r3, r0, r4
 8000290:	fa20 f005 	lsr.w	r0, r0, r5
 8000294:	fa01 f204 	lsl.w	r2, r1, r4
 8000298:	ea40 0002 	orr.w	r0, r0, r2
 800029c:	f001 4100 	and.w	r1, r1, #2147483648	@ 0x80000000
 80002a0:	eb10 70d3 	adds.w	r0, r0, r3, lsr #31
 80002a4:	f141 0100 	adc.w	r1, r1, #0
 80002a8:	ea5e 0e43 	orrs.w	lr, lr, r3, lsl #1
 80002ac:	bf08      	it	eq
 80002ae:	ea20 70d3 	biceq.w	r0, r0, r3, lsr #31
 80002b2:	bd70      	pop	{r4, r5, r6, pc}
 80002b4:	f1c4 0520 	rsb	r5, r4, #32
 80002b8:	fa00 f205 	lsl.w	r2, r0, r5
 80002bc:	ea4e 0e02 	orr.w	lr, lr, r2
 80002c0:	fa20 f304 	lsr.w	r3, r0, r4
 80002c4:	fa01 f205 	lsl.w	r2, r1, r5
 80002c8:	ea43 0302 	orr.w	r3, r3, r2
 80002cc:	fa21 f004 	lsr.w	r0, r1, r4
 80002d0:	f001 4100 	and.w	r1, r1, #2147483648	@ 0x80000000
 80002d4:	fa21 f204 	lsr.w	r2, r1, r4
 80002d8:	ea20 0002 	bic.w	r0, r0, r2
 80002dc:	eb00 70d3 	add.w	r0, r0, r3, lsr #31
 80002e0:	ea5e 0e43 	orrs.w	lr, lr, r3, lsl #1
 80002e4:	bf08      	it	eq
 80002e6:	ea20 70d3 	biceq.w	r0, r0, r3, lsr #31
 80002ea:	bd70      	pop	{r4, r5, r6, pc}
 80002ec:	f094 0f00 	teq	r4, #0
 80002f0:	d10f      	bne.n	8000312 <__aeabi_dmul+0x1c2>
 80002f2:	f001 4600 	and.w	r6, r1, #2147483648	@ 0x80000000
 80002f6:	0040      	lsls	r0, r0, #1
 80002f8:	eb41 0101 	adc.w	r1, r1, r1
 80002fc:	f411 1f80 	tst.w	r1, #1048576	@ 0x100000
 8000300:	bf08      	it	eq
 8000302:	3c01      	subeq	r4, #1
 8000304:	d0f7      	beq.n	80002f6 <__aeabi_dmul+0x1a6>
 8000306:	ea41 0106 	orr.w	r1, r1, r6
 800030a:	f095 0f00 	teq	r5, #0
 800030e:	bf18      	it	ne
 8000310:	4770      	bxne	lr
 8000312:	f003 4600 	and.w	r6, r3, #2147483648	@ 0x80000000
 8000316:	0052      	lsls	r2, r2, #1
 8000318:	eb43 0303 	adc.w	r3, r3, r3
 800031c:	f413 1f80 	tst.w	r3, #1048576	@ 0x100000
 8000320:	bf08      	it	eq
 8000322:	3d01      	subeq	r5, #1
 8000324:	d0f7      	beq.n	8000316 <__aeabi_dmul+0x1c6>
 8000326:	ea43 0306 	orr.w	r3, r3, r6
 800032a:	4770      	bx	lr
 800032c:	ea94 0f0c 	teq	r4, ip
 8000330:	ea0c 5513 	and.w	r5, ip, r3, lsr #20
 8000334:	bf18      	it	ne
 8000336:	ea95 0f0c 	teqne	r5, ip
 800033a:	d00c      	beq.n	8000356 <__aeabi_dmul+0x206>
 800033c:	ea50 0641 	orrs.w	r6, r0, r1, lsl #1
 8000340:	bf18      	it	ne
 8000342:	ea52 0643 	orrsne.w	r6, r2, r3, lsl #1
 8000346:	d1d1      	bne.n	80002ec <__aeabi_dmul+0x19c>
 8000348:	ea81 0103 	eor.w	r1, r1, r3
 800034c:	f001 4100 	and.w	r1, r1, #2147483648	@ 0x80000000
 8000350:	f04f 0000 	mov.w	r0, #0
 8000354:	bd70      	pop	{r4, r5, r6, pc}
 8000356:	ea50 0641 	orrs.w	r6, r0, r1, lsl #1
 800035a:	bf06      	itte	eq
 800035c:	4610      	moveq	r0, r2
 800035e:	4619      	moveq	r1, r3
 8000360:	ea52 0643 	orrsne.w	r6, r2, r3, lsl #1
 8000364:	d019      	beq.n	800039a <__aeabi_dmul+0x24a>
 8000366:	ea94 0f0c 	teq	r4, ip
 800036a:	d102      	bne.n	8000372 <__aeabi_dmul+0x222>
 800036c:	ea50 3601 	orrs.w	r6, r0, r1, lsl #12
 8000370:	d113      	bne.n	800039a <__aeabi_dmul+0x24a>
 8000372:	ea95 0f0c 	teq	r5, ip
 8000376:	d105      	bne.n	8000384 <__aeabi_dmul+0x234>
 8000378:	ea52 3603 	orrs.w	r6, r2, r3, lsl #12
 800037c:	bf1c      	itt	ne
 800037e:	4610      	movne	r0, r2
 8000380:	4619      	movne	r1, r3
 8000382:	d10a      	bne.n	800039a <__aeabi_dmul+0x24a>
 8000384:	ea81 0103 	eor.w	r1, r1, r3
 8000388:	f001 4100 	and.w	r1, r1, #2147483648	@ 0x80000000
 800038c:	f041 41fe 	orr.w	r1, r1, #2130706432	@ 0x7f000000
 8000390:	f441 0170 	orr.w	r1, r1, #15728640	@ 0xf00000
 8000394:	f04f 0000 	mov.w	r0, #0
 8000398:	bd70      	pop	{r4, r5, r6, pc}
 800039a:	f041 41fe 	orr.w	r1, r1, #2130706432	@ 0x7f000000
 800039e:	f441 0178 	orr.w	r1, r1, #16252928	@ 0xf80000
 80003a2:	bd70      	pop	{r4, r5, r6, pc}

080003a4 <__aeabi_drsub>:
 80003a4:	f081 4100 	eor.w	r1, r1, #2147483648	@ 0x80000000
 80003a8:	e002      	b.n	80003b0 <__adddf3>
 80003aa:	bf00      	nop

080003ac <__aeabi_dsub>:
 80003ac:	f083 4300 	eor.w	r3, r3, #2147483648	@ 0x80000000

080003b0 <__adddf3>:
 80003b0:	b530      	push	{r4, r5, lr}
 80003b2:	ea4f 0441 	mov.w	r4, r1, lsl #1
 80003b6:	ea4f 0543 	mov.w	r5, r3, lsl #1
 80003ba:	ea94 0f05 	teq	r4, r5
 80003be:	bf08      	it	eq
 80003c0:	ea90 0f02 	teqeq	r0, r2
 80003c4:	bf1f      	itttt	ne
 80003c6:	ea54 0c00 	orrsne.w	ip, r4, r0
 80003ca:	ea55 0c02 	orrsne.w	ip, r5, r2
 80003ce:	ea7f 5c64 	mvnsne.w	ip, r4, asr #21
 80003d2:	ea7f 5c65 	mvnsne.w	ip, r5, asr #21
 80003d6:	f000 80e2 	beq.w	800059e <__adddf3+0x1ee>
 80003da:	ea4f 5454 	mov.w	r4, r4, lsr #21
 80003de:	ebd4 5555 	rsbs	r5, r4, r5, lsr #21
 80003e2:	bfb8      	it	lt
 80003e4:	426d      	neglt	r5, r5
 80003e6:	dd0c      	ble.n	8000402 <__adddf3+0x52>
 80003e8:	442c      	add	r4, r5
 80003ea:	ea80 0202 	eor.w	r2, r0, r2
 80003ee:	ea81 0303 	eor.w	r3, r1, r3
 80003f2:	ea82 0000 	eor.w	r0, r2, r0
 80003f6:	ea83 0101 	eor.w	r1, r3, r1
 80003fa:	ea80 0202 	eor.w	r2, r0, r2
 80003fe:	ea81 0303 	eor.w	r3, r1, r3
 8000402:	2d36      	cmp	r5, #54	@ 0x36
 8000404:	bf88      	it	hi
 8000406:	bd30      	pophi	{r4, r5, pc}
 8000408:	f011 4f00 	tst.w	r1, #2147483648	@ 0x80000000
 800040c:	ea4f 3101 	mov.w	r1, r1, lsl #12
 8000410:	f44f 1c80 	mov.w	ip, #1048576	@ 0x100000
 8000414:	ea4c 3111 	orr.w	r1, ip, r1, lsr #12
 8000418:	d002      	beq.n	8000420 <__adddf3+0x70>
 800041a:	4240      	negs	r0, r0
 800041c:	eb61 0141 	sbc.w	r1, r1, r1, lsl #1
 8000420:	f013 4f00 	tst.w	r3, #2147483648	@ 0x80000000
 8000424:	ea4f 3303 	mov.w	r3, r3, lsl #12
 8000428:	ea4c 3313 	orr.w	r3, ip, r3, lsr #12
 800042c:	d002      	beq.n	8000434 <__adddf3+0x84>
 800042e:	4252      	negs	r2, r2
 8000430:	eb63 0343 	sbc.w	r3, r3, r3, lsl #1
 8000434:	ea94 0f05 	teq	r4, r5
 8000438:	f000 80a7 	beq.w	800058a <__adddf3+0x1da>
 800043c:	f1a4 0401 	sub.w	r4, r4, #1
 8000440:	f1d5 0e20 	rsbs	lr, r5, #32
 8000444:	db0d      	blt.n	8000462 <__adddf3+0xb2>
 8000446:	fa02 fc0e 	lsl.w	ip, r2, lr
 800044a:	fa22 f205 	lsr.w	r2, r2, r5
 800044e:	1880      	adds	r0, r0, r2
 8000450:	f141 0100 	adc.w	r1, r1, #0
 8000454:	fa03 f20e 	lsl.w	r2, r3, lr
 8000458:	1880      	adds	r0, r0, r2
 800045a:	fa43 f305 	asr.w	r3, r3, r5
 800045e:	4159      	adcs	r1, r3
 8000460:	e00e      	b.n	8000480 <__adddf3+0xd0>
 8000462:	f1a5 0520 	sub.w	r5, r5, #32
 8000466:	f10e 0e20 	add.w	lr, lr, #32
 800046a:	2a01      	cmp	r2, #1
 800046c:	fa03 fc0e 	lsl.w	ip, r3, lr
 8000470:	bf28      	it	cs
 8000472:	f04c 0c02 	orrcs.w	ip, ip, #2
 8000476:	fa43 f305 	asr.w	r3, r3, r5
 800047a:	18c0      	adds	r0, r0, r3
 800047c:	eb51 71e3 	adcs.w	r1, r1, r3, asr #31
 8000480:	f001 4500 	and.w	r5, r1, #2147483648	@ 0x80000000
 8000484:	d507      	bpl.n	8000496 <__adddf3+0xe6>
 8000486:	f04f 0e00 	mov.w	lr, #0
 800048a:	f1dc 0c00 	rsbs	ip, ip, #0
 800048e:	eb7e 0000 	sbcs.w	r0, lr, r0
 8000492:	eb6e 0101 	sbc.w	r1, lr, r1
 8000496:	f5b1 1f80 	cmp.w	r1, #1048576	@ 0x100000
 800049a:	d31b      	bcc.n	80004d4 <__adddf3+0x124>
 800049c:	f5b1 1f00 	cmp.w	r1, #2097152	@ 0x200000
 80004a0:	d30c      	bcc.n	80004bc <__adddf3+0x10c>
 80004a2:	0849      	lsrs	r1, r1, #1
 80004a4:	ea5f 0030 	movs.w	r0, r0, rrx
 80004a8:	ea4f 0c3c 	mov.w	ip, ip, rrx
 80004ac:	f104 0401 	add.w	r4, r4, #1
 80004b0:	ea4f 5244 	mov.w	r2, r4, lsl #21
 80004b4:	f512 0f80 	cmn.w	r2, #4194304	@ 0x400000
 80004b8:	f080 809a 	bcs.w	80005f0 <__adddf3+0x240>
 80004bc:	f1bc 4f00 	cmp.w	ip, #2147483648	@ 0x80000000
 80004c0:	bf08      	it	eq
 80004c2:	ea5f 0c50 	movseq.w	ip, r0, lsr #1
 80004c6:	f150 0000 	adcs.w	r0, r0, #0
 80004ca:	eb41 5104 	adc.w	r1, r1, r4, lsl #20
 80004ce:	ea41 0105 	orr.w	r1, r1, r5
 80004d2:	bd30      	pop	{r4, r5, pc}
 80004d4:	ea5f 0c4c 	movs.w	ip, ip, lsl #1
 80004d8:	4140      	adcs	r0, r0
 80004da:	eb41 0101 	adc.w	r1, r1, r1
 80004de:	3c01      	subs	r4, #1
 80004e0:	bf28      	it	cs
 80004e2:	f5b1 1f80 	cmpcs.w	r1, #1048576	@ 0x100000
 80004e6:	d2e9      	bcs.n	80004bc <__adddf3+0x10c>
 80004e8:	f091 0f00 	teq	r1, #0
 80004ec:	bf04      	itt	eq
 80004ee:	4601      	moveq	r1, r0
 80004f0:	2000      	moveq	r0, #0
 80004f2:	fab1 f381 	clz	r3, r1
 80004f6:	bf08      	it	eq
 80004f8:	3320      	addeq	r3, #32
 80004fa:	f1a3 030b 	sub.w	r3, r3, #11
 80004fe:	f1b3 0220 	subs.w	r2, r3, #32
 8000502:	da0c      	bge.n	800051e <__adddf3+0x16e>
 8000504:	320c      	adds	r2, #12
 8000506:	dd08      	ble.n	800051a <__adddf3+0x16a>
 8000508:	f102 0c14 	add.w	ip, r2, #20
 800050c:	f1c2 020c 	rsb	r2, r2, #12
 8000510:	fa01 f00c 	lsl.w	r0, r1, ip
 8000514:	fa21 f102 	lsr.w	r1, r1, r2
 8000518:	e00c      	b.n	8000534 <__adddf3+0x184>
 800051a:	f102 0214 	add.w	r2, r2, #20
 800051e:	bfd8      	it	le
 8000520:	f1c2 0c20 	rsble	ip, r2, #32
 8000524:	fa01 f102 	lsl.w	r1, r1, r2
 8000528:	fa20 fc0c 	lsr.w	ip, r0, ip
 800052c:	bfdc      	itt	le
 800052e:	ea41 010c 	orrle.w	r1, r1, ip
 8000532:	4090      	lslle	r0, r2
 8000534:	1ae4      	subs	r4, r4, r3
 8000536:	bfa2      	ittt	ge
 8000538:	eb01 5104 	addge.w	r1, r1, r4, lsl #20
 800053c:	4329      	orrge	r1, r5
 800053e:	bd30      	popge	{r4, r5, pc}
 8000540:	ea6f 0404 	mvn.w	r4, r4
 8000544:	3c1f      	subs	r4, #31
 8000546:	da1c      	bge.n	8000582 <__adddf3+0x1d2>
 8000548:	340c      	adds	r4, #12
 800054a:	dc0e      	bgt.n	800056a <__adddf3+0x1ba>
 800054c:	f104 0414 	add.w	r4, r4, #20
 8000550:	f1c4 0220 	rsb	r2, r4, #32
 8000554:	fa20 f004 	lsr.w	r0, r0, r4
 8000558:	fa01 f302 	lsl.w	r3, r1, r2
 800055c:	ea40 0003 	orr.w	r0, r0, r3
 8000560:	fa21 f304 	lsr.w	r3, r1, r4
 8000564:	ea45 0103 	orr.w	r1, r5, r3
 8000568:	bd30      	pop	{r4, r5, pc}
 800056a:	f1c4 040c 	rsb	r4, r4, #12
 800056e:	f1c4 0220 	rsb	r2, r4, #32
 8000572:	fa20 f002 	lsr.w	r0, r0, r2
 8000576:	fa01 f304 	lsl.w	r3, r1, r4
 800057a:	ea40 0003 	orr.w	r0, r0, r3
 800057e:	4629      	mov	r1, r5
 8000580:	bd30      	pop	{r4, r5, pc}
 8000582:	fa21 f004 	lsr.w	r0, r1, r4
 8000586:	4629      	mov	r1, r5
 8000588:	bd30      	pop	{r4, r5, pc}
 800058a:	f094 0f00 	teq	r4, #0
 800058e:	f483 1380 	eor.w	r3, r3, #1048576	@ 0x100000
 8000592:	bf06      	itte	eq
 8000594:	f481 1180 	eoreq.w	r1, r1, #1048576	@ 0x100000
 8000598:	3401      	addeq	r4, #1
 800059a:	3d01      	subne	r5, #1
 800059c:	e74e      	b.n	800043c <__adddf3+0x8c>
 800059e:	ea7f 5c64 	mvns.w	ip, r4, asr #21
 80005a2:	bf18      	it	ne
 80005a4:	ea7f 5c65 	mvnsne.w	ip, r5, asr #21
 80005a8:	d029      	beq.n	80005fe <__adddf3+0x24e>
 80005aa:	ea94 0f05 	teq	r4, r5
 80005ae:	bf08      	it	eq
 80005b0:	ea90 0f02 	teqeq	r0, r2
 80005b4:	d005      	beq.n	80005c2 <__adddf3+0x212>
 80005b6:	ea54 0c00 	orrs.w	ip, r4, r0
 80005ba:	bf04      	itt	eq
 80005bc:	4619      	moveq	r1, r3
 80005be:	4610      	moveq	r0, r2
 80005c0:	bd30      	pop	{r4, r5, pc}
 80005c2:	ea91 0f03 	teq	r1, r3
 80005c6:	bf1e      	ittt	ne
 80005c8:	2100      	movne	r1, #0
 80005ca:	2000      	movne	r0, #0
 80005cc:	bd30      	popne	{r4, r5, pc}
 80005ce:	ea5f 5c54 	movs.w	ip, r4, lsr #21
 80005d2:	d105      	bne.n	80005e0 <__adddf3+0x230>
 80005d4:	0040      	lsls	r0, r0, #1
 80005d6:	4149      	adcs	r1, r1
 80005d8:	bf28      	it	cs
 80005da:	f041 4100 	orrcs.w	r1, r1, #2147483648	@ 0x80000000
 80005de:	bd30      	pop	{r4, r5, pc}
 80005e0:	f514 0480 	adds.w	r4, r4, #4194304	@ 0x400000
 80005e4:	bf3c      	itt	cc
 80005e6:	f501 1180 	addcc.w	r1, r1, #1048576	@ 0x100000
 80005ea:	bd30      	popcc	{r4, r5, pc}
 80005ec:	f001 4500 	and.w	r5, r1, #2147483648	@ 0x80000000
 80005f0:	f045 41fe 	orr.w	r1, r5, #2130706432	@ 0x7f000000
 80005f4:	f441 0170 	orr.w	r1, r1, #15728640	@ 0xf00000
 80005f8:	f04f 0000 	mov.w	r0, #0
 80005fc:	bd30      	pop	{r4, r5, pc}
 80005fe:	ea7f 5c64 	mvns.w	ip, r4, asr #21
 8000602:	bf1a      	itte	ne
 8000604:	4619      	movne	r1, r3
 8000606:	4610      	movne	r0, r2
 8000608:	ea7f 5c65 	mvnseq.w	ip, r5, asr #21
 800060c:	bf1c      	itt	ne
 800060e:	460b      	movne	r3, r1
 8000610:	4602      	movne	r2, r0
 8000612:	ea50 3401 	orrs.w	r4, r0, r1, lsl #12
 8000616:	bf06      	itte	eq
 8000618:	ea52 3503 	orrseq.w	r5, r2, r3, lsl #12
 800061c:	ea91 0f03 	teqeq	r1, r3
 8000620:	f441 2100 	orrne.w	r1, r1, #524288	@ 0x80000
 8000624:	bd30      	pop	{r4, r5, pc}
 8000626:	bf00      	nop

08000628 <__aeabi_ui2d>:
 8000628:	f090 0f00 	teq	r0, #0
 800062c:	bf04      	itt	eq
 800062e:	2100      	moveq	r1, #0
 8000630:	4770      	bxeq	lr
 8000632:	b530      	push	{r4, r5, lr}
 8000634:	f44f 6480 	mov.w	r4, #1024	@ 0x400
 8000638:	f104 0432 	add.w	r4, r4, #50	@ 0x32
 800063c:	f04f 0500 	mov.w	r5, #0
 8000640:	f04f 0100 	mov.w	r1, #0
 8000644:	e750      	b.n	80004e8 <__adddf3+0x138>
 8000646:	bf00      	nop

08000648 <__aeabi_i2d>:
 8000648:	f090 0f00 	teq	r0, #0
 800064c:	bf04      	itt	eq
 800064e:	2100      	moveq	r1, #0
 8000650:	4770      	bxeq	lr
 8000652:	b530      	push	{r4, r5, lr}
 8000654:	f44f 6480 	mov.w	r4, #1024	@ 0x400
 8000658:	f104 0432 	add.w	r4, r4, #50	@ 0x32
 800065c:	f010 4500 	ands.w	r5, r0, #2147483648	@ 0x80000000
 8000660:	bf48      	it	mi
 8000662:	4240      	negmi	r0, r0
 8000664:	f04f 0100 	mov.w	r1, #0
 8000668:	e73e      	b.n	80004e8 <__adddf3+0x138>
 800066a:	bf00      	nop

0800066c <__aeabi_f2d>:
 800066c:	0042      	lsls	r2, r0, #1
 800066e:	ea4f 01e2 	mov.w	r1, r2, asr #3
 8000672:	ea4f 0131 	mov.w	r1, r1, rrx
 8000676:	ea4f 7002 	mov.w	r0, r2, lsl #28
 800067a:	bf1f      	itttt	ne
 800067c:	f012 437f 	andsne.w	r3, r2, #4278190080	@ 0xff000000
 8000680:	f093 4f7f 	teqne	r3, #4278190080	@ 0xff000000
 8000684:	f081 5160 	eorne.w	r1, r1, #939524096	@ 0x38000000
 8000688:	4770      	bxne	lr
 800068a:	f032 427f 	bics.w	r2, r2, #4278190080	@ 0xff000000
 800068e:	bf08      	it	eq
 8000690:	4770      	bxeq	lr
 8000692:	f093 4f7f 	teq	r3, #4278190080	@ 0xff000000
 8000696:	bf04      	itt	eq
 8000698:	f441 2100 	orreq.w	r1, r1, #524288	@ 0x80000
 800069c:	4770      	bxeq	lr
 800069e:	b530      	push	{r4, r5, lr}
 80006a0:	f44f 7460 	mov.w	r4, #896	@ 0x380
 80006a4:	f001 4500 	and.w	r5, r1, #2147483648	@ 0x80000000
 80006a8:	f021 4100 	bic.w	r1, r1, #2147483648	@ 0x80000000
 80006ac:	e71c      	b.n	80004e8 <__adddf3+0x138>
 80006ae:	bf00      	nop

080006b0 <__aeabi_ul2d>:
 80006b0:	ea50 0201 	orrs.w	r2, r0, r1
 80006b4:	bf08      	it	eq
 80006b6:	4770      	bxeq	lr
 80006b8:	b530      	push	{r4, r5, lr}
 80006ba:	f04f 0500 	mov.w	r5, #0
 80006be:	e00a      	b.n	80006d6 <__aeabi_l2d+0x16>

080006c0 <__aeabi_l2d>:
 80006c0:	ea50 0201 	orrs.w	r2, r0, r1
 80006c4:	bf08      	it	eq
 80006c6:	4770      	bxeq	lr
 80006c8:	b530      	push	{r4, r5, lr}
 80006ca:	f011 4500 	ands.w	r5, r1, #2147483648	@ 0x80000000
 80006ce:	d502      	bpl.n	80006d6 <__aeabi_l2d+0x16>
 80006d0:	4240      	negs	r0, r0
 80006d2:	eb61 0141 	sbc.w	r1, r1, r1, lsl #1
 80006d6:	f44f 6480 	mov.w	r4, #1024	@ 0x400
 80006da:	f104 0432 	add.w	r4, r4, #50	@ 0x32
 80006de:	ea5f 5c91 	movs.w	ip, r1, lsr #22
 80006e2:	f43f aed8 	beq.w	8000496 <__adddf3+0xe6>
 80006e6:	f04f 0203 	mov.w	r2, #3
 80006ea:	ea5f 0cdc 	movs.w	ip, ip, lsr #3
 80006ee:	bf18      	it	ne
 80006f0:	3203      	addne	r2, #3
 80006f2:	ea5f 0cdc 	movs.w	ip, ip, lsr #3
 80006f6:	bf18      	it	ne
 80006f8:	3203      	addne	r2, #3
 80006fa:	eb02 02dc 	add.w	r2, r2, ip, lsr #3
 80006fe:	f1c2 0320 	rsb	r3, r2, #32
 8000702:	fa00 fc03 	lsl.w	ip, r0, r3
 8000706:	fa20 f002 	lsr.w	r0, r0, r2
 800070a:	fa01 fe03 	lsl.w	lr, r1, r3
 800070e:	ea40 000e 	orr.w	r0, r0, lr
 8000712:	fa21 f102 	lsr.w	r1, r1, r2
 8000716:	4414      	add	r4, r2
 8000718:	e6bd      	b.n	8000496 <__adddf3+0xe6>
 800071a:	bf00      	nop

0800071c <__aeabi_d2uiz>:
 800071c:	004a      	lsls	r2, r1, #1
 800071e:	d211      	bcs.n	8000744 <__aeabi_d2uiz+0x28>
 8000720:	f512 1200 	adds.w	r2, r2, #2097152	@ 0x200000
 8000724:	d211      	bcs.n	800074a <__aeabi_d2uiz+0x2e>
 8000726:	d50d      	bpl.n	8000744 <__aeabi_d2uiz+0x28>
 8000728:	f46f 7378 	mvn.w	r3, #992	@ 0x3e0
 800072c:	ebb3 5262 	subs.w	r2, r3, r2, asr #21
 8000730:	d40e      	bmi.n	8000750 <__aeabi_d2uiz+0x34>
 8000732:	ea4f 23c1 	mov.w	r3, r1, lsl #11
 8000736:	f043 4300 	orr.w	r3, r3, #2147483648	@ 0x80000000
 800073a:	ea43 5350 	orr.w	r3, r3, r0, lsr #21
 800073e:	fa23 f002 	lsr.w	r0, r3, r2
 8000742:	4770      	bx	lr
 8000744:	f04f 0000 	mov.w	r0, #0
 8000748:	4770      	bx	lr
 800074a:	ea50 3001 	orrs.w	r0, r0, r1, lsl #12
 800074e:	d102      	bne.n	8000756 <__aeabi_d2uiz+0x3a>
 8000750:	f04f 30ff 	mov.w	r0, #4294967295
 8000754:	4770      	bx	lr
 8000756:	f04f 0000 	mov.w	r0, #0
 800075a:	4770      	bx	lr

0800075c <__aeabi_frsub>:
 800075c:	f080 4000 	eor.w	r0, r0, #2147483648	@ 0x80000000
 8000760:	e002      	b.n	8000768 <__addsf3>
 8000762:	bf00      	nop

08000764 <__aeabi_fsub>:
 8000764:	f081 4100 	eor.w	r1, r1, #2147483648	@ 0x80000000

08000768 <__addsf3>:
 8000768:	0042      	lsls	r2, r0, #1
 800076a:	bf1f      	itttt	ne
 800076c:	ea5f 0341 	movsne.w	r3, r1, lsl #1
 8000770:	ea92 0f03 	teqne	r2, r3
 8000774:	ea7f 6c22 	mvnsne.w	ip, r2, asr #24
 8000778:	ea7f 6c23 	mvnsne.w	ip, r3, asr #24
 800077c:	d06a      	beq.n	8000854 <__addsf3+0xec>
 800077e:	ea4f 6212 	mov.w	r2, r2, lsr #24
 8000782:	ebd2 6313 	rsbs	r3, r2, r3, lsr #24
 8000786:	bfc1      	itttt	gt
 8000788:	18d2      	addgt	r2, r2, r3
 800078a:	4041      	eorgt	r1, r0
 800078c:	4048      	eorgt	r0, r1
 800078e:	4041      	eorgt	r1, r0
 8000790:	bfb8      	it	lt
 8000792:	425b      	neglt	r3, r3
 8000794:	2b19      	cmp	r3, #25
 8000796:	bf88      	it	hi
 8000798:	4770      	bxhi	lr
 800079a:	f010 4f00 	tst.w	r0, #2147483648	@ 0x80000000
 800079e:	f440 0000 	orr.w	r0, r0, #8388608	@ 0x800000
 80007a2:	f020 407f 	bic.w	r0, r0, #4278190080	@ 0xff000000
 80007a6:	bf18      	it	ne
 80007a8:	4240      	negne	r0, r0
 80007aa:	f011 4f00 	tst.w	r1, #2147483648	@ 0x80000000
 80007ae:	f441 0100 	orr.w	r1, r1, #8388608	@ 0x800000
 80007b2:	f021 417f 	bic.w	r1, r1, #4278190080	@ 0xff000000
 80007b6:	bf18      	it	ne
 80007b8:	4249      	negne	r1, r1
 80007ba:	ea92 0f03 	teq	r2, r3
 80007be:	d03f      	beq.n	8000840 <__addsf3+0xd8>
 80007c0:	f1a2 0201 	sub.w	r2, r2, #1
 80007c4:	fa41 fc03 	asr.w	ip, r1, r3
 80007c8:	eb10 000c 	adds.w	r0, r0, ip
 80007cc:	f1c3 0320 	rsb	r3, r3, #32
 80007d0:	fa01 f103 	lsl.w	r1, r1, r3
 80007d4:	f000 4300 	and.w	r3, r0, #2147483648	@ 0x80000000
 80007d8:	d502      	bpl.n	80007e0 <__addsf3+0x78>
 80007da:	4249      	negs	r1, r1
 80007dc:	eb60 0040 	sbc.w	r0, r0, r0, lsl #1
 80007e0:	f5b0 0f00 	cmp.w	r0, #8388608	@ 0x800000
 80007e4:	d313      	bcc.n	800080e <__addsf3+0xa6>
 80007e6:	f1b0 7f80 	cmp.w	r0, #16777216	@ 0x1000000
 80007ea:	d306      	bcc.n	80007fa <__addsf3+0x92>
 80007ec:	0840      	lsrs	r0, r0, #1
 80007ee:	ea4f 0131 	mov.w	r1, r1, rrx
 80007f2:	f102 0201 	add.w	r2, r2, #1
 80007f6:	2afe      	cmp	r2, #254	@ 0xfe
 80007f8:	d251      	bcs.n	800089e <__addsf3+0x136>
 80007fa:	f1b1 4f00 	cmp.w	r1, #2147483648	@ 0x80000000
 80007fe:	eb40 50c2 	adc.w	r0, r0, r2, lsl #23
 8000802:	bf08      	it	eq
 8000804:	f020 0001 	biceq.w	r0, r0, #1
 8000808:	ea40 0003 	orr.w	r0, r0, r3
 800080c:	4770      	bx	lr
 800080e:	0049      	lsls	r1, r1, #1
 8000810:	eb40 0000 	adc.w	r0, r0, r0
 8000814:	3a01      	subs	r2, #1
 8000816:	bf28      	it	cs
 8000818:	f5b0 0f00 	cmpcs.w	r0, #8388608	@ 0x800000
 800081c:	d2ed      	bcs.n	80007fa <__addsf3+0x92>
 800081e:	fab0 fc80 	clz	ip, r0
 8000822:	f1ac 0c08 	sub.w	ip, ip, #8
 8000826:	ebb2 020c 	subs.w	r2, r2, ip
 800082a:	fa00 f00c 	lsl.w	r0, r0, ip
 800082e:	bfaa      	itet	ge
 8000830:	eb00 50c2 	addge.w	r0, r0, r2, lsl #23
 8000834:	4252      	neglt	r2, r2
 8000836:	4318      	orrge	r0, r3
 8000838:	bfbc      	itt	lt
 800083a:	40d0      	lsrlt	r0, r2
 800083c:	4318      	orrlt	r0, r3
 800083e:	4770      	bx	lr
 8000840:	f092 0f00 	teq	r2, #0
 8000844:	f481 0100 	eor.w	r1, r1, #8388608	@ 0x800000
 8000848:	bf06      	itte	eq
 800084a:	f480 0000 	eoreq.w	r0, r0, #8388608	@ 0x800000
 800084e:	3201      	addeq	r2, #1
 8000850:	3b01      	subne	r3, #1
 8000852:	e7b5      	b.n	80007c0 <__addsf3+0x58>
 8000854:	ea4f 0341 	mov.w	r3, r1, lsl #1
 8000858:	ea7f 6c22 	mvns.w	ip, r2, asr #24
 800085c:	bf18      	it	ne
 800085e:	ea7f 6c23 	mvnsne.w	ip, r3, asr #24
 8000862:	d021      	beq.n	80008a8 <__addsf3+0x140>
 8000864:	ea92 0f03 	teq	r2, r3
 8000868:	d004      	beq.n	8000874 <__addsf3+0x10c>
 800086a:	f092 0f00 	teq	r2, #0
 800086e:	bf08      	it	eq
 8000870:	4608      	moveq	r0, r1
 8000872:	4770      	bx	lr
 8000874:	ea90 0f01 	teq	r0, r1
 8000878:	bf1c      	itt	ne
 800087a:	2000      	movne	r0, #0
 800087c:	4770      	bxne	lr
 800087e:	f012 4f7f 	tst.w	r2, #4278190080	@ 0xff000000
 8000882:	d104      	bne.n	800088e <__addsf3+0x126>
 8000884:	0040      	lsls	r0, r0, #1
 8000886:	bf28      	it	cs
 8000888:	f040 4000 	orrcs.w	r0, r0, #2147483648	@ 0x80000000
 800088c:	4770      	bx	lr
 800088e:	f112 7200 	adds.w	r2, r2, #33554432	@ 0x2000000
 8000892:	bf3c      	itt	cc
 8000894:	f500 0000 	addcc.w	r0, r0, #8388608	@ 0x800000
 8000898:	4770      	bxcc	lr
 800089a:	f000 4300 	and.w	r3, r0, #2147483648	@ 0x80000000
 800089e:	f043 40fe 	orr.w	r0, r3, #2130706432	@ 0x7f000000
 80008a2:	f440 0000 	orr.w	r0, r0, #8388608	@ 0x800000
 80008a6:	4770      	bx	lr
 80008a8:	ea7f 6222 	mvns.w	r2, r2, asr #24
 80008ac:	bf16      	itet	ne
 80008ae:	4608      	movne	r0, r1
 80008b0:	ea7f 6323 	mvnseq.w	r3, r3, asr #24
 80008b4:	4601      	movne	r1, r0
 80008b6:	0242      	lsls	r2, r0, #9
 80008b8:	bf06      	itte	eq
 80008ba:	ea5f 2341 	movseq.w	r3, r1, lsl #9
 80008be:	ea90 0f01 	teqeq	r0, r1
 80008c2:	f440 0080 	orrne.w	r0, r0, #4194304	@ 0x400000
 80008c6:	4770      	bx	lr

080008c8 <__aeabi_ui2f>:
 80008c8:	f04f 0300 	mov.w	r3, #0
 80008cc:	e004      	b.n	80008d8 <__aeabi_i2f+0x8>
 80008ce:	bf00      	nop

080008d0 <__aeabi_i2f>:
 80008d0:	f010 4300 	ands.w	r3, r0, #2147483648	@ 0x80000000
 80008d4:	bf48      	it	mi
 80008d6:	4240      	negmi	r0, r0
 80008d8:	ea5f 0c00 	movs.w	ip, r0
 80008dc:	bf08      	it	eq
 80008de:	4770      	bxeq	lr
 80008e0:	f043 4396 	orr.w	r3, r3, #1258291200	@ 0x4b000000
 80008e4:	4601      	mov	r1, r0
 80008e6:	f04f 0000 	mov.w	r0, #0
 80008ea:	e01c      	b.n	8000926 <__aeabi_l2f+0x2a>

080008ec <__aeabi_ul2f>:
 80008ec:	ea50 0201 	orrs.w	r2, r0, r1
 80008f0:	bf08      	it	eq
 80008f2:	4770      	bxeq	lr
 80008f4:	f04f 0300 	mov.w	r3, #0
 80008f8:	e00a      	b.n	8000910 <__aeabi_l2f+0x14>
 80008fa:	bf00      	nop

080008fc <__aeabi_l2f>:
 80008fc:	ea50 0201 	orrs.w	r2, r0, r1
 8000900:	bf08      	it	eq
 8000902:	4770      	bxeq	lr
 8000904:	f011 4300 	ands.w	r3, r1, #2147483648	@ 0x80000000
 8000908:	d502      	bpl.n	8000910 <__aeabi_l2f+0x14>
 800090a:	4240      	negs	r0, r0
 800090c:	eb61 0141 	sbc.w	r1, r1, r1, lsl #1
 8000910:	ea5f 0c01 	movs.w	ip, r1
 8000914:	bf02      	ittt	eq
 8000916:	4684      	moveq	ip, r0
 8000918:	4601      	moveq	r1, r0
 800091a:	2000      	moveq	r0, #0
 800091c:	f043 43b6 	orr.w	r3, r3, #1526726656	@ 0x5b000000
 8000920:	bf08      	it	eq
 8000922:	f1a3 5380 	subeq.w	r3, r3, #268435456	@ 0x10000000
 8000926:	f5a3 0300 	sub.w	r3, r3, #8388608	@ 0x800000
 800092a:	fabc f28c 	clz	r2, ip
 800092e:	3a08      	subs	r2, #8
 8000930:	eba3 53c2 	sub.w	r3, r3, r2, lsl #23
 8000934:	db10      	blt.n	8000958 <__aeabi_l2f+0x5c>
 8000936:	fa01 fc02 	lsl.w	ip, r1, r2
 800093a:	4463      	add	r3, ip
 800093c:	fa00 fc02 	lsl.w	ip, r0, r2
 8000940:	f1c2 0220 	rsb	r2, r2, #32
 8000944:	f1bc 4f00 	cmp.w	ip, #2147483648	@ 0x80000000
 8000948:	fa20 f202 	lsr.w	r2, r0, r2
 800094c:	eb43 0002 	adc.w	r0, r3, r2
 8000950:	bf08      	it	eq
 8000952:	f020 0001 	biceq.w	r0, r0, #1
 8000956:	4770      	bx	lr
 8000958:	f102 0220 	add.w	r2, r2, #32
 800095c:	fa01 fc02 	lsl.w	ip, r1, r2
 8000960:	f1c2 0220 	rsb	r2, r2, #32
 8000964:	ea50 004c 	orrs.w	r0, r0, ip, lsl #1
 8000968:	fa21 f202 	lsr.w	r2, r1, r2
 800096c:	eb43 0002 	adc.w	r0, r3, r2
 8000970:	bf08      	it	eq
 8000972:	ea20 70dc 	biceq.w	r0, r0, ip, lsr #31
 8000976:	4770      	bx	lr

08000978 <__aeabi_fmul>:
 8000978:	f04f 0cff 	mov.w	ip, #255	@ 0xff
 800097c:	ea1c 52d0 	ands.w	r2, ip, r0, lsr #23
 8000980:	bf1e      	ittt	ne
 8000982:	ea1c 53d1 	andsne.w	r3, ip, r1, lsr #23
 8000986:	ea92 0f0c 	teqne	r2, ip
 800098a:	ea93 0f0c 	teqne	r3, ip
 800098e:	d06f      	beq.n	8000a70 <__aeabi_fmul+0xf8>
 8000990:	441a      	add	r2, r3
 8000992:	ea80 0c01 	eor.w	ip, r0, r1
 8000996:	0240      	lsls	r0, r0, #9
 8000998:	bf18      	it	ne
 800099a:	ea5f 2141 	movsne.w	r1, r1, lsl #9
 800099e:	d01e      	beq.n	80009de <__aeabi_fmul+0x66>
 80009a0:	f04f 6300 	mov.w	r3, #134217728	@ 0x8000000
 80009a4:	ea43 1050 	orr.w	r0, r3, r0, lsr #5
 80009a8:	ea43 1151 	orr.w	r1, r3, r1, lsr #5
 80009ac:	fba0 3101 	umull	r3, r1, r0, r1
 80009b0:	f00c 4000 	and.w	r0, ip, #2147483648	@ 0x80000000
 80009b4:	f5b1 0f00 	cmp.w	r1, #8388608	@ 0x800000
 80009b8:	bf3e      	ittt	cc
 80009ba:	0049      	lslcc	r1, r1, #1
 80009bc:	ea41 71d3 	orrcc.w	r1, r1, r3, lsr #31
 80009c0:	005b      	lslcc	r3, r3, #1
 80009c2:	ea40 0001 	orr.w	r0, r0, r1
 80009c6:	f162 027f 	sbc.w	r2, r2, #127	@ 0x7f
 80009ca:	2afd      	cmp	r2, #253	@ 0xfd
 80009cc:	d81d      	bhi.n	8000a0a <__aeabi_fmul+0x92>
 80009ce:	f1b3 4f00 	cmp.w	r3, #2147483648	@ 0x80000000
 80009d2:	eb40 50c2 	adc.w	r0, r0, r2, lsl #23
 80009d6:	bf08      	it	eq
 80009d8:	f020 0001 	biceq.w	r0, r0, #1
 80009dc:	4770      	bx	lr
 80009de:	f090 0f00 	teq	r0, #0
 80009e2:	f00c 4c00 	and.w	ip, ip, #2147483648	@ 0x80000000
 80009e6:	bf08      	it	eq
 80009e8:	0249      	lsleq	r1, r1, #9
 80009ea:	ea4c 2050 	orr.w	r0, ip, r0, lsr #9
 80009ee:	ea40 2051 	orr.w	r0, r0, r1, lsr #9
 80009f2:	3a7f      	subs	r2, #127	@ 0x7f
 80009f4:	bfc2      	ittt	gt
 80009f6:	f1d2 03ff 	rsbsgt	r3, r2, #255	@ 0xff
 80009fa:	ea40 50c2 	orrgt.w	r0, r0, r2, lsl #23
 80009fe:	4770      	bxgt	lr
 8000a00:	f440 0000 	orr.w	r0, r0, #8388608	@ 0x800000
 8000a04:	f04f 0300 	mov.w	r3, #0
 8000a08:	3a01      	subs	r2, #1
 8000a0a:	dc5d      	bgt.n	8000ac8 <__aeabi_fmul+0x150>
 8000a0c:	f112 0f19 	cmn.w	r2, #25
 8000a10:	bfdc      	itt	le
 8000a12:	f000 4000 	andle.w	r0, r0, #2147483648	@ 0x80000000
 8000a16:	4770      	bxle	lr
 8000a18:	f1c2 0200 	rsb	r2, r2, #0
 8000a1c:	0041      	lsls	r1, r0, #1
 8000a1e:	fa21 f102 	lsr.w	r1, r1, r2
 8000a22:	f1c2 0220 	rsb	r2, r2, #32
 8000a26:	fa00 fc02 	lsl.w	ip, r0, r2
 8000a2a:	ea5f 0031 	movs.w	r0, r1, rrx
 8000a2e:	f140 0000 	adc.w	r0, r0, #0
 8000a32:	ea53 034c 	orrs.w	r3, r3, ip, lsl #1
 8000a36:	bf08      	it	eq
 8000a38:	ea20 70dc 	biceq.w	r0, r0, ip, lsr #31
 8000a3c:	4770      	bx	lr
 8000a3e:	f092 0f00 	teq	r2, #0
 8000a42:	f000 4c00 	and.w	ip, r0, #2147483648	@ 0x80000000
 8000a46:	bf02      	ittt	eq
 8000a48:	0040      	lsleq	r0, r0, #1
 8000a4a:	f410 0f00 	tsteq.w	r0, #8388608	@ 0x800000
 8000a4e:	3a01      	subeq	r2, #1
 8000a50:	d0f9      	beq.n	8000a46 <__aeabi_fmul+0xce>
 8000a52:	ea40 000c 	orr.w	r0, r0, ip
 8000a56:	f093 0f00 	teq	r3, #0
 8000a5a:	f001 4c00 	and.w	ip, r1, #2147483648	@ 0x80000000
 8000a5e:	bf02      	ittt	eq
 8000a60:	0049      	lsleq	r1, r1, #1
 8000a62:	f411 0f00 	tsteq.w	r1, #8388608	@ 0x800000
 8000a66:	3b01      	subeq	r3, #1
 8000a68:	d0f9      	beq.n	8000a5e <__aeabi_fmul+0xe6>
 8000a6a:	ea41 010c 	orr.w	r1, r1, ip
 8000a6e:	e78f      	b.n	8000990 <__aeabi_fmul+0x18>
 8000a70:	ea0c 53d1 	and.w	r3, ip, r1, lsr #23
 8000a74:	ea92 0f0c 	teq	r2, ip
 8000a78:	bf18      	it	ne
 8000a7a:	ea93 0f0c 	teqne	r3, ip
 8000a7e:	d00a      	beq.n	8000a96 <__aeabi_fmul+0x11e>
 8000a80:	f030 4c00 	bics.w	ip, r0, #2147483648	@ 0x80000000
 8000a84:	bf18      	it	ne
 8000a86:	f031 4c00 	bicsne.w	ip, r1, #2147483648	@ 0x80000000
 8000a8a:	d1d8      	bne.n	8000a3e <__aeabi_fmul+0xc6>
 8000a8c:	ea80 0001 	eor.w	r0, r0, r1
 8000a90:	f000 4000 	and.w	r0, r0, #2147483648	@ 0x80000000
 8000a94:	4770      	bx	lr
 8000a96:	f090 0f00 	teq	r0, #0
 8000a9a:	bf17      	itett	ne
 8000a9c:	f090 4f00 	teqne	r0, #2147483648	@ 0x80000000
 8000aa0:	4608      	moveq	r0, r1
 8000aa2:	f091 0f00 	teqne	r1, #0
 8000aa6:	f091 4f00 	teqne	r1, #2147483648	@ 0x80000000
 8000aaa:	d014      	beq.n	8000ad6 <__aeabi_fmul+0x15e>
 8000aac:	ea92 0f0c 	teq	r2, ip
 8000ab0:	d101      	bne.n	8000ab6 <__aeabi_fmul+0x13e>
 8000ab2:	0242      	lsls	r2, r0, #9
 8000ab4:	d10f      	bne.n	8000ad6 <__aeabi_fmul+0x15e>
 8000ab6:	ea93 0f0c 	teq	r3, ip
 8000aba:	d103      	bne.n	8000ac4 <__aeabi_fmul+0x14c>
 8000abc:	024b      	lsls	r3, r1, #9
 8000abe:	bf18      	it	ne
 8000ac0:	4608      	movne	r0, r1
 8000ac2:	d108      	bne.n	8000ad6 <__aeabi_fmul+0x15e>
 8000ac4:	ea80 0001 	eor.w	r0, r0, r1
 8000ac8:	f000 4000 	and.w	r0, r0, #2147483648	@ 0x80000000
 8000acc:	f040 40fe 	orr.w	r0, r0, #2130706432	@ 0x7f000000
 8000ad0:	f440 0000 	orr.w	r0, r0, #8388608	@ 0x800000
 8000ad4:	4770      	bx	lr
 8000ad6:	f040 40fe 	orr.w	r0, r0, #2130706432	@ 0x7f000000
 8000ada:	f440 0040 	orr.w	r0, r0, #12582912	@ 0xc00000
 8000ade:	4770      	bx	lr

08000ae0 <__aeabi_fdiv>:
 8000ae0:	f04f 0cff 	mov.w	ip, #255	@ 0xff
 8000ae4:	ea1c 52d0 	ands.w	r2, ip, r0, lsr #23
 8000ae8:	bf1e      	ittt	ne
 8000aea:	ea1c 53d1 	andsne.w	r3, ip, r1, lsr #23
 8000aee:	ea92 0f0c 	teqne	r2, ip
 8000af2:	ea93 0f0c 	teqne	r3, ip
 8000af6:	d069      	beq.n	8000bcc <__aeabi_fdiv+0xec>
 8000af8:	eba2 0203 	sub.w	r2, r2, r3
 8000afc:	ea80 0c01 	eor.w	ip, r0, r1
 8000b00:	0249      	lsls	r1, r1, #9
 8000b02:	ea4f 2040 	mov.w	r0, r0, lsl #9
 8000b06:	d037      	beq.n	8000b78 <__aeabi_fdiv+0x98>
 8000b08:	f04f 5380 	mov.w	r3, #268435456	@ 0x10000000
 8000b0c:	ea43 1111 	orr.w	r1, r3, r1, lsr #4
 8000b10:	ea43 1310 	orr.w	r3, r3, r0, lsr #4
 8000b14:	f00c 4000 	and.w	r0, ip, #2147483648	@ 0x80000000
 8000b18:	428b      	cmp	r3, r1
 8000b1a:	bf38      	it	cc
 8000b1c:	005b      	lslcc	r3, r3, #1
 8000b1e:	f142 027d 	adc.w	r2, r2, #125	@ 0x7d
 8000b22:	f44f 0c00 	mov.w	ip, #8388608	@ 0x800000
 8000b26:	428b      	cmp	r3, r1
 8000b28:	bf24      	itt	cs
 8000b2a:	1a5b      	subcs	r3, r3, r1
 8000b2c:	ea40 000c 	orrcs.w	r0, r0, ip
 8000b30:	ebb3 0f51 	cmp.w	r3, r1, lsr #1
 8000b34:	bf24      	itt	cs
 8000b36:	eba3 0351 	subcs.w	r3, r3, r1, lsr #1
 8000b3a:	ea40 005c 	orrcs.w	r0, r0, ip, lsr #1
 8000b3e:	ebb3 0f91 	cmp.w	r3, r1, lsr #2
 8000b42:	bf24      	itt	cs
 8000b44:	eba3 0391 	subcs.w	r3, r3, r1, lsr #2
 8000b48:	ea40 009c 	orrcs.w	r0, r0, ip, lsr #2
 8000b4c:	ebb3 0fd1 	cmp.w	r3, r1, lsr #3
 8000b50:	bf24      	itt	cs
 8000b52:	eba3 03d1 	subcs.w	r3, r3, r1, lsr #3
 8000b56:	ea40 00dc 	orrcs.w	r0, r0, ip, lsr #3
 8000b5a:	011b      	lsls	r3, r3, #4
 8000b5c:	bf18      	it	ne
 8000b5e:	ea5f 1c1c 	movsne.w	ip, ip, lsr #4
 8000b62:	d1e0      	bne.n	8000b26 <__aeabi_fdiv+0x46>
 8000b64:	2afd      	cmp	r2, #253	@ 0xfd
 8000b66:	f63f af50 	bhi.w	8000a0a <__aeabi_fmul+0x92>
 8000b6a:	428b      	cmp	r3, r1
 8000b6c:	eb40 50c2 	adc.w	r0, r0, r2, lsl #23
 8000b70:	bf08      	it	eq
 8000b72:	f020 0001 	biceq.w	r0, r0, #1
 8000b76:	4770      	bx	lr
 8000b78:	f00c 4c00 	and.w	ip, ip, #2147483648	@ 0x80000000
 8000b7c:	ea4c 2050 	orr.w	r0, ip, r0, lsr #9
 8000b80:	327f      	adds	r2, #127	@ 0x7f
 8000b82:	bfc2      	ittt	gt
 8000b84:	f1d2 03ff 	rsbsgt	r3, r2, #255	@ 0xff
 8000b88:	ea40 50c2 	orrgt.w	r0, r0, r2, lsl #23
 8000b8c:	4770      	bxgt	lr
 8000b8e:	f440 0000 	orr.w	r0, r0, #8388608	@ 0x800000
 8000b92:	f04f 0300 	mov.w	r3, #0
 8000b96:	3a01      	subs	r2, #1
 8000b98:	e737      	b.n	8000a0a <__aeabi_fmul+0x92>
 8000b9a:	f092 0f00 	teq	r2, #0
 8000b9e:	f000 4c00 	and.w	ip, r0, #2147483648	@ 0x80000000
 8000ba2:	bf02      	ittt	eq
 8000ba4:	0040      	lsleq	r0, r0, #1
 8000ba6:	f410 0f00 	tsteq.w	r0, #8388608	@ 0x800000
 8000baa:	3a01      	subeq	r2, #1
 8000bac:	d0f9      	beq.n	8000ba2 <__aeabi_fdiv+0xc2>
 8000bae:	ea40 000c 	orr.w	r0, r0, ip
 8000bb2:	f093 0f00 	teq	r3, #0
 8000bb6:	f001 4c00 	and.w	ip, r1, #2147483648	@ 0x80000000
 8000bba:	bf02      	ittt	eq
 8000bbc:	0049      	lsleq	r1, r1, #1
 8000bbe:	f411 0f00 	tsteq.w	r1, #8388608	@ 0x800000
 8000bc2:	3b01      	subeq	r3, #1
 8000bc4:	d0f9      	beq.n	8000bba <__aeabi_fdiv+0xda>
 8000bc6:	ea41 010c 	orr.w	r1, r1, ip
 8000bca:	e795      	b.n	8000af8 <__aeabi_fdiv+0x18>
 8000bcc:	ea0c 53d1 	and.w	r3, ip, r1, lsr #23
 8000bd0:	ea92 0f0c 	teq	r2, ip
 8000bd4:	d108      	bne.n	8000be8 <__aeabi_fdiv+0x108>
 8000bd6:	0242      	lsls	r2, r0, #9
 8000bd8:	f47f af7d 	bne.w	8000ad6 <__aeabi_fmul+0x15e>
 8000bdc:	ea93 0f0c 	teq	r3, ip
 8000be0:	f47f af70 	bne.w	8000ac4 <__aeabi_fmul+0x14c>
 8000be4:	4608      	mov	r0, r1
 8000be6:	e776      	b.n	8000ad6 <__aeabi_fmul+0x15e>
 8000be8:	ea93 0f0c 	teq	r3, ip
 8000bec:	d104      	bne.n	8000bf8 <__aeabi_fdiv+0x118>
 8000bee:	024b      	lsls	r3, r1, #9
 8000bf0:	f43f af4c 	beq.w	8000a8c <__aeabi_fmul+0x114>
 8000bf4:	4608      	mov	r0, r1
 8000bf6:	e76e      	b.n	8000ad6 <__aeabi_fmul+0x15e>
 8000bf8:	f030 4c00 	bics.w	ip, r0, #2147483648	@ 0x80000000
 8000bfc:	bf18      	it	ne
 8000bfe:	f031 4c00 	bicsne.w	ip, r1, #2147483648	@ 0x80000000
 8000c02:	d1ca      	bne.n	8000b9a <__aeabi_fdiv+0xba>
 8000c04:	f030 4200 	bics.w	r2, r0, #2147483648	@ 0x80000000
 8000c08:	f47f af5c 	bne.w	8000ac4 <__aeabi_fmul+0x14c>
 8000c0c:	f031 4300 	bics.w	r3, r1, #2147483648	@ 0x80000000
 8000c10:	f47f af3c 	bne.w	8000a8c <__aeabi_fmul+0x114>
 8000c14:	e75f      	b.n	8000ad6 <__aeabi_fmul+0x15e>
 8000c16:	bf00      	nop

08000c18 <__gesf2>:
 8000c18:	f04f 3cff 	mov.w	ip, #4294967295
 8000c1c:	e006      	b.n	8000c2c <__cmpsf2+0x4>
 8000c1e:	bf00      	nop

08000c20 <__lesf2>:
 8000c20:	f04f 0c01 	mov.w	ip, #1
 8000c24:	e002      	b.n	8000c2c <__cmpsf2+0x4>
 8000c26:	bf00      	nop

08000c28 <__cmpsf2>:
 8000c28:	f04f 0c01 	mov.w	ip, #1
 8000c2c:	f84d cd04 	str.w	ip, [sp, #-4]!
 8000c30:	ea4f 0240 	mov.w	r2, r0, lsl #1
 8000c34:	ea4f 0341 	mov.w	r3, r1, lsl #1
 8000c38:	ea7f 6c22 	mvns.w	ip, r2, asr #24
 8000c3c:	bf18      	it	ne
 8000c3e:	ea7f 6c23 	mvnsne.w	ip, r3, asr #24
 8000c42:	d011      	beq.n	8000c68 <__cmpsf2+0x40>
 8000c44:	b001      	add	sp, #4
 8000c46:	ea52 0c53 	orrs.w	ip, r2, r3, lsr #1
 8000c4a:	bf18      	it	ne
 8000c4c:	ea90 0f01 	teqne	r0, r1
 8000c50:	bf58      	it	pl
 8000c52:	ebb2 0003 	subspl.w	r0, r2, r3
 8000c56:	bf88      	it	hi
 8000c58:	17c8      	asrhi	r0, r1, #31
 8000c5a:	bf38      	it	cc
 8000c5c:	ea6f 70e1 	mvncc.w	r0, r1, asr #31
 8000c60:	bf18      	it	ne
 8000c62:	f040 0001 	orrne.w	r0, r0, #1
 8000c66:	4770      	bx	lr
 8000c68:	ea7f 6c22 	mvns.w	ip, r2, asr #24
 8000c6c:	d102      	bne.n	8000c74 <__cmpsf2+0x4c>
 8000c6e:	ea5f 2c40 	movs.w	ip, r0, lsl #9
 8000c72:	d105      	bne.n	8000c80 <__cmpsf2+0x58>
 8000c74:	ea7f 6c23 	mvns.w	ip, r3, asr #24
 8000c78:	d1e4      	bne.n	8000c44 <__cmpsf2+0x1c>
 8000c7a:	ea5f 2c41 	movs.w	ip, r1, lsl #9
 8000c7e:	d0e1      	beq.n	8000c44 <__cmpsf2+0x1c>
 8000c80:	f85d 0b04 	ldr.w	r0, [sp], #4
 8000c84:	4770      	bx	lr
 8000c86:	bf00      	nop

08000c88 <__aeabi_cfrcmple>:
 8000c88:	4684      	mov	ip, r0
 8000c8a:	4608      	mov	r0, r1
 8000c8c:	4661      	mov	r1, ip
 8000c8e:	e7ff      	b.n	8000c90 <__aeabi_cfcmpeq>

08000c90 <__aeabi_cfcmpeq>:
 8000c90:	b50f      	push	{r0, r1, r2, r3, lr}
 8000c92:	f7ff ffc9 	bl	8000c28 <__cmpsf2>
 8000c96:	2800      	cmp	r0, #0
 8000c98:	bf48      	it	mi
 8000c9a:	f110 0f00 	cmnmi.w	r0, #0
 8000c9e:	bd0f      	pop	{r0, r1, r2, r3, pc}

08000ca0 <__aeabi_fcmpeq>:
 8000ca0:	f84d ed08 	str.w	lr, [sp, #-8]!
 8000ca4:	f7ff fff4 	bl	8000c90 <__aeabi_cfcmpeq>
 8000ca8:	bf0c      	ite	eq
 8000caa:	2001      	moveq	r0, #1
 8000cac:	2000      	movne	r0, #0
 8000cae:	f85d fb08 	ldr.w	pc, [sp], #8
 8000cb2:	bf00      	nop

08000cb4 <__aeabi_fcmplt>:
 8000cb4:	f84d ed08 	str.w	lr, [sp, #-8]!
 8000cb8:	f7ff ffea 	bl	8000c90 <__aeabi_cfcmpeq>
 8000cbc:	bf34      	ite	cc
 8000cbe:	2001      	movcc	r0, #1
 8000cc0:	2000      	movcs	r0, #0
 8000cc2:	f85d fb08 	ldr.w	pc, [sp], #8
 8000cc6:	bf00      	nop

08000cc8 <__aeabi_fcmple>:
 8000cc8:	f84d ed08 	str.w	lr, [sp, #-8]!
 8000ccc:	f7ff ffe0 	bl	8000c90 <__aeabi_cfcmpeq>
 8000cd0:	bf94      	ite	ls
 8000cd2:	2001      	movls	r0, #1
 8000cd4:	2000      	movhi	r0, #0
 8000cd6:	f85d fb08 	ldr.w	pc, [sp], #8
 8000cda:	bf00      	nop

08000cdc <__aeabi_fcmpge>:
 8000cdc:	f84d ed08 	str.w	lr, [sp, #-8]!
 8000ce0:	f7ff ffd2 	bl	8000c88 <__aeabi_cfrcmple>
 8000ce4:	bf94      	ite	ls
 8000ce6:	2001      	movls	r0, #1
 8000ce8:	2000      	movhi	r0, #0
 8000cea:	f85d fb08 	ldr.w	pc, [sp], #8
 8000cee:	bf00      	nop

08000cf0 <__aeabi_fcmpgt>:
 8000cf0:	f84d ed08 	str.w	lr, [sp, #-8]!
 8000cf4:	f7ff ffc8 	bl	8000c88 <__aeabi_cfrcmple>
 8000cf8:	bf34      	ite	cc
 8000cfa:	2001      	movcc	r0, #1
 8000cfc:	2000      	movcs	r0, #0
 8000cfe:	f85d fb08 	ldr.w	pc, [sp], #8
 8000d02:	bf00      	nop

08000d04 <__aeabi_f2uiz>:
 8000d04:	0042      	lsls	r2, r0, #1
 8000d06:	d20e      	bcs.n	8000d26 <__aeabi_f2uiz+0x22>
 8000d08:	f1b2 4ffe 	cmp.w	r2, #2130706432	@ 0x7f000000
 8000d0c:	d30b      	bcc.n	8000d26 <__aeabi_f2uiz+0x22>
 8000d0e:	f04f 039e 	mov.w	r3, #158	@ 0x9e
 8000d12:	ebb3 6212 	subs.w	r2, r3, r2, lsr #24
 8000d16:	d409      	bmi.n	8000d2c <__aeabi_f2uiz+0x28>
 8000d18:	ea4f 2300 	mov.w	r3, r0, lsl #8
 8000d1c:	f043 4300 	orr.w	r3, r3, #2147483648	@ 0x80000000
 8000d20:	fa23 f002 	lsr.w	r0, r3, r2
 8000d24:	4770      	bx	lr
 8000d26:	f04f 0000 	mov.w	r0, #0
 8000d2a:	4770      	bx	lr
 8000d2c:	f112 0f61 	cmn.w	r2, #97	@ 0x61
 8000d30:	d101      	bne.n	8000d36 <__aeabi_f2uiz+0x32>
 8000d32:	0242      	lsls	r2, r0, #9
 8000d34:	d102      	bne.n	8000d3c <__aeabi_f2uiz+0x38>
 8000d36:	f04f 30ff 	mov.w	r0, #4294967295
 8000d3a:	4770      	bx	lr
 8000d3c:	f04f 0000 	mov.w	r0, #0
 8000d40:	4770      	bx	lr
 8000d42:	bf00      	nop

08000d44 <Read_ADC_Value>:
 8000d44:	b538      	push	{r3, r4, r5, lr}
 8000d46:	4c08      	ldr	r4, [pc, #32]	@ (8000d68 <Read_ADC_Value+0x24>)
 8000d48:	4620      	mov	r0, r4
 8000d4a:	f001 fd15 	bl	8002778 <HAL_ADC_Start>
 8000d4e:	210a      	movs	r1, #10
 8000d50:	4620      	mov	r0, r4
 8000d52:	f001 fbaf 	bl	80024b4 <HAL_ADC_PollForConversion>
 8000d56:	4620      	mov	r0, r4
 8000d58:	f001 fc50 	bl	80025fc <HAL_ADC_GetValue>
 8000d5c:	4605      	mov	r5, r0
 8000d5e:	4620      	mov	r0, r4
 8000d60:	f001 fe10 	bl	8002984 <HAL_ADC_Stop>
 8000d64:	b2a8      	uxth	r0, r5
 8000d66:	bd38      	pop	{r3, r4, r5, pc}
 8000d68:	200005b4 	.word	0x200005b4

08000d6c <Read_ACS712>:
 8000d6c:	e92d 41f0 	stmdb	sp!, {r4, r5, r6, r7, r8, lr}
 8000d70:	2564      	movs	r5, #100	@ 0x64
 8000d72:	2400      	movs	r4, #0
 8000d74:	f8df 804c 	ldr.w	r8, [pc, #76]	@ 8000dc4 <Read_ACS712+0x58>
 8000d78:	4f13      	ldr	r7, [pc, #76]	@ (8000dc8 <Read_ACS712+0x5c>)
 8000d7a:	4e14      	ldr	r6, [pc, #80]	@ (8000dcc <Read_ACS712+0x60>)
 8000d7c:	f7ff ffe2 	bl	8000d44 <Read_ADC_Value>
 8000d80:	f7ff fda6 	bl	80008d0 <__aeabi_i2f>
 8000d84:	4641      	mov	r1, r8
 8000d86:	f7ff fdf7 	bl	8000978 <__aeabi_fmul>
 8000d8a:	4639      	mov	r1, r7
 8000d8c:	f7ff fcea 	bl	8000764 <__aeabi_fsub>
 8000d90:	4631      	mov	r1, r6
 8000d92:	f7ff fea5 	bl	8000ae0 <__aeabi_fdiv>
 8000d96:	4601      	mov	r1, r0
 8000d98:	4620      	mov	r0, r4
 8000d9a:	f7ff fce5 	bl	8000768 <__addsf3>
 8000d9e:	4604      	mov	r4, r0
 8000da0:	2001      	movs	r0, #1
 8000da2:	f004 fa3a 	bl	800521a <osDelay>
 8000da6:	3d01      	subs	r5, #1
 8000da8:	d1e8      	bne.n	8000d7c <Read_ACS712+0x10>
 8000daa:	4909      	ldr	r1, [pc, #36]	@ (8000dd0 <Read_ACS712+0x64>)
 8000dac:	4620      	mov	r0, r4
 8000dae:	f7ff fde3 	bl	8000978 <__aeabi_fmul>
 8000db2:	f7ff ffa7 	bl	8000d04 <__aeabi_f2uiz>
 8000db6:	4b07      	ldr	r3, [pc, #28]	@ (8000dd4 <Read_ACS712+0x68>)
 8000db8:	b280      	uxth	r0, r0
 8000dba:	f8a3 004a 	strh.w	r0, [r3, #74]	@ 0x4a
 8000dbe:	e8bd 81f0 	ldmia.w	sp!, {r4, r5, r6, r7, r8, pc}
 8000dc2:	bf00      	nop
 8000dc4:	3cd844d0 	.word	0x3cd844d0
 8000dc8:	415828f6 	.word	0x415828f6
 8000dcc:	447a0000 	.word	0x447a0000
 8000dd0:	42c80000 	.word	0x42c80000
 8000dd4:	200000ca 	.word	0x200000ca

08000dd8 <DOutput_SetRelay.part.0>:
 8000dd8:	4b03      	ldr	r3, [pc, #12]	@ (8000de8 <DOutput_SetRelay.part.0+0x10>)
 8000dda:	4602      	mov	r2, r0
 8000ddc:	7058      	strb	r0, [r3, #1]
 8000dde:	2108      	movs	r1, #8
 8000de0:	4802      	ldr	r0, [pc, #8]	@ (8000dec <DOutput_SetRelay.part.0+0x14>)
 8000de2:	f002 b80d 	b.w	8002e00 <HAL_GPIO_WritePin>
 8000de6:	bf00      	nop
 8000de8:	20000030 	.word	0x20000030
 8000dec:	40010c00 	.word	0x40010c00

08000df0 <DOutput_Load>:
 8000df0:	4a06      	ldr	r2, [pc, #24]	@ (8000e0c <DOutput_Load+0x1c>)
 8000df2:	f8b2 3080 	ldrh.w	r3, [r2, #128]	@ 0x80
 8000df6:	3b00      	subs	r3, #0
 8000df8:	bf18      	it	ne
 8000dfa:	2301      	movne	r3, #1
 8000dfc:	7003      	strb	r3, [r0, #0]
 8000dfe:	f8b2 3082 	ldrh.w	r3, [r2, #130]	@ 0x82
 8000e02:	3b00      	subs	r3, #0
 8000e04:	bf18      	it	ne
 8000e06:	2301      	movne	r3, #1
 8000e08:	7043      	strb	r3, [r0, #1]
 8000e0a:	4770      	bx	lr
 8000e0c:	200000ca 	.word	0x200000ca

08000e10 <DOutput_Save>:
 8000e10:	7802      	ldrb	r2, [r0, #0]
 8000e12:	4b03      	ldr	r3, [pc, #12]	@ (8000e20 <DOutput_Save+0x10>)
 8000e14:	f8a3 2080 	strh.w	r2, [r3, #128]	@ 0x80
 8000e18:	7842      	ldrb	r2, [r0, #1]
 8000e1a:	f8a3 2082 	strh.w	r2, [r3, #130]	@ 0x82
 8000e1e:	4770      	bx	lr
 8000e20:	200000ca 	.word	0x200000ca

08000e24 <DOutput_SetRelay>:
 8000e24:	2801      	cmp	r0, #1
 8000e26:	460a      	mov	r2, r1
 8000e28:	d105      	bne.n	8000e36 <DOutput_SetRelay+0x12>
 8000e2a:	4b06      	ldr	r3, [pc, #24]	@ (8000e44 <DOutput_SetRelay+0x20>)
 8000e2c:	4806      	ldr	r0, [pc, #24]	@ (8000e48 <DOutput_SetRelay+0x24>)
 8000e2e:	7019      	strb	r1, [r3, #0]
 8000e30:	2110      	movs	r1, #16
 8000e32:	f001 bfe5 	b.w	8002e00 <HAL_GPIO_WritePin>
 8000e36:	2802      	cmp	r0, #2
 8000e38:	d102      	bne.n	8000e40 <DOutput_SetRelay+0x1c>
 8000e3a:	4608      	mov	r0, r1
 8000e3c:	f7ff bfcc 	b.w	8000dd8 <DOutput_SetRelay.part.0>
 8000e40:	4770      	bx	lr
 8000e42:	bf00      	nop
 8000e44:	20000030 	.word	0x20000030
 8000e48:	40010c00 	.word	0x40010c00

08000e4c <DOutput_Process>:
 8000e4c:	b510      	push	{r4, lr}
 8000e4e:	4c09      	ldr	r4, [pc, #36]	@ (8000e74 <DOutput_Process+0x28>)
 8000e50:	88e3      	ldrh	r3, [r4, #6]
 8000e52:	b90b      	cbnz	r3, 8000e58 <DOutput_Process+0xc>
 8000e54:	8ce1      	ldrh	r1, [r4, #38]	@ 0x26
 8000e56:	b101      	cbz	r1, 8000e5a <DOutput_Process+0xe>
 8000e58:	2101      	movs	r1, #1
 8000e5a:	2001      	movs	r0, #1
 8000e5c:	f7ff ffe2 	bl	8000e24 <DOutput_SetRelay>
 8000e60:	f9b4 3200 	ldrsh.w	r3, [r4, #512]	@ 0x200
 8000e64:	e8bd 4010 	ldmia.w	sp!, {r4, lr}
 8000e68:	2b00      	cmp	r3, #0
 8000e6a:	bfb4      	ite	lt
 8000e6c:	2001      	movlt	r0, #1
 8000e6e:	2000      	movge	r0, #0
 8000e70:	f7ff bfb2 	b.w	8000dd8 <DOutput_SetRelay.part.0>
 8000e74:	200000ca 	.word	0x200000ca

08000e78 <Motor1_Set_Direction.part.0>:
 8000e78:	b538      	push	{r3, r4, r5, lr}
 8000e7a:	2400      	movs	r4, #0
 8000e7c:	4d0b      	ldr	r5, [pc, #44]	@ (8000eac <Motor1_Set_Direction.part.0+0x34>)
 8000e7e:	4622      	mov	r2, r4
 8000e80:	2110      	movs	r1, #16
 8000e82:	480b      	ldr	r0, [pc, #44]	@ (8000eb0 <Motor1_Set_Direction.part.0+0x38>)
 8000e84:	712c      	strb	r4, [r5, #4]
 8000e86:	f001 ffbb 	bl	8002e00 <HAL_GPIO_WritePin>
 8000e8a:	4622      	mov	r2, r4
 8000e8c:	2102      	movs	r1, #2
 8000e8e:	4809      	ldr	r0, [pc, #36]	@ (8000eb4 <Motor1_Set_Direction.part.0+0x3c>)
 8000e90:	f001 ffb6 	bl	8002e00 <HAL_GPIO_WritePin>
 8000e94:	70ec      	strb	r4, [r5, #3]
 8000e96:	4d08      	ldr	r5, [pc, #32]	@ (8000eb8 <Motor1_Set_Direction.part.0+0x40>)
 8000e98:	4621      	mov	r1, r4
 8000e9a:	4628      	mov	r0, r5
 8000e9c:	f003 fd76 	bl	800498c <HAL_TIM_PWM_Stop>
 8000ea0:	4628      	mov	r0, r5
 8000ea2:	e8bd 4038 	ldmia.w	sp!, {r3, r4, r5, lr}
 8000ea6:	2104      	movs	r1, #4
 8000ea8:	f003 bd70 	b.w	800498c <HAL_TIM_PWM_Stop>
 8000eac:	20000090 	.word	0x20000090
 8000eb0:	40010800 	.word	0x40010800
 8000eb4:	40010c00 	.word	0x40010c00
 8000eb8:	20000488 	.word	0x20000488

08000ebc <MotorRegisters_Load>:
 8000ebc:	4b1e      	ldr	r3, [pc, #120]	@ (8000f38 <MotorRegisters_Load+0x7c>)
 8000ebe:	f833 2011 	ldrh.w	r2, [r3, r1, lsl #1]
 8000ec2:	7002      	strb	r2, [r0, #0]
 8000ec4:	1c4a      	adds	r2, r1, #1
 8000ec6:	f833 2012 	ldrh.w	r2, [r3, r2, lsl #1]
 8000eca:	7042      	strb	r2, [r0, #1]
 8000ecc:	1c8a      	adds	r2, r1, #2
 8000ece:	f833 2012 	ldrh.w	r2, [r3, r2, lsl #1]
 8000ed2:	7082      	strb	r2, [r0, #2]
 8000ed4:	1cca      	adds	r2, r1, #3
 8000ed6:	f833 2012 	ldrh.w	r2, [r3, r2, lsl #1]
 8000eda:	70c2      	strb	r2, [r0, #3]
 8000edc:	1d0a      	adds	r2, r1, #4
 8000ede:	f833 2012 	ldrh.w	r2, [r3, r2, lsl #1]
 8000ee2:	7102      	strb	r2, [r0, #4]
 8000ee4:	1d4a      	adds	r2, r1, #5
 8000ee6:	f833 2012 	ldrh.w	r2, [r3, r2, lsl #1]
 8000eea:	7142      	strb	r2, [r0, #5]
 8000eec:	1d8a      	adds	r2, r1, #6
 8000eee:	f833 2012 	ldrh.w	r2, [r3, r2, lsl #1]
 8000ef2:	7182      	strb	r2, [r0, #6]
 8000ef4:	1dca      	adds	r2, r1, #7
 8000ef6:	f833 2012 	ldrh.w	r2, [r3, r2, lsl #1]
 8000efa:	71c2      	strb	r2, [r0, #7]
 8000efc:	f101 0208 	add.w	r2, r1, #8
 8000f00:	f833 2012 	ldrh.w	r2, [r3, r2, lsl #1]
 8000f04:	7202      	strb	r2, [r0, #8]
 8000f06:	f101 0209 	add.w	r2, r1, #9
 8000f0a:	f833 2012 	ldrh.w	r2, [r3, r2, lsl #1]
 8000f0e:	7242      	strb	r2, [r0, #9]
 8000f10:	f101 020a 	add.w	r2, r1, #10
 8000f14:	f833 2012 	ldrh.w	r2, [r3, r2, lsl #1]
 8000f18:	7282      	strb	r2, [r0, #10]
 8000f1a:	f101 020b 	add.w	r2, r1, #11
 8000f1e:	f833 2012 	ldrh.w	r2, [r3, r2, lsl #1]
 8000f22:	72c2      	strb	r2, [r0, #11]
 8000f24:	f101 020c 	add.w	r2, r1, #12
 8000f28:	f833 2012 	ldrh.w	r2, [r3, r2, lsl #1]
 8000f2c:	310d      	adds	r1, #13
 8000f2e:	7302      	strb	r2, [r0, #12]
 8000f30:	f833 3011 	ldrh.w	r3, [r3, r1, lsl #1]
 8000f34:	7343      	strb	r3, [r0, #13]
 8000f36:	4770      	bx	lr
 8000f38:	200000ca 	.word	0x200000ca

08000f3c <SystemRegisters_Load>:
 8000f3c:	4b0e      	ldr	r3, [pc, #56]	@ (8000f78 <SystemRegisters_Load+0x3c>)
 8000f3e:	f833 2011 	ldrh.w	r2, [r3, r1, lsl #1]
 8000f42:	8002      	strh	r2, [r0, #0]
 8000f44:	1c4a      	adds	r2, r1, #1
 8000f46:	f833 2012 	ldrh.w	r2, [r3, r2, lsl #1]
 8000f4a:	8042      	strh	r2, [r0, #2]
 8000f4c:	1c8a      	adds	r2, r1, #2
 8000f4e:	f833 2012 	ldrh.w	r2, [r3, r2, lsl #1]
 8000f52:	8082      	strh	r2, [r0, #4]
 8000f54:	1cca      	adds	r2, r1, #3
 8000f56:	f833 2012 	ldrh.w	r2, [r3, r2, lsl #1]
 8000f5a:	80c2      	strh	r2, [r0, #6]
 8000f5c:	1d0a      	adds	r2, r1, #4
 8000f5e:	f833 2012 	ldrh.w	r2, [r3, r2, lsl #1]
 8000f62:	8102      	strh	r2, [r0, #8]
 8000f64:	1d4a      	adds	r2, r1, #5
 8000f66:	f833 2012 	ldrh.w	r2, [r3, r2, lsl #1]
 8000f6a:	3106      	adds	r1, #6
 8000f6c:	8142      	strh	r2, [r0, #10]
 8000f6e:	f833 3011 	ldrh.w	r3, [r3, r1, lsl #1]
 8000f72:	8183      	strh	r3, [r0, #12]
 8000f74:	4770      	bx	lr
 8000f76:	bf00      	nop
 8000f78:	200000ca 	.word	0x200000ca

08000f7c <MotorRegisters_Save>:
 8000f7c:	7802      	ldrb	r2, [r0, #0]
 8000f7e:	4b1f      	ldr	r3, [pc, #124]	@ (8000ffc <MotorRegisters_Save+0x80>)
 8000f80:	b510      	push	{r4, lr}
 8000f82:	f823 2011 	strh.w	r2, [r3, r1, lsl #1]
 8000f86:	7844      	ldrb	r4, [r0, #1]
 8000f88:	1c4a      	adds	r2, r1, #1
 8000f8a:	f823 4012 	strh.w	r4, [r3, r2, lsl #1]
 8000f8e:	7884      	ldrb	r4, [r0, #2]
 8000f90:	1c8a      	adds	r2, r1, #2
 8000f92:	f823 4012 	strh.w	r4, [r3, r2, lsl #1]
 8000f96:	78c4      	ldrb	r4, [r0, #3]
 8000f98:	1cca      	adds	r2, r1, #3
 8000f9a:	f823 4012 	strh.w	r4, [r3, r2, lsl #1]
 8000f9e:	7904      	ldrb	r4, [r0, #4]
 8000fa0:	1d0a      	adds	r2, r1, #4
 8000fa2:	f823 4012 	strh.w	r4, [r3, r2, lsl #1]
 8000fa6:	7944      	ldrb	r4, [r0, #5]
 8000fa8:	1d4a      	adds	r2, r1, #5
 8000faa:	f823 4012 	strh.w	r4, [r3, r2, lsl #1]
 8000fae:	7984      	ldrb	r4, [r0, #6]
 8000fb0:	1d8a      	adds	r2, r1, #6
 8000fb2:	f823 4012 	strh.w	r4, [r3, r2, lsl #1]
 8000fb6:	79c4      	ldrb	r4, [r0, #7]
 8000fb8:	1dca      	adds	r2, r1, #7
 8000fba:	f823 4012 	strh.w	r4, [r3, r2, lsl #1]
 8000fbe:	7a04      	ldrb	r4, [r0, #8]
 8000fc0:	f101 0208 	add.w	r2, r1, #8
 8000fc4:	f823 4012 	strh.w	r4, [r3, r2, lsl #1]
 8000fc8:	7a44      	ldrb	r4, [r0, #9]
 8000fca:	f101 0209 	add.w	r2, r1, #9
 8000fce:	f823 4012 	strh.w	r4, [r3, r2, lsl #1]
 8000fd2:	7a84      	ldrb	r4, [r0, #10]
 8000fd4:	f101 020a 	add.w	r2, r1, #10
 8000fd8:	f823 4012 	strh.w	r4, [r3, r2, lsl #1]
 8000fdc:	7ac4      	ldrb	r4, [r0, #11]
 8000fde:	f101 020b 	add.w	r2, r1, #11
 8000fe2:	f823 4012 	strh.w	r4, [r3, r2, lsl #1]
 8000fe6:	7b04      	ldrb	r4, [r0, #12]
 8000fe8:	f101 020c 	add.w	r2, r1, #12
 8000fec:	f823 4012 	strh.w	r4, [r3, r2, lsl #1]
 8000ff0:	7b42      	ldrb	r2, [r0, #13]
 8000ff2:	310d      	adds	r1, #13
 8000ff4:	f823 2011 	strh.w	r2, [r3, r1, lsl #1]
 8000ff8:	bd10      	pop	{r4, pc}
 8000ffa:	bf00      	nop
 8000ffc:	200000ca 	.word	0x200000ca

08001000 <SystemRegisters_Save>:
 8001000:	8802      	ldrh	r2, [r0, #0]
 8001002:	4b0e      	ldr	r3, [pc, #56]	@ (800103c <SystemRegisters_Save+0x3c>)
 8001004:	b510      	push	{r4, lr}
 8001006:	f823 2011 	strh.w	r2, [r3, r1, lsl #1]
 800100a:	8844      	ldrh	r4, [r0, #2]
 800100c:	1c4a      	adds	r2, r1, #1
 800100e:	f823 4012 	strh.w	r4, [r3, r2, lsl #1]
 8001012:	8884      	ldrh	r4, [r0, #4]
 8001014:	1c8a      	adds	r2, r1, #2
 8001016:	f823 4012 	strh.w	r4, [r3, r2, lsl #1]
 800101a:	88c4      	ldrh	r4, [r0, #6]
 800101c:	1cca      	adds	r2, r1, #3
 800101e:	f823 4012 	strh.w	r4, [r3, r2, lsl #1]
 8001022:	8904      	ldrh	r4, [r0, #8]
 8001024:	1d0a      	adds	r2, r1, #4
 8001026:	f823 4012 	strh.w	r4, [r3, r2, lsl #1]
 800102a:	8944      	ldrh	r4, [r0, #10]
 800102c:	1d4a      	adds	r2, r1, #5
 800102e:	f823 4012 	strh.w	r4, [r3, r2, lsl #1]
 8001032:	8982      	ldrh	r2, [r0, #12]
 8001034:	3106      	adds	r1, #6
 8001036:	f823 2011 	strh.w	r2, [r3, r1, lsl #1]
 800103a:	bd10      	pop	{r4, pc}
 800103c:	200000ca 	.word	0x200000ca

08001040 <Motor1_Set_Direction>:
 8001040:	4602      	mov	r2, r0
 8001042:	b908      	cbnz	r0, 8001048 <Motor1_Set_Direction+0x8>
 8001044:	f7ff bf18 	b.w	8000e78 <Motor1_Set_Direction.part.0>
 8001048:	2801      	cmp	r0, #1
 800104a:	d105      	bne.n	8001058 <Motor1_Set_Direction+0x18>
 800104c:	4b06      	ldr	r3, [pc, #24]	@ (8001068 <Motor1_Set_Direction+0x28>)
 800104e:	7118      	strb	r0, [r3, #4]
 8001050:	2110      	movs	r1, #16
 8001052:	4806      	ldr	r0, [pc, #24]	@ (800106c <Motor1_Set_Direction+0x2c>)
 8001054:	f001 bed4 	b.w	8002e00 <HAL_GPIO_WritePin>
 8001058:	2802      	cmp	r0, #2
 800105a:	d103      	bne.n	8001064 <Motor1_Set_Direction+0x24>
 800105c:	4b02      	ldr	r3, [pc, #8]	@ (8001068 <Motor1_Set_Direction+0x28>)
 800105e:	2200      	movs	r2, #0
 8001060:	7118      	strb	r0, [r3, #4]
 8001062:	e7f5      	b.n	8001050 <Motor1_Set_Direction+0x10>
 8001064:	4770      	bx	lr
 8001066:	bf00      	nop
 8001068:	20000090 	.word	0x20000090
 800106c:	40010800 	.word	0x40010800

08001070 <Motor2_Set_Direction>:
 8001070:	b538      	push	{r3, r4, r5, lr}
 8001072:	4604      	mov	r4, r0
 8001074:	b9c0      	cbnz	r0, 80010a8 <Motor2_Set_Direction+0x38>
 8001076:	4d1c      	ldr	r5, [pc, #112]	@ (80010e8 <Motor2_Set_Direction+0x78>)
 8001078:	4602      	mov	r2, r0
 800107a:	7128      	strb	r0, [r5, #4]
 800107c:	f44f 7100 	mov.w	r1, #512	@ 0x200
 8001080:	481a      	ldr	r0, [pc, #104]	@ (80010ec <Motor2_Set_Direction+0x7c>)
 8001082:	f001 febd 	bl	8002e00 <HAL_GPIO_WritePin>
 8001086:	4622      	mov	r2, r4
 8001088:	f44f 5180 	mov.w	r1, #4096	@ 0x1000
 800108c:	4818      	ldr	r0, [pc, #96]	@ (80010f0 <Motor2_Set_Direction+0x80>)
 800108e:	f001 feb7 	bl	8002e00 <HAL_GPIO_WritePin>
 8001092:	4621      	mov	r1, r4
 8001094:	4817      	ldr	r0, [pc, #92]	@ (80010f4 <Motor2_Set_Direction+0x84>)
 8001096:	70ec      	strb	r4, [r5, #3]
 8001098:	f003 fc78 	bl	800498c <HAL_TIM_PWM_Stop>
 800109c:	e8bd 4038 	ldmia.w	sp!, {r3, r4, r5, lr}
 80010a0:	2108      	movs	r1, #8
 80010a2:	4814      	ldr	r0, [pc, #80]	@ (80010f4 <Motor2_Set_Direction+0x84>)
 80010a4:	f003 bc72 	b.w	800498c <HAL_TIM_PWM_Stop>
 80010a8:	2801      	cmp	r0, #1
 80010aa:	d10f      	bne.n	80010cc <Motor2_Set_Direction+0x5c>
 80010ac:	4b0e      	ldr	r3, [pc, #56]	@ (80010e8 <Motor2_Set_Direction+0x78>)
 80010ae:	4602      	mov	r2, r0
 80010b0:	7118      	strb	r0, [r3, #4]
 80010b2:	f44f 7100 	mov.w	r1, #512	@ 0x200
 80010b6:	480d      	ldr	r0, [pc, #52]	@ (80010ec <Motor2_Set_Direction+0x7c>)
 80010b8:	f001 fea2 	bl	8002e00 <HAL_GPIO_WritePin>
 80010bc:	2200      	movs	r2, #0
 80010be:	e8bd 4038 	ldmia.w	sp!, {r3, r4, r5, lr}
 80010c2:	f44f 5180 	mov.w	r1, #4096	@ 0x1000
 80010c6:	480a      	ldr	r0, [pc, #40]	@ (80010f0 <Motor2_Set_Direction+0x80>)
 80010c8:	f001 be9a 	b.w	8002e00 <HAL_GPIO_WritePin>
 80010cc:	2802      	cmp	r0, #2
 80010ce:	d109      	bne.n	80010e4 <Motor2_Set_Direction+0x74>
 80010d0:	4b05      	ldr	r3, [pc, #20]	@ (80010e8 <Motor2_Set_Direction+0x78>)
 80010d2:	2200      	movs	r2, #0
 80010d4:	7118      	strb	r0, [r3, #4]
 80010d6:	f44f 7100 	mov.w	r1, #512	@ 0x200
 80010da:	4804      	ldr	r0, [pc, #16]	@ (80010ec <Motor2_Set_Direction+0x7c>)
 80010dc:	f001 fe90 	bl	8002e00 <HAL_GPIO_WritePin>
 80010e0:	2201      	movs	r2, #1
 80010e2:	e7ec      	b.n	80010be <Motor2_Set_Direction+0x4e>
 80010e4:	bd38      	pop	{r3, r4, r5, pc}
 80010e6:	bf00      	nop
 80010e8:	20000082 	.word	0x20000082
 80010ec:	40010800 	.word	0x40010800
 80010f0:	40010c00 	.word	0x40010c00
 80010f4:	20000518 	.word	0x20000518

080010f8 <Motor1_OutputPWM>:
 80010f8:	b538      	push	{r3, r4, r5, lr}
 80010fa:	4d07      	ldr	r5, [pc, #28]	@ (8001118 <Motor1_OutputPWM+0x20>)
 80010fc:	682b      	ldr	r3, [r5, #0]
 80010fe:	4628      	mov	r0, r5
 8001100:	6adc      	ldr	r4, [r3, #44]	@ 0x2c
 8001102:	2364      	movs	r3, #100	@ 0x64
 8001104:	434c      	muls	r4, r1
 8001106:	fbb4 f4f3 	udiv	r4, r4, r3
 800110a:	2100      	movs	r1, #0
 800110c:	f003 fc02 	bl	8004914 <HAL_TIM_PWM_Start>
 8001110:	682b      	ldr	r3, [r5, #0]
 8001112:	635c      	str	r4, [r3, #52]	@ 0x34
 8001114:	bd38      	pop	{r3, r4, r5, pc}
 8001116:	bf00      	nop
 8001118:	20000488 	.word	0x20000488

0800111c <Motor2_OutputPWM>:
 800111c:	b538      	push	{r3, r4, r5, lr}
 800111e:	4c11      	ldr	r4, [pc, #68]	@ (8001164 <Motor2_OutputPWM+0x48>)
 8001120:	6823      	ldr	r3, [r4, #0]
 8001122:	6add      	ldr	r5, [r3, #44]	@ 0x2c
 8001124:	2364      	movs	r3, #100	@ 0x64
 8001126:	434d      	muls	r5, r1
 8001128:	fbb5 f5f3 	udiv	r5, r5, r3
 800112c:	7903      	ldrb	r3, [r0, #4]
 800112e:	2b01      	cmp	r3, #1
 8001130:	d10a      	bne.n	8001148 <Motor2_OutputPWM+0x2c>
 8001132:	2108      	movs	r1, #8
 8001134:	4620      	mov	r0, r4
 8001136:	f003 fc29 	bl	800498c <HAL_TIM_PWM_Stop>
 800113a:	2100      	movs	r1, #0
 800113c:	4620      	mov	r0, r4
 800113e:	f003 fbe9 	bl	8004914 <HAL_TIM_PWM_Start>
 8001142:	6823      	ldr	r3, [r4, #0]
 8001144:	635d      	str	r5, [r3, #52]	@ 0x34
 8001146:	bd38      	pop	{r3, r4, r5, pc}
 8001148:	2b02      	cmp	r3, #2
 800114a:	d1fc      	bne.n	8001146 <Motor2_OutputPWM+0x2a>
 800114c:	2100      	movs	r1, #0
 800114e:	4620      	mov	r0, r4
 8001150:	f003 fc1c 	bl	800498c <HAL_TIM_PWM_Stop>
 8001154:	2108      	movs	r1, #8
 8001156:	4620      	mov	r0, r4
 8001158:	f003 fbdc 	bl	8004914 <HAL_TIM_PWM_Start>
 800115c:	6823      	ldr	r3, [r4, #0]
 800115e:	63dd      	str	r5, [r3, #60]	@ 0x3c
 8001160:	e7f1      	b.n	8001146 <Motor2_OutputPWM+0x2a>
 8001162:	bf00      	nop
 8001164:	20000518 	.word	0x20000518

08001168 <Motor_HandleOnOff>:
 8001168:	b538      	push	{r3, r4, r5, lr}
 800116a:	4a17      	ldr	r2, [pc, #92]	@ (80011c8 <Motor_HandleOnOff+0x60>)
 800116c:	7841      	ldrb	r1, [r0, #1]
 800116e:	4290      	cmp	r0, r2
 8001170:	bf14      	ite	ne
 8001172:	2202      	movne	r2, #2
 8001174:	2201      	moveq	r2, #1
 8001176:	2901      	cmp	r1, #1
 8001178:	4603      	mov	r3, r0
 800117a:	4d14      	ldr	r5, [pc, #80]	@ (80011cc <Motor_HandleOnOff+0x64>)
 800117c:	d10f      	bne.n	800119e <Motor_HandleOnOff+0x36>
 800117e:	7904      	ldrb	r4, [r0, #4]
 8001180:	b16c      	cbz	r4, 800119e <Motor_HandleOnOff+0x36>
 8001182:	7301      	strb	r1, [r0, #12]
 8001184:	8329      	strh	r1, [r5, #24]
 8001186:	7884      	ldrb	r4, [r0, #2]
 8001188:	2a01      	cmp	r2, #1
 800118a:	4621      	mov	r1, r4
 800118c:	70c4      	strb	r4, [r0, #3]
 800118e:	d103      	bne.n	8001198 <Motor_HandleOnOff+0x30>
 8001190:	f7ff ffb2 	bl	80010f8 <Motor1_OutputPWM>
 8001194:	4620      	mov	r0, r4
 8001196:	bd38      	pop	{r3, r4, r5, pc}
 8001198:	f7ff ffc0 	bl	800111c <Motor2_OutputPWM>
 800119c:	e7fa      	b.n	8001194 <Motor_HandleOnOff+0x2c>
 800119e:	2400      	movs	r4, #0
 80011a0:	2a01      	cmp	r2, #1
 80011a2:	731c      	strb	r4, [r3, #12]
 80011a4:	4621      	mov	r1, r4
 80011a6:	832c      	strh	r4, [r5, #24]
 80011a8:	4618      	mov	r0, r3
 80011aa:	711c      	strb	r4, [r3, #4]
 80011ac:	70dc      	strb	r4, [r3, #3]
 80011ae:	d105      	bne.n	80011bc <Motor_HandleOnOff+0x54>
 80011b0:	f7ff ffa2 	bl	80010f8 <Motor1_OutputPWM>
 80011b4:	f7ff fe60 	bl	8000e78 <Motor1_Set_Direction.part.0>
 80011b8:	2400      	movs	r4, #0
 80011ba:	e7eb      	b.n	8001194 <Motor_HandleOnOff+0x2c>
 80011bc:	f7ff ffae 	bl	800111c <Motor2_OutputPWM>
 80011c0:	4620      	mov	r0, r4
 80011c2:	f7ff ff55 	bl	8001070 <Motor2_Set_Direction>
 80011c6:	e7f7      	b.n	80011b8 <Motor_HandleOnOff+0x50>
 80011c8:	20000090 	.word	0x20000090
 80011cc:	200000ca 	.word	0x200000ca

080011d0 <PID_Init>:
 80011d0:	b5f8      	push	{r3, r4, r5, r6, r7, lr}
 80011d2:	461e      	mov	r6, r3
 80011d4:	4b11      	ldr	r3, [pc, #68]	@ (800121c <PID_Init+0x4c>)
 80011d6:	2801      	cmp	r0, #1
 80011d8:	4c11      	ldr	r4, [pc, #68]	@ (8001220 <PID_Init+0x50>)
 80011da:	bf08      	it	eq
 80011dc:	461c      	moveq	r4, r3
 80011de:	f04f 0500 	mov.w	r5, #0
 80011e2:	4b10      	ldr	r3, [pc, #64]	@ (8001224 <PID_Init+0x54>)
 80011e4:	4608      	mov	r0, r1
 80011e6:	6123      	str	r3, [r4, #16]
 80011e8:	4b0f      	ldr	r3, [pc, #60]	@ (8001228 <PID_Init+0x58>)
 80011ea:	6025      	str	r5, [r4, #0]
 80011ec:	6163      	str	r3, [r4, #20]
 80011ee:	4b0f      	ldr	r3, [pc, #60]	@ (800122c <PID_Init+0x5c>)
 80011f0:	6065      	str	r5, [r4, #4]
 80011f2:	61a3      	str	r3, [r4, #24]
 80011f4:	4b0e      	ldr	r3, [pc, #56]	@ (8001230 <PID_Init+0x60>)
 80011f6:	60a5      	str	r5, [r4, #8]
 80011f8:	60e5      	str	r5, [r4, #12]
 80011fa:	4617      	mov	r7, r2
 80011fc:	4c0d      	ldr	r4, [pc, #52]	@ (8001234 <PID_Init+0x64>)
 80011fe:	bf08      	it	eq
 8001200:	461c      	moveq	r4, r3
 8001202:	f7ff fd7f 	bl	8000d04 <__aeabi_f2uiz>
 8001206:	71e0      	strb	r0, [r4, #7]
 8001208:	4638      	mov	r0, r7
 800120a:	f7ff fd7b 	bl	8000d04 <__aeabi_f2uiz>
 800120e:	7220      	strb	r0, [r4, #8]
 8001210:	4630      	mov	r0, r6
 8001212:	f7ff fd77 	bl	8000d04 <__aeabi_f2uiz>
 8001216:	7260      	strb	r0, [r4, #9]
 8001218:	bdf8      	pop	{r3, r4, r5, r6, r7, pc}
 800121a:	bf00      	nop
 800121c:	20000058 	.word	0x20000058
 8001220:	2000003c 	.word	0x2000003c
 8001224:	447a0000 	.word	0x447a0000
 8001228:	41200000 	.word	0x41200000
 800122c:	42c80000 	.word	0x42c80000
 8001230:	20000090 	.word	0x20000090
 8001234:	20000082 	.word	0x20000082

08001238 <PID_Compute>:
 8001238:	e92d 4ff7 	stmdb	sp!, {r0, r1, r2, r4, r5, r6, r7, r8, r9, sl, fp, lr}
 800123c:	4681      	mov	r9, r0
 800123e:	4b5a      	ldr	r3, [pc, #360]	@ (80013a8 <PID_Compute+0x170>)
 8001240:	f1b9 0f01 	cmp.w	r9, #1
 8001244:	4e59      	ldr	r6, [pc, #356]	@ (80013ac <PID_Compute+0x174>)
 8001246:	bf08      	it	eq
 8001248:	461e      	moveq	r6, r3
 800124a:	4b59      	ldr	r3, [pc, #356]	@ (80013b0 <PID_Compute+0x178>)
 800124c:	4608      	mov	r0, r1
 800124e:	4611      	mov	r1, r2
 8001250:	4c58      	ldr	r4, [pc, #352]	@ (80013b4 <PID_Compute+0x17c>)
 8001252:	bf08      	it	eq
 8001254:	461c      	moveq	r4, r3
 8001256:	f7ff fa85 	bl	8000764 <__aeabi_fsub>
 800125a:	4605      	mov	r5, r0
 800125c:	60e0      	str	r0, [r4, #12]
 800125e:	7a30      	ldrb	r0, [r6, #8]
 8001260:	f7ff fb32 	bl	80008c8 <__aeabi_ui2f>
 8001264:	4954      	ldr	r1, [pc, #336]	@ (80013b8 <PID_Compute+0x180>)
 8001266:	f7ff fc3b 	bl	8000ae0 <__aeabi_fdiv>
 800126a:	4607      	mov	r7, r0
 800126c:	7a70      	ldrb	r0, [r6, #9]
 800126e:	f7ff fb2b 	bl	80008c8 <__aeabi_ui2f>
 8001272:	4951      	ldr	r1, [pc, #324]	@ (80013b8 <PID_Compute+0x180>)
 8001274:	f7ff fc34 	bl	8000ae0 <__aeabi_fdiv>
 8001278:	4682      	mov	sl, r0
 800127a:	79f0      	ldrb	r0, [r6, #7]
 800127c:	f7ff fb24 	bl	80008c8 <__aeabi_ui2f>
 8001280:	494d      	ldr	r1, [pc, #308]	@ (80013b8 <PID_Compute+0x180>)
 8001282:	f7ff fc2d 	bl	8000ae0 <__aeabi_fdiv>
 8001286:	4629      	mov	r1, r5
 8001288:	f7ff fb76 	bl	8000978 <__aeabi_fmul>
 800128c:	494b      	ldr	r1, [pc, #300]	@ (80013bc <PID_Compute+0x184>)
 800128e:	4683      	mov	fp, r0
 8001290:	4628      	mov	r0, r5
 8001292:	f7ff fb71 	bl	8000978 <__aeabi_fmul>
 8001296:	6821      	ldr	r1, [r4, #0]
 8001298:	f7ff fa66 	bl	8000768 <__addsf3>
 800129c:	2100      	movs	r1, #0
 800129e:	4680      	mov	r8, r0
 80012a0:	6020      	str	r0, [r4, #0]
 80012a2:	4638      	mov	r0, r7
 80012a4:	69a6      	ldr	r6, [r4, #24]
 80012a6:	f7ff fcfb 	bl	8000ca0 <__aeabi_fcmpeq>
 80012aa:	2800      	cmp	r0, #0
 80012ac:	d162      	bne.n	8001374 <PID_Compute+0x13c>
 80012ae:	4639      	mov	r1, r7
 80012b0:	4630      	mov	r0, r6
 80012b2:	f7ff fc15 	bl	8000ae0 <__aeabi_fdiv>
 80012b6:	4601      	mov	r1, r0
 80012b8:	4640      	mov	r0, r8
 80012ba:	9101      	str	r1, [sp, #4]
 80012bc:	f7ff fd18 	bl	8000cf0 <__aeabi_fcmpgt>
 80012c0:	9901      	ldr	r1, [sp, #4]
 80012c2:	2800      	cmp	r0, #0
 80012c4:	d058      	beq.n	8001378 <PID_Compute+0x140>
 80012c6:	6021      	str	r1, [r4, #0]
 80012c8:	4638      	mov	r0, r7
 80012ca:	6821      	ldr	r1, [r4, #0]
 80012cc:	f7ff fb54 	bl	8000978 <__aeabi_fmul>
 80012d0:	6861      	ldr	r1, [r4, #4]
 80012d2:	9001      	str	r0, [sp, #4]
 80012d4:	4628      	mov	r0, r5
 80012d6:	f7ff fa45 	bl	8000764 <__aeabi_fsub>
 80012da:	4938      	ldr	r1, [pc, #224]	@ (80013bc <PID_Compute+0x184>)
 80012dc:	f7ff fc00 	bl	8000ae0 <__aeabi_fdiv>
 80012e0:	f1b9 0f01 	cmp.w	r9, #1
 80012e4:	4936      	ldr	r1, [pc, #216]	@ (80013c0 <PID_Compute+0x188>)
 80012e6:	bf0c      	ite	eq
 80012e8:	4f36      	ldreq	r7, [pc, #216]	@ (80013c4 <PID_Compute+0x18c>)
 80012ea:	4f37      	ldrne	r7, [pc, #220]	@ (80013c8 <PID_Compute+0x190>)
 80012ec:	f7ff fb44 	bl	8000978 <__aeabi_fmul>
 80012f0:	f8d7 8000 	ldr.w	r8, [r7]
 80012f4:	4681      	mov	r9, r0
 80012f6:	4935      	ldr	r1, [pc, #212]	@ (80013cc <PID_Compute+0x194>)
 80012f8:	4640      	mov	r0, r8
 80012fa:	f7ff fb3d 	bl	8000978 <__aeabi_fmul>
 80012fe:	4601      	mov	r1, r0
 8001300:	4648      	mov	r0, r9
 8001302:	f7ff fa31 	bl	8000768 <__addsf3>
 8001306:	9901      	ldr	r1, [sp, #4]
 8001308:	4681      	mov	r9, r0
 800130a:	6038      	str	r0, [r7, #0]
 800130c:	6065      	str	r5, [r4, #4]
 800130e:	4658      	mov	r0, fp
 8001310:	f7ff fa2a 	bl	8000768 <__addsf3>
 8001314:	4651      	mov	r1, sl
 8001316:	4605      	mov	r5, r0
 8001318:	4648      	mov	r0, r9
 800131a:	f7ff fb2d 	bl	8000978 <__aeabi_fmul>
 800131e:	4601      	mov	r1, r0
 8001320:	4628      	mov	r0, r5
 8001322:	f7ff fa21 	bl	8000768 <__addsf3>
 8001326:	4925      	ldr	r1, [pc, #148]	@ (80013bc <PID_Compute+0x184>)
 8001328:	4605      	mov	r5, r0
 800132a:	6960      	ldr	r0, [r4, #20]
 800132c:	f7ff fb24 	bl	8000978 <__aeabi_fmul>
 8001330:	f8d4 9008 	ldr.w	r9, [r4, #8]
 8001334:	4607      	mov	r7, r0
 8001336:	4649      	mov	r1, r9
 8001338:	4628      	mov	r0, r5
 800133a:	f7ff fa13 	bl	8000764 <__aeabi_fsub>
 800133e:	4680      	mov	r8, r0
 8001340:	4601      	mov	r1, r0
 8001342:	4638      	mov	r0, r7
 8001344:	f7ff fcb6 	bl	8000cb4 <__aeabi_fcmplt>
 8001348:	b300      	cbz	r0, 800138c <PID_Compute+0x154>
 800134a:	4639      	mov	r1, r7
 800134c:	4648      	mov	r0, r9
 800134e:	f7ff fa0b 	bl	8000768 <__addsf3>
 8001352:	4605      	mov	r5, r0
 8001354:	4631      	mov	r1, r6
 8001356:	4628      	mov	r0, r5
 8001358:	f7ff fcca 	bl	8000cf0 <__aeabi_fcmpgt>
 800135c:	b928      	cbnz	r0, 800136a <PID_Compute+0x132>
 800135e:	2100      	movs	r1, #0
 8001360:	4628      	mov	r0, r5
 8001362:	f7ff fca7 	bl	8000cb4 <__aeabi_fcmplt>
 8001366:	b9e8      	cbnz	r0, 80013a4 <PID_Compute+0x16c>
 8001368:	462e      	mov	r6, r5
 800136a:	4630      	mov	r0, r6
 800136c:	60a6      	str	r6, [r4, #8]
 800136e:	b003      	add	sp, #12
 8001370:	e8bd 8ff0 	ldmia.w	sp!, {r4, r5, r6, r7, r8, r9, sl, fp, pc}
 8001374:	6921      	ldr	r1, [r4, #16]
 8001376:	e79f      	b.n	80012b8 <PID_Compute+0x80>
 8001378:	f101 4100 	add.w	r1, r1, #2147483648	@ 0x80000000
 800137c:	4640      	mov	r0, r8
 800137e:	9101      	str	r1, [sp, #4]
 8001380:	f7ff fc98 	bl	8000cb4 <__aeabi_fcmplt>
 8001384:	2800      	cmp	r0, #0
 8001386:	d09f      	beq.n	80012c8 <PID_Compute+0x90>
 8001388:	9901      	ldr	r1, [sp, #4]
 800138a:	e79c      	b.n	80012c6 <PID_Compute+0x8e>
 800138c:	4641      	mov	r1, r8
 800138e:	f107 4000 	add.w	r0, r7, #2147483648	@ 0x80000000
 8001392:	f7ff fcad 	bl	8000cf0 <__aeabi_fcmpgt>
 8001396:	2800      	cmp	r0, #0
 8001398:	d0dc      	beq.n	8001354 <PID_Compute+0x11c>
 800139a:	4639      	mov	r1, r7
 800139c:	4648      	mov	r0, r9
 800139e:	f7ff f9e1 	bl	8000764 <__aeabi_fsub>
 80013a2:	e7d6      	b.n	8001352 <PID_Compute+0x11a>
 80013a4:	2600      	movs	r6, #0
 80013a6:	e7e0      	b.n	800136a <PID_Compute+0x132>
 80013a8:	20000090 	.word	0x20000090
 80013ac:	20000082 	.word	0x20000082
 80013b0:	20000058 	.word	0x20000058
 80013b4:	2000003c 	.word	0x2000003c
 80013b8:	42c80000 	.word	0x42c80000
 80013bc:	3c23d70a 	.word	0x3c23d70a
 80013c0:	3dcccccd 	.word	0x3dcccccd
 80013c4:	20000038 	.word	0x20000038
 80013c8:	20000034 	.word	0x20000034
 80013cc:	3f666666 	.word	0x3f666666

080013d0 <Motor_HandlePID>:
 80013d0:	b570      	push	{r4, r5, r6, lr}
 80013d2:	4b31      	ldr	r3, [pc, #196]	@ (8001498 <Motor_HandlePID+0xc8>)
 80013d4:	4d31      	ldr	r5, [pc, #196]	@ (800149c <Motor_HandlePID+0xcc>)
 80013d6:	4298      	cmp	r0, r3
 80013d8:	4b31      	ldr	r3, [pc, #196]	@ (80014a0 <Motor_HandlePID+0xd0>)
 80013da:	4604      	mov	r4, r0
 80013dc:	bf08      	it	eq
 80013de:	461d      	moveq	r5, r3
 80013e0:	7843      	ldrb	r3, [r0, #1]
 80013e2:	bf14      	ite	ne
 80013e4:	2602      	movne	r6, #2
 80013e6:	2601      	moveq	r6, #1
 80013e8:	b123      	cbz	r3, 80013f4 <Motor_HandlePID+0x24>
 80013ea:	7803      	ldrb	r3, [r0, #0]
 80013ec:	2b02      	cmp	r3, #2
 80013ee:	d101      	bne.n	80013f4 <Motor_HandlePID+0x24>
 80013f0:	7903      	ldrb	r3, [r0, #4]
 80013f2:	b9db      	cbnz	r3, 800142c <Motor_HandlePID+0x5c>
 80013f4:	2300      	movs	r3, #0
 80013f6:	602b      	str	r3, [r5, #0]
 80013f8:	606b      	str	r3, [r5, #4]
 80013fa:	60ab      	str	r3, [r5, #8]
 80013fc:	60eb      	str	r3, [r5, #12]
 80013fe:	2500      	movs	r5, #0
 8001400:	2e01      	cmp	r6, #1
 8001402:	4629      	mov	r1, r5
 8001404:	4620      	mov	r0, r4
 8001406:	70e5      	strb	r5, [r4, #3]
 8001408:	d10a      	bne.n	8001420 <Motor_HandlePID+0x50>
 800140a:	f7ff fe75 	bl	80010f8 <Motor1_OutputPWM>
 800140e:	f7ff fd33 	bl	8000e78 <Motor1_Set_Direction.part.0>
 8001412:	4629      	mov	r1, r5
 8001414:	4823      	ldr	r0, [pc, #140]	@ (80014a4 <Motor_HandlePID+0xd4>)
 8001416:	f003 fab9 	bl	800498c <HAL_TIM_PWM_Stop>
 800141a:	2500      	movs	r5, #0
 800141c:	4628      	mov	r0, r5
 800141e:	bd70      	pop	{r4, r5, r6, pc}
 8001420:	f7ff fe7c 	bl	800111c <Motor2_OutputPWM>
 8001424:	4628      	mov	r0, r5
 8001426:	f7ff fe23 	bl	8001070 <Motor2_Set_Direction>
 800142a:	e7f6      	b.n	800141a <Motor_HandlePID+0x4a>
 800142c:	7a80      	ldrb	r0, [r0, #10]
 800142e:	f7ff fa4b 	bl	80008c8 <__aeabi_ui2f>
 8001432:	6168      	str	r0, [r5, #20]
 8001434:	78e0      	ldrb	r0, [r4, #3]
 8001436:	f7ff fa47 	bl	80008c8 <__aeabi_ui2f>
 800143a:	4605      	mov	r5, r0
 800143c:	78a0      	ldrb	r0, [r4, #2]
 800143e:	f7ff fa43 	bl	80008c8 <__aeabi_ui2f>
 8001442:	462a      	mov	r2, r5
 8001444:	4601      	mov	r1, r0
 8001446:	4630      	mov	r0, r6
 8001448:	f7ff fef6 	bl	8001238 <PID_Compute>
 800144c:	f7ff fc5a 	bl	8000d04 <__aeabi_f2uiz>
 8001450:	b2c3      	uxtb	r3, r0
 8001452:	7960      	ldrb	r0, [r4, #5]
 8001454:	70e3      	strb	r3, [r4, #3]
 8001456:	4298      	cmp	r0, r3
 8001458:	bf28      	it	cs
 800145a:	4618      	movcs	r0, r3
 800145c:	79a3      	ldrb	r3, [r4, #6]
 800145e:	4283      	cmp	r3, r0
 8001460:	d902      	bls.n	8001468 <Motor_HandlePID+0x98>
 8001462:	2800      	cmp	r0, #0
 8001464:	bf18      	it	ne
 8001466:	4618      	movne	r0, r3
 8001468:	f7ff f8ee 	bl	8000648 <__aeabi_i2d>
 800146c:	a308      	add	r3, pc, #32	@ (adr r3, 8001490 <Motor_HandlePID+0xc0>)
 800146e:	e9d3 2300 	ldrd	r2, r3, [r3]
 8001472:	f7fe fe6d 	bl	8000150 <__aeabi_dmul>
 8001476:	f7ff f951 	bl	800071c <__aeabi_d2uiz>
 800147a:	2e01      	cmp	r6, #1
 800147c:	b2c5      	uxtb	r5, r0
 800147e:	4629      	mov	r1, r5
 8001480:	4620      	mov	r0, r4
 8001482:	d102      	bne.n	800148a <Motor_HandlePID+0xba>
 8001484:	f7ff fe38 	bl	80010f8 <Motor1_OutputPWM>
 8001488:	e7c8      	b.n	800141c <Motor_HandlePID+0x4c>
 800148a:	f7ff fe47 	bl	800111c <Motor2_OutputPWM>
 800148e:	e7c5      	b.n	800141c <Motor_HandlePID+0x4c>
 8001490:	f5c28f5c 	.word	0xf5c28f5c
 8001494:	3fef5c28 	.word	0x3fef5c28
 8001498:	20000090 	.word	0x20000090
 800149c:	2000003c 	.word	0x2000003c
 80014a0:	20000058 	.word	0x20000058
 80014a4:	20000488 	.word	0x20000488

080014a8 <Motor_ProcessControl>:
 80014a8:	b510      	push	{r4, lr}
 80014aa:	7844      	ldrb	r4, [r0, #1]
 80014ac:	2c01      	cmp	r4, #1
 80014ae:	d10d      	bne.n	80014cc <Motor_ProcessControl+0x24>
 80014b0:	7803      	ldrb	r3, [r0, #0]
 80014b2:	2b01      	cmp	r3, #1
 80014b4:	d002      	beq.n	80014bc <Motor_ProcessControl+0x14>
 80014b6:	2b02      	cmp	r3, #2
 80014b8:	d004      	beq.n	80014c4 <Motor_ProcessControl+0x1c>
 80014ba:	bd10      	pop	{r4, pc}
 80014bc:	e8bd 4010 	ldmia.w	sp!, {r4, lr}
 80014c0:	f7ff be52 	b.w	8001168 <Motor_HandleOnOff>
 80014c4:	e8bd 4010 	ldmia.w	sp!, {r4, lr}
 80014c8:	f7ff bf82 	b.w	80013d0 <Motor_HandlePID>
 80014cc:	2c00      	cmp	r4, #0
 80014ce:	d1f4      	bne.n	80014ba <Motor_ProcessControl+0x12>
 80014d0:	4a0b      	ldr	r2, [pc, #44]	@ (8001500 <Motor_ProcessControl+0x58>)
 80014d2:	7304      	strb	r4, [r0, #12]
 80014d4:	8314      	strh	r4, [r2, #24]
 80014d6:	4a0b      	ldr	r2, [pc, #44]	@ (8001504 <Motor_ProcessControl+0x5c>)
 80014d8:	4621      	mov	r1, r4
 80014da:	4290      	cmp	r0, r2
 80014dc:	7104      	strb	r4, [r0, #4]
 80014de:	70c4      	strb	r4, [r0, #3]
 80014e0:	d106      	bne.n	80014f0 <Motor_ProcessControl+0x48>
 80014e2:	f7ff fe09 	bl	80010f8 <Motor1_OutputPWM>
 80014e6:	4620      	mov	r0, r4
 80014e8:	e8bd 4010 	ldmia.w	sp!, {r4, lr}
 80014ec:	f7ff bda8 	b.w	8001040 <Motor1_Set_Direction>
 80014f0:	f7ff fe14 	bl	800111c <Motor2_OutputPWM>
 80014f4:	4620      	mov	r0, r4
 80014f6:	e8bd 4010 	ldmia.w	sp!, {r4, lr}
 80014fa:	f7ff bdb9 	b.w	8001070 <Motor2_Set_Direction>
 80014fe:	bf00      	nop
 8001500:	200000ca 	.word	0x200000ca
 8001504:	20000090 	.word	0x20000090

08001508 <initializeModbusRegisters>:
 8001508:	b570      	push	{r4, r5, r6, lr}
 800150a:	2403      	movs	r4, #3
 800150c:	4b2d      	ldr	r3, [pc, #180]	@ (80015c4 <initializeModbusRegisters+0xbc>)
 800150e:	2200      	movs	r2, #0
 8001510:	2105      	movs	r1, #5
 8001512:	2001      	movs	r0, #1
 8001514:	f8a3 4200 	strh.w	r4, [r3, #512]	@ 0x200
 8001518:	f8a3 4208 	strh.w	r4, [r3, #520]	@ 0x208
 800151c:	260a      	movs	r6, #10
 800151e:	2464      	movs	r4, #100	@ 0x64
 8001520:	2504      	movs	r5, #4
 8001522:	f8a3 1202 	strh.w	r1, [r3, #514]	@ 0x202
 8001526:	f8a3 2204 	strh.w	r2, [r3, #516]	@ 0x204
 800152a:	f8a3 0206 	strh.w	r0, [r3, #518]	@ 0x206
 800152e:	f8a3 020a 	strh.w	r0, [r3, #522]	@ 0x20a
 8001532:	f8a3 020c 	strh.w	r0, [r3, #524]	@ 0x20c
 8001536:	f8a3 220e 	strh.w	r2, [r3, #526]	@ 0x20e
 800153a:	f8a3 2210 	strh.w	r2, [r3, #528]	@ 0x210
 800153e:	f8a3 2212 	strh.w	r2, [r3, #530]	@ 0x212
 8001542:	8018      	strh	r0, [r3, #0]
 8001544:	805a      	strh	r2, [r3, #2]
 8001546:	809a      	strh	r2, [r3, #4]
 8001548:	80da      	strh	r2, [r3, #6]
 800154a:	811a      	strh	r2, [r3, #8]
 800154c:	81dc      	strh	r4, [r3, #14]
 800154e:	821e      	strh	r6, [r3, #16]
 8001550:	8259      	strh	r1, [r3, #18]
 8001552:	831a      	strh	r2, [r3, #24]
 8001554:	835a      	strh	r2, [r3, #26]
 8001556:	815c      	strh	r4, [r3, #10]
 8001558:	819a      	strh	r2, [r3, #12]
 800155a:	8299      	strh	r1, [r3, #20]
 800155c:	82dd      	strh	r5, [r3, #22]
 800155e:	8418      	strh	r0, [r3, #32]
 8001560:	845a      	strh	r2, [r3, #34]	@ 0x22
 8001562:	849a      	strh	r2, [r3, #36]	@ 0x24
 8001564:	84da      	strh	r2, [r3, #38]	@ 0x26
 8001566:	851a      	strh	r2, [r3, #40]	@ 0x28
 8001568:	85dc      	strh	r4, [r3, #46]	@ 0x2e
 800156a:	861e      	strh	r6, [r3, #48]	@ 0x30
 800156c:	8659      	strh	r1, [r3, #50]	@ 0x32
 800156e:	871a      	strh	r2, [r3, #56]	@ 0x38
 8001570:	875a      	strh	r2, [r3, #58]	@ 0x3a
 8001572:	855c      	strh	r4, [r3, #42]	@ 0x2a
 8001574:	859a      	strh	r2, [r3, #44]	@ 0x2c
 8001576:	8699      	strh	r1, [r3, #52]	@ 0x34
 8001578:	86dd      	strh	r5, [r3, #54]	@ 0x36
 800157a:	f8a3 2040 	strh.w	r2, [r3, #64]	@ 0x40
 800157e:	f8a3 2042 	strh.w	r2, [r3, #66]	@ 0x42
 8001582:	f8a3 2044 	strh.w	r2, [r3, #68]	@ 0x44
 8001586:	f8a3 2046 	strh.w	r2, [r3, #70]	@ 0x46
 800158a:	f8a3 2048 	strh.w	r2, [r3, #72]	@ 0x48
 800158e:	f8a3 204a 	strh.w	r2, [r3, #74]	@ 0x4a
 8001592:	f8a3 2060 	strh.w	r2, [r3, #96]	@ 0x60
 8001596:	f8a3 2062 	strh.w	r2, [r3, #98]	@ 0x62
 800159a:	f8a3 2064 	strh.w	r2, [r3, #100]	@ 0x64
 800159e:	f8a3 2066 	strh.w	r2, [r3, #102]	@ 0x66
 80015a2:	f8a3 2068 	strh.w	r2, [r3, #104]	@ 0x68
 80015a6:	4b08      	ldr	r3, [pc, #32]	@ (80015c8 <initializeModbusRegisters+0xc0>)
 80015a8:	801a      	strh	r2, [r3, #0]
 80015aa:	805a      	strh	r2, [r3, #2]
 80015ac:	809a      	strh	r2, [r3, #4]
 80015ae:	80da      	strh	r2, [r3, #6]
 80015b0:	811a      	strh	r2, [r3, #8]
 80015b2:	4b06      	ldr	r3, [pc, #24]	@ (80015cc <initializeModbusRegisters+0xc4>)
 80015b4:	601a      	str	r2, [r3, #0]
 80015b6:	605a      	str	r2, [r3, #4]
 80015b8:	4b05      	ldr	r3, [pc, #20]	@ (80015d0 <initializeModbusRegisters+0xc8>)
 80015ba:	701a      	strb	r2, [r3, #0]
 80015bc:	705a      	strb	r2, [r3, #1]
 80015be:	709a      	strb	r2, [r3, #2]
 80015c0:	70da      	strb	r2, [r3, #3]
 80015c2:	bd70      	pop	{r4, r5, r6, pc}
 80015c4:	200000ca 	.word	0x200000ca
 80015c8:	200000c0 	.word	0x200000c0
 80015cc:	200000b8 	.word	0x200000b8
 80015d0:	200000b4 	.word	0x200000b4

080015d4 <calcCRC>:
 80015d4:	b570      	push	{r4, r5, r6, lr}
 80015d6:	2200      	movs	r2, #0
 80015d8:	4604      	mov	r4, r0
 80015da:	f64f 70ff 	movw	r0, #65535	@ 0xffff
 80015de:	4e08      	ldr	r6, [pc, #32]	@ (8001600 <calcCRC+0x2c>)
 80015e0:	428a      	cmp	r2, r1
 80015e2:	db00      	blt.n	80015e6 <calcCRC+0x12>
 80015e4:	bd70      	pop	{r4, r5, r6, pc}
 80015e6:	2508      	movs	r5, #8
 80015e8:	5ca3      	ldrb	r3, [r4, r2]
 80015ea:	4058      	eors	r0, r3
 80015ec:	f340 0300 	sbfx	r3, r0, #0, #1
 80015f0:	4033      	ands	r3, r6
 80015f2:	ea83 0350 	eor.w	r3, r3, r0, lsr #1
 80015f6:	3d01      	subs	r5, #1
 80015f8:	b298      	uxth	r0, r3
 80015fa:	d1f7      	bne.n	80015ec <calcCRC+0x18>
 80015fc:	3201      	adds	r2, #1
 80015fe:	e7ef      	b.n	80015e0 <calcCRC+0xc>
 8001600:	ffffa001 	.word	0xffffa001

08001604 <HAL_UART_RxCpltCallback>:
 8001604:	6802      	ldr	r2, [r0, #0]
 8001606:	4b1c      	ldr	r3, [pc, #112]	@ (8001678 <HAL_UART_RxCpltCallback+0x74>)
 8001608:	b510      	push	{r4, lr}
 800160a:	429a      	cmp	r2, r3
 800160c:	d133      	bne.n	8001676 <HAL_UART_RxCpltCallback+0x72>
 800160e:	f000 ff4b 	bl	80024a8 <HAL_GetTick>
 8001612:	4b1a      	ldr	r3, [pc, #104]	@ (800167c <HAL_UART_RxCpltCallback+0x78>)
 8001614:	491a      	ldr	r1, [pc, #104]	@ (8001680 <HAL_UART_RxCpltCallback+0x7c>)
 8001616:	6018      	str	r0, [r3, #0]
 8001618:	780b      	ldrb	r3, [r1, #0]
 800161a:	2bff      	cmp	r3, #255	@ 0xff
 800161c:	d026      	beq.n	800166c <HAL_UART_RxCpltCallback+0x68>
 800161e:	4c19      	ldr	r4, [pc, #100]	@ (8001684 <HAL_UART_RxCpltCallback+0x80>)
 8001620:	1c5a      	adds	r2, r3, #1
 8001622:	b2d2      	uxtb	r2, r2
 8001624:	4818      	ldr	r0, [pc, #96]	@ (8001688 <HAL_UART_RxCpltCallback+0x84>)
 8001626:	7824      	ldrb	r4, [r4, #0]
 8001628:	2a02      	cmp	r2, #2
 800162a:	700a      	strb	r2, [r1, #0]
 800162c:	54c4      	strb	r4, [r0, r3]
 800162e:	d916      	bls.n	800165e <HAL_UART_RxCpltCallback+0x5a>
 8001630:	7843      	ldrb	r3, [r0, #1]
 8001632:	2b06      	cmp	r3, #6
 8001634:	d003      	beq.n	800163e <HAL_UART_RxCpltCallback+0x3a>
 8001636:	d809      	bhi.n	800164c <HAL_UART_RxCpltCallback+0x48>
 8001638:	3b03      	subs	r3, #3
 800163a:	2b01      	cmp	r3, #1
 800163c:	d816      	bhi.n	800166c <HAL_UART_RxCpltCallback+0x68>
 800163e:	2308      	movs	r3, #8
 8001640:	429a      	cmp	r2, r3
 8001642:	d30c      	bcc.n	800165e <HAL_UART_RxCpltCallback+0x5a>
 8001644:	2201      	movs	r2, #1
 8001646:	4b11      	ldr	r3, [pc, #68]	@ (800168c <HAL_UART_RxCpltCallback+0x88>)
 8001648:	701a      	strb	r2, [r3, #0]
 800164a:	e008      	b.n	800165e <HAL_UART_RxCpltCallback+0x5a>
 800164c:	2b10      	cmp	r3, #16
 800164e:	d10d      	bne.n	800166c <HAL_UART_RxCpltCallback+0x68>
 8001650:	2a06      	cmp	r2, #6
 8001652:	d904      	bls.n	800165e <HAL_UART_RxCpltCallback+0x5a>
 8001654:	7983      	ldrb	r3, [r0, #6]
 8001656:	3309      	adds	r3, #9
 8001658:	f013 03ff 	ands.w	r3, r3, #255	@ 0xff
 800165c:	d1f0      	bne.n	8001640 <HAL_UART_RxCpltCallback+0x3c>
 800165e:	e8bd 4010 	ldmia.w	sp!, {r4, lr}
 8001662:	2201      	movs	r2, #1
 8001664:	4907      	ldr	r1, [pc, #28]	@ (8001684 <HAL_UART_RxCpltCallback+0x80>)
 8001666:	480a      	ldr	r0, [pc, #40]	@ (8001690 <HAL_UART_RxCpltCallback+0x8c>)
 8001668:	f003 bd4f 	b.w	800510a <HAL_UART_Receive_IT>
 800166c:	2300      	movs	r3, #0
 800166e:	4a07      	ldr	r2, [pc, #28]	@ (800168c <HAL_UART_RxCpltCallback+0x88>)
 8001670:	700b      	strb	r3, [r1, #0]
 8001672:	7013      	strb	r3, [r2, #0]
 8001674:	e7f3      	b.n	800165e <HAL_UART_RxCpltCallback+0x5a>
 8001676:	bd10      	pop	{r4, pc}
 8001678:	40004400 	.word	0x40004400
 800167c:	20000324 	.word	0x20000324
 8001680:	20000329 	.word	0x20000329
 8001684:	20000322 	.word	0x20000322
 8001688:	2000032a 	.word	0x2000032a
 800168c:	20000328 	.word	0x20000328
 8001690:	20000440 	.word	0x20000440

08001694 <HAL_UART_ErrorCallback>:
 8001694:	b508      	push	{r3, lr}
 8001696:	6802      	ldr	r2, [r0, #0]
 8001698:	4b09      	ldr	r3, [pc, #36]	@ (80016c0 <HAL_UART_ErrorCallback+0x2c>)
 800169a:	429a      	cmp	r2, r3
 800169c:	d10e      	bne.n	80016bc <HAL_UART_ErrorCallback+0x28>
 800169e:	2300      	movs	r3, #0
 80016a0:	4a08      	ldr	r2, [pc, #32]	@ (80016c4 <HAL_UART_ErrorCallback+0x30>)
 80016a2:	4809      	ldr	r0, [pc, #36]	@ (80016c8 <HAL_UART_ErrorCallback+0x34>)
 80016a4:	7013      	strb	r3, [r2, #0]
 80016a6:	4a09      	ldr	r2, [pc, #36]	@ (80016cc <HAL_UART_ErrorCallback+0x38>)
 80016a8:	7013      	strb	r3, [r2, #0]
 80016aa:	f003 faf8 	bl	8004c9e <HAL_UART_Abort>
 80016ae:	e8bd 4008 	ldmia.w	sp!, {r3, lr}
 80016b2:	2201      	movs	r2, #1
 80016b4:	4906      	ldr	r1, [pc, #24]	@ (80016d0 <HAL_UART_ErrorCallback+0x3c>)
 80016b6:	4804      	ldr	r0, [pc, #16]	@ (80016c8 <HAL_UART_ErrorCallback+0x34>)
 80016b8:	f003 bd27 	b.w	800510a <HAL_UART_Receive_IT>
 80016bc:	bd08      	pop	{r3, pc}
 80016be:	bf00      	nop
 80016c0:	40004400 	.word	0x40004400
 80016c4:	20000329 	.word	0x20000329
 80016c8:	20000440 	.word	0x20000440
 80016cc:	20000328 	.word	0x20000328
 80016d0:	20000322 	.word	0x20000322

080016d4 <resetUARTCommunication>:
 80016d4:	b510      	push	{r4, lr}
 80016d6:	4c08      	ldr	r4, [pc, #32]	@ (80016f8 <resetUARTCommunication+0x24>)
 80016d8:	4620      	mov	r0, r4
 80016da:	f003 fae0 	bl	8004c9e <HAL_UART_Abort>
 80016de:	2300      	movs	r3, #0
 80016e0:	4a06      	ldr	r2, [pc, #24]	@ (80016fc <resetUARTCommunication+0x28>)
 80016e2:	4620      	mov	r0, r4
 80016e4:	7013      	strb	r3, [r2, #0]
 80016e6:	4a06      	ldr	r2, [pc, #24]	@ (8001700 <resetUARTCommunication+0x2c>)
 80016e8:	4906      	ldr	r1, [pc, #24]	@ (8001704 <resetUARTCommunication+0x30>)
 80016ea:	7013      	strb	r3, [r2, #0]
 80016ec:	e8bd 4010 	ldmia.w	sp!, {r4, lr}
 80016f0:	2201      	movs	r2, #1
 80016f2:	f003 bd0a 	b.w	800510a <HAL_UART_Receive_IT>
 80016f6:	bf00      	nop
 80016f8:	20000440 	.word	0x20000440
 80016fc:	20000329 	.word	0x20000329
 8001700:	20000328 	.word	0x20000328
 8001704:	20000322 	.word	0x20000322

08001708 <processModbusFrame>:
 8001708:	e92d 41f0 	stmdb	sp!, {r4, r5, r6, r7, r8, lr}
 800170c:	4d7c      	ldr	r5, [pc, #496]	@ (8001900 <processModbusFrame+0x1f8>)
 800170e:	b0c0      	sub	sp, #256	@ 0x100
 8001710:	782f      	ldrb	r7, [r5, #0]
 8001712:	2f05      	cmp	r7, #5
 8001714:	d923      	bls.n	800175e <processModbusFrame+0x56>
 8001716:	4e7b      	ldr	r6, [pc, #492]	@ (8001904 <processModbusFrame+0x1fc>)
 8001718:	4c7b      	ldr	r4, [pc, #492]	@ (8001908 <processModbusFrame+0x200>)
 800171a:	f8b6 3200 	ldrh.w	r3, [r6, #512]	@ 0x200
 800171e:	f894 8000 	ldrb.w	r8, [r4]
 8001722:	4598      	cmp	r8, r3
 8001724:	d004      	beq.n	8001730 <processModbusFrame+0x28>
 8001726:	2300      	movs	r3, #0
 8001728:	4a78      	ldr	r2, [pc, #480]	@ (800190c <processModbusFrame+0x204>)
 800172a:	702b      	strb	r3, [r5, #0]
 800172c:	7013      	strb	r3, [r2, #0]
 800172e:	e016      	b.n	800175e <processModbusFrame+0x56>
 8001730:	1eb9      	subs	r1, r7, #2
 8001732:	4620      	mov	r0, r4
 8001734:	f7ff ff4e 	bl	80015d4 <calcCRC>
 8001738:	5c62      	ldrb	r2, [r4, r1]
 800173a:	b2c3      	uxtb	r3, r0
 800173c:	429a      	cmp	r2, r3
 800173e:	d106      	bne.n	800174e <processModbusFrame+0x46>
 8001740:	4427      	add	r7, r4
 8001742:	f817 3c01 	ldrb.w	r3, [r7, #-1]
 8001746:	f3c0 200f 	ubfx	r0, r0, #8, #16
 800174a:	4283      	cmp	r3, r0
 800174c:	d00a      	beq.n	8001764 <processModbusFrame+0x5c>
 800174e:	2300      	movs	r3, #0
 8001750:	4a6e      	ldr	r2, [pc, #440]	@ (800190c <processModbusFrame+0x204>)
 8001752:	702b      	strb	r3, [r5, #0]
 8001754:	7013      	strb	r3, [r2, #0]
 8001756:	4a6e      	ldr	r2, [pc, #440]	@ (8001910 <processModbusFrame+0x208>)
 8001758:	6813      	ldr	r3, [r2, #0]
 800175a:	3301      	adds	r3, #1
 800175c:	6013      	str	r3, [r2, #0]
 800175e:	b040      	add	sp, #256	@ 0x100
 8001760:	e8bd 81f0 	ldmia.w	sp!, {r4, r5, r6, r7, r8, pc}
 8001764:	7863      	ldrb	r3, [r4, #1]
 8001766:	f88d 8000 	strb.w	r8, [sp]
 800176a:	2b06      	cmp	r3, #6
 800176c:	f88d 3001 	strb.w	r3, [sp, #1]
 8001770:	f000 80a1 	beq.w	80018b6 <processModbusFrame+0x1ae>
 8001774:	d807      	bhi.n	8001786 <processModbusFrame+0x7e>
 8001776:	2b03      	cmp	r3, #3
 8001778:	d02e      	beq.n	80017d8 <processModbusFrame+0xd0>
 800177a:	2b04      	cmp	r3, #4
 800177c:	d071      	beq.n	8001862 <processModbusFrame+0x15a>
 800177e:	2201      	movs	r2, #1
 8001780:	f043 0380 	orr.w	r3, r3, #128	@ 0x80
 8001784:	e08b      	b.n	800189e <processModbusFrame+0x196>
 8001786:	2b10      	cmp	r3, #16
 8001788:	d1f9      	bne.n	800177e <processModbusFrame+0x76>
 800178a:	8862      	ldrh	r2, [r4, #2]
 800178c:	88a3      	ldrh	r3, [r4, #4]
 800178e:	ba52      	rev16	r2, r2
 8001790:	ba5b      	rev16	r3, r3
 8001792:	b292      	uxth	r2, r2
 8001794:	b29b      	uxth	r3, r3
 8001796:	eb02 0803 	add.w	r8, r2, r3
 800179a:	f5b8 7f96 	cmp.w	r8, #300	@ 0x12c
 800179e:	f894 e002 	ldrb.w	lr, [r4, #2]
 80017a2:	f894 c003 	ldrb.w	ip, [r4, #3]
 80017a6:	7927      	ldrb	r7, [r4, #4]
 80017a8:	7960      	ldrb	r0, [r4, #5]
 80017aa:	79a1      	ldrb	r1, [r4, #6]
 80017ac:	f300 8081 	bgt.w	80018b2 <processModbusFrame+0x1aa>
 80017b0:	ebb1 0f43 	cmp.w	r1, r3, lsl #1
 80017b4:	d17d      	bne.n	80018b2 <processModbusFrame+0x1aa>
 80017b6:	eb06 0642 	add.w	r6, r6, r2, lsl #1
 80017ba:	2200      	movs	r2, #0
 80017bc:	4293      	cmp	r3, r2
 80017be:	f104 0402 	add.w	r4, r4, #2
 80017c2:	f340 8092 	ble.w	80018ea <processModbusFrame+0x1e2>
 80017c6:	f894 8005 	ldrb.w	r8, [r4, #5]
 80017ca:	79a1      	ldrb	r1, [r4, #6]
 80017cc:	3201      	adds	r2, #1
 80017ce:	ea41 2108 	orr.w	r1, r1, r8, lsl #8
 80017d2:	f826 1b02 	strh.w	r1, [r6], #2
 80017d6:	e7f1      	b.n	80017bc <processModbusFrame+0xb4>
 80017d8:	8862      	ldrh	r2, [r4, #2]
 80017da:	88a0      	ldrh	r0, [r4, #4]
 80017dc:	ba52      	rev16	r2, r2
 80017de:	ba40      	rev16	r0, r0
 80017e0:	b292      	uxth	r2, r2
 80017e2:	b280      	uxth	r0, r0
 80017e4:	1811      	adds	r1, r2, r0
 80017e6:	f5b1 7f96 	cmp.w	r1, #300	@ 0x12c
 80017ea:	dc56      	bgt.n	800189a <processModbusFrame+0x192>
 80017ec:	2400      	movs	r4, #0
 80017ee:	0041      	lsls	r1, r0, #1
 80017f0:	f88d 1002 	strb.w	r1, [sp, #2]
 80017f4:	eb06 0242 	add.w	r2, r6, r2, lsl #1
 80017f8:	1c5f      	adds	r7, r3, #1
 80017fa:	461e      	mov	r6, r3
 80017fc:	42a0      	cmp	r0, r4
 80017fe:	f103 0302 	add.w	r3, r3, #2
 8001802:	b2ff      	uxtb	r7, r7
 8001804:	b2db      	uxtb	r3, r3
 8001806:	dc22      	bgt.n	800184e <processModbusFrame+0x146>
 8001808:	3103      	adds	r1, #3
 800180a:	b2c9      	uxtb	r1, r1
 800180c:	4668      	mov	r0, sp
 800180e:	f7ff fee1 	bl	80015d4 <calcCRC>
 8001812:	1c8c      	adds	r4, r1, #2
 8001814:	f80d 0001 	strb.w	r0, [sp, r1]
 8001818:	4e3e      	ldr	r6, [pc, #248]	@ (8001914 <processModbusFrame+0x20c>)
 800181a:	3101      	adds	r1, #1
 800181c:	0a00      	lsrs	r0, r0, #8
 800181e:	b2c9      	uxtb	r1, r1
 8001820:	f80d 0001 	strb.w	r0, [sp, r1]
 8001824:	6830      	ldr	r0, [r6, #0]
 8001826:	b2e4      	uxtb	r4, r4
 8001828:	b118      	cbz	r0, 8001832 <processModbusFrame+0x12a>
 800182a:	f04f 31ff 	mov.w	r1, #4294967295
 800182e:	f003 fd4f 	bl	80052d0 <osMutexAcquire>
 8001832:	2364      	movs	r3, #100	@ 0x64
 8001834:	4622      	mov	r2, r4
 8001836:	4669      	mov	r1, sp
 8001838:	4837      	ldr	r0, [pc, #220]	@ (8001918 <processModbusFrame+0x210>)
 800183a:	f003 f9e2 	bl	8004c02 <HAL_UART_Transmit>
 800183e:	6830      	ldr	r0, [r6, #0]
 8001840:	b108      	cbz	r0, 8001846 <processModbusFrame+0x13e>
 8001842:	f003 fd68 	bl	8005316 <osMutexRelease>
 8001846:	2201      	movs	r2, #1
 8001848:	4b34      	ldr	r3, [pc, #208]	@ (800191c <processModbusFrame+0x214>)
 800184a:	701a      	strb	r2, [r3, #0]
 800184c:	e76b      	b.n	8001726 <processModbusFrame+0x1e>
 800184e:	f832 cb02 	ldrh.w	ip, [r2], #2
 8001852:	3401      	adds	r4, #1
 8001854:	ea4f 2e1c 	mov.w	lr, ip, lsr #8
 8001858:	f80d e006 	strb.w	lr, [sp, r6]
 800185c:	f80d c007 	strb.w	ip, [sp, r7]
 8001860:	e7ca      	b.n	80017f8 <processModbusFrame+0xf0>
 8001862:	8862      	ldrh	r2, [r4, #2]
 8001864:	88a3      	ldrh	r3, [r4, #4]
 8001866:	ba52      	rev16	r2, r2
 8001868:	ba5b      	rev16	r3, r3
 800186a:	b292      	uxth	r2, r2
 800186c:	b29b      	uxth	r3, r3
 800186e:	18d1      	adds	r1, r2, r3
 8001870:	2905      	cmp	r1, #5
 8001872:	dc1a      	bgt.n	80018aa <processModbusFrame+0x1a2>
 8001874:	482a      	ldr	r0, [pc, #168]	@ (8001920 <processModbusFrame+0x218>)
 8001876:	2400      	movs	r4, #0
 8001878:	eb00 0042 	add.w	r0, r0, r2, lsl #1
 800187c:	466a      	mov	r2, sp
 800187e:	0059      	lsls	r1, r3, #1
 8001880:	f88d 1002 	strb.w	r1, [sp, #2]
 8001884:	42a3      	cmp	r3, r4
 8001886:	f102 0202 	add.w	r2, r2, #2
 800188a:	ddbd      	ble.n	8001808 <processModbusFrame+0x100>
 800188c:	f830 6b02 	ldrh.w	r6, [r0], #2
 8001890:	3401      	adds	r4, #1
 8001892:	0a37      	lsrs	r7, r6, #8
 8001894:	7057      	strb	r7, [r2, #1]
 8001896:	7096      	strb	r6, [r2, #2]
 8001898:	e7f4      	b.n	8001884 <processModbusFrame+0x17c>
 800189a:	2383      	movs	r3, #131	@ 0x83
 800189c:	2202      	movs	r2, #2
 800189e:	2103      	movs	r1, #3
 80018a0:	f88d 3001 	strb.w	r3, [sp, #1]
 80018a4:	f88d 2002 	strb.w	r2, [sp, #2]
 80018a8:	e7b0      	b.n	800180c <processModbusFrame+0x104>
 80018aa:	2384      	movs	r3, #132	@ 0x84
 80018ac:	e7f6      	b.n	800189c <processModbusFrame+0x194>
 80018ae:	2386      	movs	r3, #134	@ 0x86
 80018b0:	e7f4      	b.n	800189c <processModbusFrame+0x194>
 80018b2:	2390      	movs	r3, #144	@ 0x90
 80018b4:	e7f2      	b.n	800189c <processModbusFrame+0x194>
 80018b6:	8861      	ldrh	r1, [r4, #2]
 80018b8:	f894 e002 	ldrb.w	lr, [r4, #2]
 80018bc:	ba4b      	rev16	r3, r1
 80018be:	b29b      	uxth	r3, r3
 80018c0:	f5b3 7f96 	cmp.w	r3, #300	@ 0x12c
 80018c4:	f894 c003 	ldrb.w	ip, [r4, #3]
 80018c8:	88a2      	ldrh	r2, [r4, #4]
 80018ca:	7927      	ldrb	r7, [r4, #4]
 80018cc:	7960      	ldrb	r0, [r4, #5]
 80018ce:	d2ee      	bcs.n	80018ae <processModbusFrame+0x1a6>
 80018d0:	ba54      	rev16	r4, r2
 80018d2:	f826 4013 	strh.w	r4, [r6, r3, lsl #1]
 80018d6:	f640 1301 	movw	r3, #2305	@ 0x901
 80018da:	4299      	cmp	r1, r3
 80018dc:	d105      	bne.n	80018ea <processModbusFrame+0x1e2>
 80018de:	f5b2 7f80 	cmp.w	r2, #256	@ 0x100
 80018e2:	d102      	bne.n	80018ea <processModbusFrame+0x1e2>
 80018e4:	2300      	movs	r3, #0
 80018e6:	f8a6 3210 	strh.w	r3, [r6, #528]	@ 0x210
 80018ea:	2106      	movs	r1, #6
 80018ec:	f88d e002 	strb.w	lr, [sp, #2]
 80018f0:	f88d c003 	strb.w	ip, [sp, #3]
 80018f4:	f88d 7004 	strb.w	r7, [sp, #4]
 80018f8:	f88d 0005 	strb.w	r0, [sp, #5]
 80018fc:	e786      	b.n	800180c <processModbusFrame+0x104>
 80018fe:	bf00      	nop
 8001900:	20000329 	.word	0x20000329
 8001904:	200000ca 	.word	0x200000ca
 8001908:	2000032a 	.word	0x2000032a
 800190c:	20000328 	.word	0x20000328
 8001910:	200000a8 	.word	0x200000a8
 8001914:	2000042c 	.word	0x2000042c
 8001918:	20000440 	.word	0x20000440
 800191c:	200000a4 	.word	0x200000a4
 8001920:	200000c0 	.word	0x200000c0

08001924 <updateBaudrate>:
 8001924:	b570      	push	{r4, r5, r6, lr}
 8001926:	4c1f      	ldr	r4, [pc, #124]	@ (80019a4 <updateBaudrate+0x80>)
 8001928:	4e1f      	ldr	r6, [pc, #124]	@ (80019a8 <updateBaudrate+0x84>)
 800192a:	7822      	ldrb	r2, [r4, #0]
 800192c:	f8b6 3202 	ldrh.w	r3, [r6, #514]	@ 0x202
 8001930:	429a      	cmp	r2, r3
 8001932:	d036      	beq.n	80019a2 <updateBaudrate+0x7e>
 8001934:	4d1d      	ldr	r5, [pc, #116]	@ (80019ac <updateBaudrate+0x88>)
 8001936:	6828      	ldr	r0, [r5, #0]
 8001938:	b118      	cbz	r0, 8001942 <updateBaudrate+0x1e>
 800193a:	f04f 31ff 	mov.w	r1, #4294967295
 800193e:	f003 fcc7 	bl	80052d0 <osMutexAcquire>
 8001942:	f8b6 3202 	ldrh.w	r3, [r6, #514]	@ 0x202
 8001946:	3b01      	subs	r3, #1
 8001948:	2b03      	cmp	r3, #3
 800194a:	d822      	bhi.n	8001992 <updateBaudrate+0x6e>
 800194c:	e8df f003 	tbb	[pc, r3]
 8001950:	1d190225 	.word	0x1d190225
 8001954:	2202      	movs	r2, #2
 8001956:	f44f 4396 	mov.w	r3, #19200	@ 0x4b00
 800195a:	7022      	strb	r2, [r4, #0]
 800195c:	4c14      	ldr	r4, [pc, #80]	@ (80019b0 <updateBaudrate+0x8c>)
 800195e:	4620      	mov	r0, r4
 8001960:	6063      	str	r3, [r4, #4]
 8001962:	f003 f934 	bl	8004bce <HAL_UART_DeInit>
 8001966:	4620      	mov	r0, r4
 8001968:	f003 f902 	bl	8004b70 <HAL_UART_Init>
 800196c:	2201      	movs	r2, #1
 800196e:	4620      	mov	r0, r4
 8001970:	4910      	ldr	r1, [pc, #64]	@ (80019b4 <updateBaudrate+0x90>)
 8001972:	f003 fbca 	bl	800510a <HAL_UART_Receive_IT>
 8001976:	6828      	ldr	r0, [r5, #0]
 8001978:	b198      	cbz	r0, 80019a2 <updateBaudrate+0x7e>
 800197a:	e8bd 4070 	ldmia.w	sp!, {r4, r5, r6, lr}
 800197e:	f003 bcca 	b.w	8005316 <osMutexRelease>
 8001982:	2203      	movs	r2, #3
 8001984:	f44f 4316 	mov.w	r3, #38400	@ 0x9600
 8001988:	e7e7      	b.n	800195a <updateBaudrate+0x36>
 800198a:	2204      	movs	r2, #4
 800198c:	f44f 4361 	mov.w	r3, #57600	@ 0xe100
 8001990:	e7e3      	b.n	800195a <updateBaudrate+0x36>
 8001992:	2205      	movs	r2, #5
 8001994:	f44f 33e1 	mov.w	r3, #115200	@ 0x1c200
 8001998:	e7df      	b.n	800195a <updateBaudrate+0x36>
 800199a:	2201      	movs	r2, #1
 800199c:	f44f 5316 	mov.w	r3, #9600	@ 0x2580
 80019a0:	e7db      	b.n	800195a <updateBaudrate+0x36>
 80019a2:	bd70      	pop	{r4, r5, r6, pc}
 80019a4:	20000000 	.word	0x20000000
 80019a8:	200000ca 	.word	0x200000ca
 80019ac:	2000042c 	.word	0x2000042c
 80019b0:	20000440 	.word	0x20000440
 80019b4:	20000322 	.word	0x20000322

080019b8 <checkUARTHealth>:
 80019b8:	b538      	push	{r3, r4, r5, lr}
 80019ba:	f000 fd75 	bl	80024a8 <HAL_GetTick>
 80019be:	4a09      	ldr	r2, [pc, #36]	@ (80019e4 <checkUARTHealth+0x2c>)
 80019c0:	4604      	mov	r4, r0
 80019c2:	6813      	ldr	r3, [r2, #0]
 80019c4:	1ac3      	subs	r3, r0, r3
 80019c6:	f5b3 7f7a 	cmp.w	r3, #1000	@ 0x3e8
 80019ca:	d30a      	bcc.n	80019e2 <checkUARTHealth+0x2a>
 80019cc:	6010      	str	r0, [r2, #0]
 80019ce:	f247 5230 	movw	r2, #30000	@ 0x7530
 80019d2:	4d05      	ldr	r5, [pc, #20]	@ (80019e8 <checkUARTHealth+0x30>)
 80019d4:	682b      	ldr	r3, [r5, #0]
 80019d6:	1ac3      	subs	r3, r0, r3
 80019d8:	4293      	cmp	r3, r2
 80019da:	d902      	bls.n	80019e2 <checkUARTHealth+0x2a>
 80019dc:	f7ff fe7a 	bl	80016d4 <resetUARTCommunication>
 80019e0:	602c      	str	r4, [r5, #0]
 80019e2:	bd38      	pop	{r3, r4, r5, pc}
 80019e4:	200000a0 	.word	0x200000a0
 80019e8:	20000324 	.word	0x20000324

080019ec <startModbusUARTReception>:
 80019ec:	b508      	push	{r3, lr}
 80019ee:	f000 fd5b 	bl	80024a8 <HAL_GetTick>
 80019f2:	4b05      	ldr	r3, [pc, #20]	@ (8001a08 <startModbusUARTReception+0x1c>)
 80019f4:	2201      	movs	r2, #1
 80019f6:	6018      	str	r0, [r3, #0]
 80019f8:	4b04      	ldr	r3, [pc, #16]	@ (8001a0c <startModbusUARTReception+0x20>)
 80019fa:	4905      	ldr	r1, [pc, #20]	@ (8001a10 <startModbusUARTReception+0x24>)
 80019fc:	6018      	str	r0, [r3, #0]
 80019fe:	4805      	ldr	r0, [pc, #20]	@ (8001a14 <startModbusUARTReception+0x28>)
 8001a00:	e8bd 4008 	ldmia.w	sp!, {r3, lr}
 8001a04:	f003 bb81 	b.w	800510a <HAL_UART_Receive_IT>
 8001a08:	20000324 	.word	0x20000324
 8001a0c:	200000a0 	.word	0x200000a0
 8001a10:	20000322 	.word	0x20000322
 8001a14:	20000440 	.word	0x20000440

08001a18 <StartIOTask>:
 8001a18:	b5f8      	push	{r3, r4, r5, r6, r7, lr}
 8001a1a:	f003 fbb3 	bl	8005184 <osKernelGetTickCount>
 8001a1e:	4604      	mov	r4, r0
 8001a20:	4d0d      	ldr	r5, [pc, #52]	@ (8001a58 <StartIOTask+0x40>)
 8001a22:	4f0e      	ldr	r7, [pc, #56]	@ (8001a5c <StartIOTask+0x44>)
 8001a24:	4e0e      	ldr	r6, [pc, #56]	@ (8001a60 <StartIOTask+0x48>)
 8001a26:	4628      	mov	r0, r5
 8001a28:	f7ff f9e2 	bl	8000df0 <DOutput_Load>
 8001a2c:	4628      	mov	r0, r5
 8001a2e:	f7ff fa0d 	bl	8000e4c <DOutput_Process>
 8001a32:	4628      	mov	r0, r5
 8001a34:	f7ff f9ec 	bl	8000e10 <DOutput_Save>
 8001a38:	683b      	ldr	r3, [r7, #0]
 8001a3a:	f504 74fa 	add.w	r4, r4, #500	@ 0x1f4
 8001a3e:	3301      	adds	r3, #1
 8001a40:	603b      	str	r3, [r7, #0]
 8001a42:	8033      	strh	r3, [r6, #0]
 8001a44:	f000 fd30 	bl	80024a8 <HAL_GetTick>
 8001a48:	8070      	strh	r0, [r6, #2]
 8001a4a:	f7ff f98f 	bl	8000d6c <Read_ACS712>
 8001a4e:	4620      	mov	r0, r4
 8001a50:	f003 fbef 	bl	8005232 <osDelayUntil>
 8001a54:	e7e7      	b.n	8001a26 <StartIOTask+0xe>
 8001a56:	bf00      	nop
 8001a58:	20000030 	.word	0x20000030
 8001a5c:	200000b0 	.word	0x200000b0
 8001a60:	200000c0 	.word	0x200000c0

08001a64 <StartUartTask>:
 8001a64:	e92d 41f0 	stmdb	sp!, {r4, r5, r6, r7, r8, lr}
 8001a68:	f642 24f8 	movw	r4, #11000	@ 0x2af8
 8001a6c:	f7ff ffbe 	bl	80019ec <startModbusUARTReception>
 8001a70:	4b19      	ldr	r3, [pc, #100]	@ (8001ad8 <StartUartTask+0x74>)
 8001a72:	4f1a      	ldr	r7, [pc, #104]	@ (8001adc <StartUartTask+0x78>)
 8001a74:	685b      	ldr	r3, [r3, #4]
 8001a76:	4e1a      	ldr	r6, [pc, #104]	@ (8001ae0 <StartUartTask+0x7c>)
 8001a78:	fbb4 f4f3 	udiv	r4, r4, r3
 8001a7c:	f003 fb82 	bl	8005184 <osKernelGetTickCount>
 8001a80:	00a4      	lsls	r4, r4, #2
 8001a82:	2c05      	cmp	r4, #5
 8001a84:	4605      	mov	r5, r0
 8001a86:	bf38      	it	cc
 8001a88:	2405      	movcc	r4, #5
 8001a8a:	683b      	ldr	r3, [r7, #0]
 8001a8c:	3301      	adds	r3, #1
 8001a8e:	603b      	str	r3, [r7, #0]
 8001a90:	7833      	ldrb	r3, [r6, #0]
 8001a92:	b95b      	cbnz	r3, 8001aac <StartUartTask+0x48>
 8001a94:	f8df 804c 	ldr.w	r8, [pc, #76]	@ 8001ae4 <StartUartTask+0x80>
 8001a98:	f898 3000 	ldrb.w	r3, [r8]
 8001a9c:	b963      	cbnz	r3, 8001ab8 <StartUartTask+0x54>
 8001a9e:	350a      	adds	r5, #10
 8001aa0:	f7ff ff8a 	bl	80019b8 <checkUARTHealth>
 8001aa4:	4628      	mov	r0, r5
 8001aa6:	f003 fbc4 	bl	8005232 <osDelayUntil>
 8001aaa:	e7ee      	b.n	8001a8a <StartUartTask+0x26>
 8001aac:	f7ff fe2c 	bl	8001708 <processModbusFrame>
 8001ab0:	7833      	ldrb	r3, [r6, #0]
 8001ab2:	2b00      	cmp	r3, #0
 8001ab4:	d1f3      	bne.n	8001a9e <StartUartTask+0x3a>
 8001ab6:	e7ed      	b.n	8001a94 <StartUartTask+0x30>
 8001ab8:	f000 fcf6 	bl	80024a8 <HAL_GetTick>
 8001abc:	4b0a      	ldr	r3, [pc, #40]	@ (8001ae8 <StartUartTask+0x84>)
 8001abe:	681b      	ldr	r3, [r3, #0]
 8001ac0:	1ac0      	subs	r0, r0, r3
 8001ac2:	42a0      	cmp	r0, r4
 8001ac4:	d9eb      	bls.n	8001a9e <StartUartTask+0x3a>
 8001ac6:	2300      	movs	r3, #0
 8001ac8:	4a08      	ldr	r2, [pc, #32]	@ (8001aec <StartUartTask+0x88>)
 8001aca:	f888 3000 	strb.w	r3, [r8]
 8001ace:	7033      	strb	r3, [r6, #0]
 8001ad0:	6813      	ldr	r3, [r2, #0]
 8001ad2:	3301      	adds	r3, #1
 8001ad4:	6013      	str	r3, [r2, #0]
 8001ad6:	e7e2      	b.n	8001a9e <StartUartTask+0x3a>
 8001ad8:	20000440 	.word	0x20000440
 8001adc:	200000ac 	.word	0x200000ac
 8001ae0:	20000328 	.word	0x20000328
 8001ae4:	20000329 	.word	0x20000329
 8001ae8:	20000324 	.word	0x20000324
 8001aec:	200000a8 	.word	0x200000a8

08001af0 <StartMotorTask>:
 8001af0:	b5f8      	push	{r3, r4, r5, r6, r7, lr}
 8001af2:	f003 fb47 	bl	8005184 <osKernelGetTickCount>
 8001af6:	4b1b      	ldr	r3, [pc, #108]	@ (8001b64 <StartMotorTask+0x74>)
 8001af8:	4a1b      	ldr	r2, [pc, #108]	@ (8001b68 <StartMotorTask+0x78>)
 8001afa:	491c      	ldr	r1, [pc, #112]	@ (8001b6c <StartMotorTask+0x7c>)
 8001afc:	4604      	mov	r4, r0
 8001afe:	2001      	movs	r0, #1
 8001b00:	f7ff fb66 	bl	80011d0 <PID_Init>
 8001b04:	2002      	movs	r0, #2
 8001b06:	4b17      	ldr	r3, [pc, #92]	@ (8001b64 <StartMotorTask+0x74>)
 8001b08:	4a17      	ldr	r2, [pc, #92]	@ (8001b68 <StartMotorTask+0x78>)
 8001b0a:	4918      	ldr	r1, [pc, #96]	@ (8001b6c <StartMotorTask+0x7c>)
 8001b0c:	f7ff fb60 	bl	80011d0 <PID_Init>
 8001b10:	4e17      	ldr	r6, [pc, #92]	@ (8001b70 <StartMotorTask+0x80>)
 8001b12:	4d18      	ldr	r5, [pc, #96]	@ (8001b74 <StartMotorTask+0x84>)
 8001b14:	4f18      	ldr	r7, [pc, #96]	@ (8001b78 <StartMotorTask+0x88>)
 8001b16:	4630      	mov	r0, r6
 8001b18:	2100      	movs	r1, #0
 8001b1a:	f7ff f9cf 	bl	8000ebc <MotorRegisters_Load>
 8001b1e:	4628      	mov	r0, r5
 8001b20:	2110      	movs	r1, #16
 8001b22:	f7ff f9cb 	bl	8000ebc <MotorRegisters_Load>
 8001b26:	f44f 7180 	mov.w	r1, #256	@ 0x100
 8001b2a:	4638      	mov	r0, r7
 8001b2c:	f7ff fa06 	bl	8000f3c <SystemRegisters_Load>
 8001b30:	f7ff fef8 	bl	8001924 <updateBaudrate>
 8001b34:	4630      	mov	r0, r6
 8001b36:	f7ff fcb7 	bl	80014a8 <Motor_ProcessControl>
 8001b3a:	4628      	mov	r0, r5
 8001b3c:	f7ff fcb4 	bl	80014a8 <Motor_ProcessControl>
 8001b40:	4630      	mov	r0, r6
 8001b42:	2100      	movs	r1, #0
 8001b44:	f7ff fa1a 	bl	8000f7c <MotorRegisters_Save>
 8001b48:	4628      	mov	r0, r5
 8001b4a:	2110      	movs	r1, #16
 8001b4c:	f7ff fa16 	bl	8000f7c <MotorRegisters_Save>
 8001b50:	341e      	adds	r4, #30
 8001b52:	4638      	mov	r0, r7
 8001b54:	f44f 7180 	mov.w	r1, #256	@ 0x100
 8001b58:	f7ff fa52 	bl	8001000 <SystemRegisters_Save>
 8001b5c:	4620      	mov	r0, r4
 8001b5e:	f003 fb68 	bl	8005232 <osDelayUntil>
 8001b62:	e7d8      	b.n	8001b16 <StartMotorTask+0x26>
 8001b64:	40a00000 	.word	0x40a00000
 8001b68:	41200000 	.word	0x41200000
 8001b6c:	42c80000 	.word	0x42c80000
 8001b70:	20000090 	.word	0x20000090
 8001b74:	20000082 	.word	0x20000082
 8001b78:	20000074 	.word	0x20000074

08001b7c <StartVisibleTask>:
 8001b7c:	b570      	push	{r4, r5, r6, lr}
 8001b7e:	f003 fb01 	bl	8005184 <osKernelGetTickCount>
 8001b82:	4604      	mov	r4, r0
 8001b84:	4e0a      	ldr	r6, [pc, #40]	@ (8001bb0 <StartVisibleTask+0x34>)
 8001b86:	4d0b      	ldr	r5, [pc, #44]	@ (8001bb4 <StartVisibleTask+0x38>)
 8001b88:	f44f 4100 	mov.w	r1, #32768	@ 0x8000
 8001b8c:	4808      	ldr	r0, [pc, #32]	@ (8001bb0 <StartVisibleTask+0x34>)
 8001b8e:	f001 f93c 	bl	8002e0a <HAL_GPIO_TogglePin>
 8001b92:	782b      	ldrb	r3, [r5, #0]
 8001b94:	2b01      	cmp	r3, #1
 8001b96:	d106      	bne.n	8001ba6 <StartVisibleTask+0x2a>
 8001b98:	f44f 4180 	mov.w	r1, #16384	@ 0x4000
 8001b9c:	4630      	mov	r0, r6
 8001b9e:	f001 f934 	bl	8002e0a <HAL_GPIO_TogglePin>
 8001ba2:	2300      	movs	r3, #0
 8001ba4:	702b      	strb	r3, [r5, #0]
 8001ba6:	34fa      	adds	r4, #250	@ 0xfa
 8001ba8:	4620      	mov	r0, r4
 8001baa:	f003 fb42 	bl	8005232 <osDelayUntil>
 8001bae:	e7eb      	b.n	8001b88 <StartVisibleTask+0xc>
 8001bb0:	40011000 	.word	0x40011000
 8001bb4:	200000a4 	.word	0x200000a4

08001bb8 <SystemClock_Config>:
 8001bb8:	b510      	push	{r4, lr}
 8001bba:	b094      	sub	sp, #80	@ 0x50
 8001bbc:	2214      	movs	r2, #20
 8001bbe:	2100      	movs	r1, #0
 8001bc0:	a80c      	add	r0, sp, #48	@ 0x30
 8001bc2:	f005 fa19 	bl	8006ff8 <memset>
 8001bc6:	2214      	movs	r2, #20
 8001bc8:	2100      	movs	r1, #0
 8001bca:	eb0d 0002 	add.w	r0, sp, r2
 8001bce:	f005 fa13 	bl	8006ff8 <memset>
 8001bd2:	2210      	movs	r2, #16
 8001bd4:	2100      	movs	r1, #0
 8001bd6:	a801      	add	r0, sp, #4
 8001bd8:	f005 fa0e 	bl	8006ff8 <memset>
 8001bdc:	2402      	movs	r4, #2
 8001bde:	f44f 3380 	mov.w	r3, #65536	@ 0x10000
 8001be2:	2201      	movs	r2, #1
 8001be4:	e9cd 4311 	strd	r4, r3, [sp, #68]	@ 0x44
 8001be8:	e9cd 230a 	strd	r2, r3, [sp, #40]	@ 0x28
 8001bec:	f44f 13e0 	mov.w	r3, #1835008	@ 0x1c0000
 8001bf0:	a80a      	add	r0, sp, #40	@ 0x28
 8001bf2:	920e      	str	r2, [sp, #56]	@ 0x38
 8001bf4:	9313      	str	r3, [sp, #76]	@ 0x4c
 8001bf6:	f002 f81b 	bl	8003c30 <HAL_RCC_OscConfig>
 8001bfa:	b108      	cbz	r0, 8001c00 <SystemClock_Config+0x48>
 8001bfc:	b672      	cpsid	i
 8001bfe:	e7fe      	b.n	8001bfe <SystemClock_Config+0x46>
 8001c00:	230f      	movs	r3, #15
 8001c02:	e9cd 3405 	strd	r3, r4, [sp, #20]
 8001c06:	f44f 6380 	mov.w	r3, #1024	@ 0x400
 8001c0a:	9007      	str	r0, [sp, #28]
 8001c0c:	e9cd 3008 	strd	r3, r0, [sp, #32]
 8001c10:	4621      	mov	r1, r4
 8001c12:	a805      	add	r0, sp, #20
 8001c14:	f002 f9ce 	bl	8003fb4 <HAL_RCC_ClockConfig>
 8001c18:	b108      	cbz	r0, 8001c1e <SystemClock_Config+0x66>
 8001c1a:	b672      	cpsid	i
 8001c1c:	e7fe      	b.n	8001c1c <SystemClock_Config+0x64>
 8001c1e:	9003      	str	r0, [sp, #12]
 8001c20:	a801      	add	r0, sp, #4
 8001c22:	9401      	str	r4, [sp, #4]
 8001c24:	f002 fa82 	bl	800412c <HAL_RCCEx_PeriphCLKConfig>
 8001c28:	b108      	cbz	r0, 8001c2e <SystemClock_Config+0x76>
 8001c2a:	b672      	cpsid	i
 8001c2c:	e7fe      	b.n	8001c2c <SystemClock_Config+0x74>
 8001c2e:	b014      	add	sp, #80	@ 0x50
 8001c30:	bd10      	pop	{r4, pc}
	...

08001c34 <main>:
 8001c34:	b580      	push	{r7, lr}
 8001c36:	b09a      	sub	sp, #104	@ 0x68
 8001c38:	f000 fc18 	bl	800246c <HAL_Init>
 8001c3c:	f7ff ffbc 	bl	8001bb8 <SystemClock_Config>
 8001c40:	2210      	movs	r2, #16
 8001c42:	2100      	movs	r1, #0
 8001c44:	a812      	add	r0, sp, #72	@ 0x48
 8001c46:	f005 f9d7 	bl	8006ff8 <memset>
 8001c4a:	4ba6      	ldr	r3, [pc, #664]	@ (8001ee4 <main+0x2b0>)
 8001c4c:	f241 011a 	movw	r1, #4122	@ 0x101a
 8001c50:	699a      	ldr	r2, [r3, #24]
 8001c52:	48a5      	ldr	r0, [pc, #660]	@ (8001ee8 <main+0x2b4>)
 8001c54:	f042 0210 	orr.w	r2, r2, #16
 8001c58:	619a      	str	r2, [r3, #24]
 8001c5a:	699a      	ldr	r2, [r3, #24]
 8001c5c:	2400      	movs	r4, #0
 8001c5e:	f002 0210 	and.w	r2, r2, #16
 8001c62:	9201      	str	r2, [sp, #4]
 8001c64:	9a01      	ldr	r2, [sp, #4]
 8001c66:	699a      	ldr	r2, [r3, #24]
 8001c68:	2502      	movs	r5, #2
 8001c6a:	f042 0220 	orr.w	r2, r2, #32
 8001c6e:	619a      	str	r2, [r3, #24]
 8001c70:	699a      	ldr	r2, [r3, #24]
 8001c72:	2701      	movs	r7, #1
 8001c74:	f002 0220 	and.w	r2, r2, #32
 8001c78:	9202      	str	r2, [sp, #8]
 8001c7a:	9a02      	ldr	r2, [sp, #8]
 8001c7c:	699a      	ldr	r2, [r3, #24]
 8001c7e:	2620      	movs	r6, #32
 8001c80:	f042 0204 	orr.w	r2, r2, #4
 8001c84:	619a      	str	r2, [r3, #24]
 8001c86:	699a      	ldr	r2, [r3, #24]
 8001c88:	f002 0204 	and.w	r2, r2, #4
 8001c8c:	9203      	str	r2, [sp, #12]
 8001c8e:	9a03      	ldr	r2, [sp, #12]
 8001c90:	699a      	ldr	r2, [r3, #24]
 8001c92:	f042 0208 	orr.w	r2, r2, #8
 8001c96:	619a      	str	r2, [r3, #24]
 8001c98:	699b      	ldr	r3, [r3, #24]
 8001c9a:	2200      	movs	r2, #0
 8001c9c:	f003 0308 	and.w	r3, r3, #8
 8001ca0:	9304      	str	r3, [sp, #16]
 8001ca2:	9b04      	ldr	r3, [sp, #16]
 8001ca4:	f001 f8ac 	bl	8002e00 <HAL_GPIO_WritePin>
 8001ca8:	f44f 4360 	mov.w	r3, #57344	@ 0xe000
 8001cac:	488f      	ldr	r0, [pc, #572]	@ (8001eec <main+0x2b8>)
 8001cae:	a912      	add	r1, sp, #72	@ 0x48
 8001cb0:	e9cd 4514 	strd	r4, r5, [sp, #80]	@ 0x50
 8001cb4:	e9cd 3712 	strd	r3, r7, [sp, #72]	@ 0x48
 8001cb8:	f000 ff60 	bl	8002b7c <HAL_GPIO_Init>
 8001cbc:	f240 2312 	movw	r3, #530	@ 0x212
 8001cc0:	488b      	ldr	r0, [pc, #556]	@ (8001ef0 <main+0x2bc>)
 8001cc2:	a912      	add	r1, sp, #72	@ 0x48
 8001cc4:	e9cd 3712 	strd	r3, r7, [sp, #72]	@ 0x48
 8001cc8:	e9cd 4514 	strd	r4, r5, [sp, #80]	@ 0x50
 8001ccc:	f000 ff56 	bl	8002b7c <HAL_GPIO_Init>
 8001cd0:	4887      	ldr	r0, [pc, #540]	@ (8001ef0 <main+0x2bc>)
 8001cd2:	a912      	add	r1, sp, #72	@ 0x48
 8001cd4:	e9cd 6412 	strd	r6, r4, [sp, #72]	@ 0x48
 8001cd8:	9414      	str	r4, [sp, #80]	@ 0x50
 8001cda:	f000 ff4f 	bl	8002b7c <HAL_GPIO_Init>
 8001cde:	f241 031a 	movw	r3, #4122	@ 0x101a
 8001ce2:	4881      	ldr	r0, [pc, #516]	@ (8001ee8 <main+0x2b4>)
 8001ce4:	a912      	add	r1, sp, #72	@ 0x48
 8001ce6:	e9cd 4514 	strd	r4, r5, [sp, #80]	@ 0x50
 8001cea:	e9cd 3712 	strd	r3, r7, [sp, #72]	@ 0x48
 8001cee:	f000 ff45 	bl	8002b7c <HAL_GPIO_Init>
 8001cf2:	f44f 43c8 	mov.w	r3, #25600	@ 0x6400
 8001cf6:	487c      	ldr	r0, [pc, #496]	@ (8001ee8 <main+0x2b4>)
 8001cf8:	a912      	add	r1, sp, #72	@ 0x48
 8001cfa:	e9cd 3412 	strd	r3, r4, [sp, #72]	@ 0x48
 8001cfe:	9414      	str	r4, [sp, #80]	@ 0x50
 8001d00:	4d7c      	ldr	r5, [pc, #496]	@ (8001ef4 <main+0x2c0>)
 8001d02:	f000 ff3b 	bl	8002b7c <HAL_GPIO_Init>
 8001d06:	487c      	ldr	r0, [pc, #496]	@ (8001ef8 <main+0x2c4>)
 8001d08:	4b7c      	ldr	r3, [pc, #496]	@ (8001efc <main+0x2c8>)
 8001d0a:	e9c0 4402 	strd	r4, r4, [r0, #8]
 8001d0e:	e9c0 5300 	strd	r5, r3, [r0]
 8001d12:	f44f 4380 	mov.w	r3, #16384	@ 0x4000
 8001d16:	e9c0 4406 	strd	r4, r4, [r0, #24]
 8001d1a:	e9c0 3404 	strd	r3, r4, [r0, #16]
 8001d1e:	6204      	str	r4, [r0, #32]
 8001d20:	f001 f87c 	bl	8002e1c <HAL_I2C_Init>
 8001d24:	4604      	mov	r4, r0
 8001d26:	b108      	cbz	r0, 8001d2c <main+0xf8>
 8001d28:	b672      	cpsid	i
 8001d2a:	e7fe      	b.n	8001d2a <main+0xf6>
 8001d2c:	4601      	mov	r1, r0
 8001d2e:	2210      	movs	r2, #16
 8001d30:	a812      	add	r0, sp, #72	@ 0x48
 8001d32:	f005 f961 	bl	8006ff8 <memset>
 8001d36:	f04f 4380 	mov.w	r3, #1073741824	@ 0x40000000
 8001d3a:	4d71      	ldr	r5, [pc, #452]	@ (8001f00 <main+0x2cc>)
 8001d3c:	e9cd 440b 	strd	r4, r4, [sp, #44]	@ 0x2c
 8001d40:	e9c5 3400 	strd	r3, r4, [r5]
 8001d44:	f64f 73ff 	movw	r3, #65535	@ 0xffff
 8001d48:	4628      	mov	r0, r5
 8001d4a:	e9c5 3403 	strd	r3, r4, [r5, #12]
 8001d4e:	60ac      	str	r4, [r5, #8]
 8001d50:	61ac      	str	r4, [r5, #24]
 8001d52:	f002 fc03 	bl	800455c <HAL_TIM_Base_Init>
 8001d56:	b108      	cbz	r0, 8001d5c <main+0x128>
 8001d58:	b672      	cpsid	i
 8001d5a:	e7fe      	b.n	8001d5a <main+0x126>
 8001d5c:	f44f 5780 	mov.w	r7, #4096	@ 0x1000
 8001d60:	4628      	mov	r0, r5
 8001d62:	a912      	add	r1, sp, #72	@ 0x48
 8001d64:	9712      	str	r7, [sp, #72]	@ 0x48
 8001d66:	f002 fcdf 	bl	8004728 <HAL_TIM_ConfigClockSource>
 8001d6a:	b108      	cbz	r0, 8001d70 <main+0x13c>
 8001d6c:	b672      	cpsid	i
 8001d6e:	e7fe      	b.n	8001d6e <main+0x13a>
 8001d70:	e9cd 000b 	strd	r0, r0, [sp, #44]	@ 0x2c
 8001d74:	a90b      	add	r1, sp, #44	@ 0x2c
 8001d76:	4628      	mov	r0, r5
 8001d78:	f002 fe0a 	bl	8004990 <HAL_TIMEx_MasterConfigSynchronization>
 8001d7c:	4603      	mov	r3, r0
 8001d7e:	b108      	cbz	r0, 8001d84 <main+0x150>
 8001d80:	b672      	cpsid	i
 8001d82:	e7fe      	b.n	8001d82 <main+0x14e>
 8001d84:	f44f 32e1 	mov.w	r2, #115200	@ 0x1c200
 8001d88:	485e      	ldr	r0, [pc, #376]	@ (8001f04 <main+0x2d0>)
 8001d8a:	4c5f      	ldr	r4, [pc, #380]	@ (8001f08 <main+0x2d4>)
 8001d8c:	e9c0 3302 	strd	r3, r3, [r0, #8]
 8001d90:	e9c0 4200 	strd	r4, r2, [r0]
 8001d94:	220c      	movs	r2, #12
 8001d96:	6103      	str	r3, [r0, #16]
 8001d98:	e9c0 2305 	strd	r2, r3, [r0, #20]
 8001d9c:	61c3      	str	r3, [r0, #28]
 8001d9e:	f002 fee7 	bl	8004b70 <HAL_UART_Init>
 8001da2:	4605      	mov	r5, r0
 8001da4:	b108      	cbz	r0, 8001daa <main+0x176>
 8001da6:	b672      	cpsid	i
 8001da8:	e7fe      	b.n	8001da8 <main+0x174>
 8001daa:	4601      	mov	r1, r0
 8001dac:	2210      	movs	r2, #16
 8001dae:	a807      	add	r0, sp, #28
 8001db0:	f005 f922 	bl	8006ff8 <memset>
 8001db4:	221c      	movs	r2, #28
 8001db6:	4629      	mov	r1, r5
 8001db8:	a80b      	add	r0, sp, #44	@ 0x2c
 8001dba:	e9cd 5505 	strd	r5, r5, [sp, #20]
 8001dbe:	f005 f91b 	bl	8006ff8 <memset>
 8001dc2:	4629      	mov	r1, r5
 8001dc4:	4632      	mov	r2, r6
 8001dc6:	a812      	add	r0, sp, #72	@ 0x48
 8001dc8:	f005 f916 	bl	8006ff8 <memset>
 8001dcc:	2307      	movs	r3, #7
 8001dce:	4c4f      	ldr	r4, [pc, #316]	@ (8001f0c <main+0x2d8>)
 8001dd0:	494f      	ldr	r1, [pc, #316]	@ (8001f10 <main+0x2dc>)
 8001dd2:	4620      	mov	r0, r4
 8001dd4:	e9c4 1300 	strd	r1, r3, [r4]
 8001dd8:	f240 3383 	movw	r3, #899	@ 0x383
 8001ddc:	e9c4 5505 	strd	r5, r5, [r4, #20]
 8001de0:	e9c4 3503 	strd	r3, r5, [r4, #12]
 8001de4:	60a5      	str	r5, [r4, #8]
 8001de6:	f002 fbb9 	bl	800455c <HAL_TIM_Base_Init>
 8001dea:	b108      	cbz	r0, 8001df0 <main+0x1bc>
 8001dec:	b672      	cpsid	i
 8001dee:	e7fe      	b.n	8001dee <main+0x1ba>
 8001df0:	4620      	mov	r0, r4
 8001df2:	a907      	add	r1, sp, #28
 8001df4:	9707      	str	r7, [sp, #28]
 8001df6:	f002 fc97 	bl	8004728 <HAL_TIM_ConfigClockSource>
 8001dfa:	b108      	cbz	r0, 8001e00 <main+0x1cc>
 8001dfc:	b672      	cpsid	i
 8001dfe:	e7fe      	b.n	8001dfe <main+0x1ca>
 8001e00:	4620      	mov	r0, r4
 8001e02:	f002 fbd7 	bl	80045b4 <HAL_TIM_PWM_Init>
 8001e06:	b108      	cbz	r0, 8001e0c <main+0x1d8>
 8001e08:	b672      	cpsid	i
 8001e0a:	e7fe      	b.n	8001e0a <main+0x1d6>
 8001e0c:	e9cd 0005 	strd	r0, r0, [sp, #20]
 8001e10:	a905      	add	r1, sp, #20
 8001e12:	4620      	mov	r0, r4
 8001e14:	f002 fdbc 	bl	8004990 <HAL_TIMEx_MasterConfigSynchronization>
 8001e18:	4602      	mov	r2, r0
 8001e1a:	b108      	cbz	r0, 8001e20 <main+0x1ec>
 8001e1c:	b672      	cpsid	i
 8001e1e:	e7fe      	b.n	8001e1e <main+0x1ea>
 8001e20:	2360      	movs	r3, #96	@ 0x60
 8001e22:	e9cd 000d 	strd	r0, r0, [sp, #52]	@ 0x34
 8001e26:	e9cd 300b 	strd	r3, r0, [sp, #44]	@ 0x2c
 8001e2a:	e9cd 000f 	strd	r0, r0, [sp, #60]	@ 0x3c
 8001e2e:	9011      	str	r0, [sp, #68]	@ 0x44
 8001e30:	a90b      	add	r1, sp, #44	@ 0x2c
 8001e32:	4620      	mov	r0, r4
 8001e34:	f002 fc16 	bl	8004664 <HAL_TIM_PWM_ConfigChannel>
 8001e38:	b108      	cbz	r0, 8001e3e <main+0x20a>
 8001e3a:	b672      	cpsid	i
 8001e3c:	e7fe      	b.n	8001e3c <main+0x208>
 8001e3e:	2208      	movs	r2, #8
 8001e40:	4832      	ldr	r0, [pc, #200]	@ (8001f0c <main+0x2d8>)
 8001e42:	a90b      	add	r1, sp, #44	@ 0x2c
 8001e44:	f002 fc0e 	bl	8004664 <HAL_TIM_PWM_ConfigChannel>
 8001e48:	b108      	cbz	r0, 8001e4e <main+0x21a>
 8001e4a:	b672      	cpsid	i
 8001e4c:	e7fe      	b.n	8001e4c <main+0x218>
 8001e4e:	f44f 5300 	mov.w	r3, #8192	@ 0x2000
 8001e52:	e9cd 0012 	strd	r0, r0, [sp, #72]	@ 0x48
 8001e56:	e9cd 0014 	strd	r0, r0, [sp, #80]	@ 0x50
 8001e5a:	9016      	str	r0, [sp, #88]	@ 0x58
 8001e5c:	9019      	str	r0, [sp, #100]	@ 0x64
 8001e5e:	a912      	add	r1, sp, #72	@ 0x48
 8001e60:	482a      	ldr	r0, [pc, #168]	@ (8001f0c <main+0x2d8>)
 8001e62:	9317      	str	r3, [sp, #92]	@ 0x5c
 8001e64:	f002 fdc2 	bl	80049ec <HAL_TIMEx_ConfigBreakDeadTime>
 8001e68:	4605      	mov	r5, r0
 8001e6a:	b108      	cbz	r0, 8001e70 <main+0x23c>
 8001e6c:	b672      	cpsid	i
 8001e6e:	e7fe      	b.n	8001e6e <main+0x23a>
 8001e70:	4826      	ldr	r0, [pc, #152]	@ (8001f0c <main+0x2d8>)
 8001e72:	f000 f9dd 	bl	8002230 <HAL_TIM_MspPostInit>
 8001e76:	2210      	movs	r2, #16
 8001e78:	4629      	mov	r1, r5
 8001e7a:	a80b      	add	r0, sp, #44	@ 0x2c
 8001e7c:	f005 f8bc 	bl	8006ff8 <memset>
 8001e80:	221c      	movs	r2, #28
 8001e82:	4629      	mov	r1, r5
 8001e84:	a812      	add	r0, sp, #72	@ 0x48
 8001e86:	e9cd 5507 	strd	r5, r5, [sp, #28]
 8001e8a:	f005 f8b5 	bl	8006ff8 <memset>
 8001e8e:	2307      	movs	r3, #7
 8001e90:	4c20      	ldr	r4, [pc, #128]	@ (8001f14 <main+0x2e0>)
 8001e92:	4a21      	ldr	r2, [pc, #132]	@ (8001f18 <main+0x2e4>)
 8001e94:	4620      	mov	r0, r4
 8001e96:	e9c4 2300 	strd	r2, r3, [r4]
 8001e9a:	f240 3383 	movw	r3, #899	@ 0x383
 8001e9e:	60a5      	str	r5, [r4, #8]
 8001ea0:	e9c4 3503 	strd	r3, r5, [r4, #12]
 8001ea4:	61a5      	str	r5, [r4, #24]
 8001ea6:	f002 fb59 	bl	800455c <HAL_TIM_Base_Init>
 8001eaa:	b108      	cbz	r0, 8001eb0 <main+0x27c>
 8001eac:	b672      	cpsid	i
 8001eae:	e7fe      	b.n	8001eae <main+0x27a>
 8001eb0:	f44f 5380 	mov.w	r3, #4096	@ 0x1000
 8001eb4:	4620      	mov	r0, r4
 8001eb6:	a90b      	add	r1, sp, #44	@ 0x2c
 8001eb8:	930b      	str	r3, [sp, #44]	@ 0x2c
 8001eba:	f002 fc35 	bl	8004728 <HAL_TIM_ConfigClockSource>
 8001ebe:	b108      	cbz	r0, 8001ec4 <main+0x290>
 8001ec0:	b672      	cpsid	i
 8001ec2:	e7fe      	b.n	8001ec2 <main+0x28e>
 8001ec4:	4620      	mov	r0, r4
 8001ec6:	f002 fb75 	bl	80045b4 <HAL_TIM_PWM_Init>
 8001eca:	b108      	cbz	r0, 8001ed0 <main+0x29c>
 8001ecc:	b672      	cpsid	i
 8001ece:	e7fe      	b.n	8001ece <main+0x29a>
 8001ed0:	e9cd 0007 	strd	r0, r0, [sp, #28]
 8001ed4:	a907      	add	r1, sp, #28
 8001ed6:	4620      	mov	r0, r4
 8001ed8:	f002 fd5a 	bl	8004990 <HAL_TIMEx_MasterConfigSynchronization>
 8001edc:	4602      	mov	r2, r0
 8001ede:	b1e8      	cbz	r0, 8001f1c <main+0x2e8>
 8001ee0:	b672      	cpsid	i
 8001ee2:	e7fe      	b.n	8001ee2 <main+0x2ae>
 8001ee4:	40021000 	.word	0x40021000
 8001ee8:	40010c00 	.word	0x40010c00
 8001eec:	40011000 	.word	0x40011000
 8001ef0:	40010800 	.word	0x40010800
 8001ef4:	40005400 	.word	0x40005400
 8001ef8:	20000560 	.word	0x20000560
 8001efc:	000186a0 	.word	0x000186a0
 8001f00:	200004d0 	.word	0x200004d0
 8001f04:	20000440 	.word	0x20000440
 8001f08:	40004400 	.word	0x40004400
 8001f0c:	20000518 	.word	0x20000518
 8001f10:	40012c00 	.word	0x40012c00
 8001f14:	20000488 	.word	0x20000488
 8001f18:	40000400 	.word	0x40000400
 8001f1c:	2360      	movs	r3, #96	@ 0x60
 8001f1e:	9014      	str	r0, [sp, #80]	@ 0x50
 8001f20:	e9cd 3012 	strd	r3, r0, [sp, #72]	@ 0x48
 8001f24:	9016      	str	r0, [sp, #88]	@ 0x58
 8001f26:	a912      	add	r1, sp, #72	@ 0x48
 8001f28:	4620      	mov	r0, r4
 8001f2a:	f002 fb9b 	bl	8004664 <HAL_TIM_PWM_ConfigChannel>
 8001f2e:	b108      	cbz	r0, 8001f34 <main+0x300>
 8001f30:	b672      	cpsid	i
 8001f32:	e7fe      	b.n	8001f32 <main+0x2fe>
 8001f34:	2204      	movs	r2, #4
 8001f36:	4620      	mov	r0, r4
 8001f38:	a912      	add	r1, sp, #72	@ 0x48
 8001f3a:	f002 fb93 	bl	8004664 <HAL_TIM_PWM_ConfigChannel>
 8001f3e:	4605      	mov	r5, r0
 8001f40:	b108      	cbz	r0, 8001f46 <main+0x312>
 8001f42:	b672      	cpsid	i
 8001f44:	e7fe      	b.n	8001f44 <main+0x310>
 8001f46:	4620      	mov	r0, r4
 8001f48:	f000 f972 	bl	8002230 <HAL_TIM_MspPostInit>
 8001f4c:	4c29      	ldr	r4, [pc, #164]	@ (8001ff4 <main+0x3c0>)
 8001f4e:	4b2a      	ldr	r3, [pc, #168]	@ (8001ff8 <main+0x3c4>)
 8001f50:	e9cd 5512 	strd	r5, r5, [sp, #72]	@ 0x48
 8001f54:	9514      	str	r5, [sp, #80]	@ 0x50
 8001f56:	6023      	str	r3, [r4, #0]
 8001f58:	60a5      	str	r5, [r4, #8]
 8001f5a:	f44f 2360 	mov.w	r3, #917504	@ 0xe0000
 8001f5e:	7325      	strb	r5, [r4, #12]
 8001f60:	7525      	strb	r5, [r4, #20]
 8001f62:	6065      	str	r5, [r4, #4]
 8001f64:	2501      	movs	r5, #1
 8001f66:	4620      	mov	r0, r4
 8001f68:	61e3      	str	r3, [r4, #28]
 8001f6a:	6125      	str	r5, [r4, #16]
 8001f6c:	f000 fc8c 	bl	8002888 <HAL_ADC_Init>
 8001f70:	b108      	cbz	r0, 8001f76 <main+0x342>
 8001f72:	b672      	cpsid	i
 8001f74:	e7fe      	b.n	8001f74 <main+0x340>
 8001f76:	e9cd 0512 	strd	r0, r5, [sp, #72]	@ 0x48
 8001f7a:	9014      	str	r0, [sp, #80]	@ 0x50
 8001f7c:	a912      	add	r1, sp, #72	@ 0x48
 8001f7e:	4620      	mov	r0, r4
 8001f80:	f000 fb40 	bl	8002604 <HAL_ADC_ConfigChannel>
 8001f84:	b108      	cbz	r0, 8001f8a <main+0x356>
 8001f86:	b672      	cpsid	i
 8001f88:	e7fe      	b.n	8001f88 <main+0x354>
 8001f8a:	2400      	movs	r4, #0
 8001f8c:	f7ff fabc 	bl	8001508 <initializeModbusRegisters>
 8001f90:	f003 f8cc 	bl	800512c <osKernelInitialize>
 8001f94:	4b19      	ldr	r3, [pc, #100]	@ (8001ffc <main+0x3c8>)
 8001f96:	a812      	add	r0, sp, #72	@ 0x48
 8001f98:	9312      	str	r3, [sp, #72]	@ 0x48
 8001f9a:	e9cd 4413 	strd	r4, r4, [sp, #76]	@ 0x4c
 8001f9e:	9415      	str	r4, [sp, #84]	@ 0x54
 8001fa0:	f003 f95e 	bl	8005260 <osMutexNew>
 8001fa4:	4b16      	ldr	r3, [pc, #88]	@ (8002000 <main+0x3cc>)
 8001fa6:	4621      	mov	r1, r4
 8001fa8:	6018      	str	r0, [r3, #0]
 8001faa:	4a16      	ldr	r2, [pc, #88]	@ (8002004 <main+0x3d0>)
 8001fac:	4816      	ldr	r0, [pc, #88]	@ (8002008 <main+0x3d4>)
 8001fae:	f003 f8f0 	bl	8005192 <osThreadNew>
 8001fb2:	4b16      	ldr	r3, [pc, #88]	@ (800200c <main+0x3d8>)
 8001fb4:	4621      	mov	r1, r4
 8001fb6:	6018      	str	r0, [r3, #0]
 8001fb8:	4a15      	ldr	r2, [pc, #84]	@ (8002010 <main+0x3dc>)
 8001fba:	4816      	ldr	r0, [pc, #88]	@ (8002014 <main+0x3e0>)
 8001fbc:	f003 f8e9 	bl	8005192 <osThreadNew>
 8001fc0:	4b15      	ldr	r3, [pc, #84]	@ (8002018 <main+0x3e4>)
 8001fc2:	4621      	mov	r1, r4
 8001fc4:	6018      	str	r0, [r3, #0]
 8001fc6:	4a15      	ldr	r2, [pc, #84]	@ (800201c <main+0x3e8>)
 8001fc8:	4815      	ldr	r0, [pc, #84]	@ (8002020 <main+0x3ec>)
 8001fca:	f003 f8e2 	bl	8005192 <osThreadNew>
 8001fce:	4b15      	ldr	r3, [pc, #84]	@ (8002024 <main+0x3f0>)
 8001fd0:	4621      	mov	r1, r4
 8001fd2:	4a15      	ldr	r2, [pc, #84]	@ (8002028 <main+0x3f4>)
 8001fd4:	6018      	str	r0, [r3, #0]
 8001fd6:	4815      	ldr	r0, [pc, #84]	@ (800202c <main+0x3f8>)
 8001fd8:	f003 f8db 	bl	8005192 <osThreadNew>
 8001fdc:	4b14      	ldr	r3, [pc, #80]	@ (8002030 <main+0x3fc>)
 8001fde:	6018      	str	r0, [r3, #0]
 8001fe0:	f003 f8b6 	bl	8005150 <osKernelStart>
 8001fe4:	4622      	mov	r2, r4
 8001fe6:	f44f 4100 	mov.w	r1, #32768	@ 0x8000
 8001fea:	4812      	ldr	r0, [pc, #72]	@ (8002034 <main+0x400>)
 8001fec:	f000 ff08 	bl	8002e00 <HAL_GPIO_WritePin>
 8001ff0:	e7fe      	b.n	8001ff0 <main+0x3bc>
 8001ff2:	bf00      	nop
 8001ff4:	200005b4 	.word	0x200005b4
 8001ff8:	40012400 	.word	0x40012400
 8001ffc:	08007084 	.word	0x08007084
 8002000:	2000042c 	.word	0x2000042c
 8002004:	08007138 	.word	0x08007138
 8002008:	08001a19 	.word	0x08001a19
 800200c:	2000043c 	.word	0x2000043c
 8002010:	08007114 	.word	0x08007114
 8002014:	08001a65 	.word	0x08001a65
 8002018:	20000438 	.word	0x20000438
 800201c:	080070f0 	.word	0x080070f0
 8002020:	08001af1 	.word	0x08001af1
 8002024:	20000434 	.word	0x20000434
 8002028:	080070cc 	.word	0x080070cc
 800202c:	08001b7d 	.word	0x08001b7d
 8002030:	20000430 	.word	0x20000430
 8002034:	40011000 	.word	0x40011000

08002038 <HAL_MspInit>:
 8002038:	4b15      	ldr	r3, [pc, #84]	@ (8002090 <HAL_MspInit+0x58>)
 800203a:	b507      	push	{r0, r1, r2, lr}
 800203c:	699a      	ldr	r2, [r3, #24]
 800203e:	210f      	movs	r1, #15
 8002040:	f042 0201 	orr.w	r2, r2, #1
 8002044:	619a      	str	r2, [r3, #24]
 8002046:	699a      	ldr	r2, [r3, #24]
 8002048:	f06f 0001 	mvn.w	r0, #1
 800204c:	f002 0201 	and.w	r2, r2, #1
 8002050:	9200      	str	r2, [sp, #0]
 8002052:	9a00      	ldr	r2, [sp, #0]
 8002054:	69da      	ldr	r2, [r3, #28]
 8002056:	f042 5280 	orr.w	r2, r2, #268435456	@ 0x10000000
 800205a:	61da      	str	r2, [r3, #28]
 800205c:	69db      	ldr	r3, [r3, #28]
 800205e:	2200      	movs	r2, #0
 8002060:	f003 5380 	and.w	r3, r3, #268435456	@ 0x10000000
 8002064:	9301      	str	r3, [sp, #4]
 8002066:	9b01      	ldr	r3, [sp, #4]
 8002068:	f000 fcb8 	bl	80029dc <HAL_NVIC_SetPriority>
 800206c:	2105      	movs	r1, #5
 800206e:	2200      	movs	r2, #0
 8002070:	4608      	mov	r0, r1
 8002072:	f000 fcb3 	bl	80029dc <HAL_NVIC_SetPriority>
 8002076:	2005      	movs	r0, #5
 8002078:	f000 fce0 	bl	8002a3c <HAL_NVIC_EnableIRQ>
 800207c:	4a05      	ldr	r2, [pc, #20]	@ (8002094 <HAL_MspInit+0x5c>)
 800207e:	6853      	ldr	r3, [r2, #4]
 8002080:	f023 63e0 	bic.w	r3, r3, #117440512	@ 0x7000000
 8002084:	f043 7300 	orr.w	r3, r3, #33554432	@ 0x2000000
 8002088:	6053      	str	r3, [r2, #4]
 800208a:	b003      	add	sp, #12
 800208c:	f85d fb04 	ldr.w	pc, [sp], #4
 8002090:	40021000 	.word	0x40021000
 8002094:	40010000 	.word	0x40010000

08002098 <HAL_ADC_MspInit>:
 8002098:	b510      	push	{r4, lr}
 800209a:	4604      	mov	r4, r0
 800209c:	b086      	sub	sp, #24
 800209e:	2210      	movs	r2, #16
 80020a0:	2100      	movs	r1, #0
 80020a2:	a802      	add	r0, sp, #8
 80020a4:	f004 ffa8 	bl	8006ff8 <memset>
 80020a8:	6822      	ldr	r2, [r4, #0]
 80020aa:	4b10      	ldr	r3, [pc, #64]	@ (80020ec <HAL_ADC_MspInit+0x54>)
 80020ac:	429a      	cmp	r2, r3
 80020ae:	d11b      	bne.n	80020e8 <HAL_ADC_MspInit+0x50>
 80020b0:	f503 436c 	add.w	r3, r3, #60416	@ 0xec00
 80020b4:	699a      	ldr	r2, [r3, #24]
 80020b6:	480e      	ldr	r0, [pc, #56]	@ (80020f0 <HAL_ADC_MspInit+0x58>)
 80020b8:	f442 7200 	orr.w	r2, r2, #512	@ 0x200
 80020bc:	619a      	str	r2, [r3, #24]
 80020be:	699a      	ldr	r2, [r3, #24]
 80020c0:	a902      	add	r1, sp, #8
 80020c2:	f402 7200 	and.w	r2, r2, #512	@ 0x200
 80020c6:	9200      	str	r2, [sp, #0]
 80020c8:	9a00      	ldr	r2, [sp, #0]
 80020ca:	699a      	ldr	r2, [r3, #24]
 80020cc:	f042 0204 	orr.w	r2, r2, #4
 80020d0:	619a      	str	r2, [r3, #24]
 80020d2:	699b      	ldr	r3, [r3, #24]
 80020d4:	2201      	movs	r2, #1
 80020d6:	f003 0304 	and.w	r3, r3, #4
 80020da:	9301      	str	r3, [sp, #4]
 80020dc:	9b01      	ldr	r3, [sp, #4]
 80020de:	2303      	movs	r3, #3
 80020e0:	e9cd 2302 	strd	r2, r3, [sp, #8]
 80020e4:	f000 fd4a 	bl	8002b7c <HAL_GPIO_Init>
 80020e8:	b006      	add	sp, #24
 80020ea:	bd10      	pop	{r4, pc}
 80020ec:	40012400 	.word	0x40012400
 80020f0:	40010800 	.word	0x40010800

080020f4 <HAL_I2C_MspInit>:
 80020f4:	b510      	push	{r4, lr}
 80020f6:	4604      	mov	r4, r0
 80020f8:	b086      	sub	sp, #24
 80020fa:	2210      	movs	r2, #16
 80020fc:	2100      	movs	r1, #0
 80020fe:	a802      	add	r0, sp, #8
 8002100:	f004 ff7a 	bl	8006ff8 <memset>
 8002104:	6822      	ldr	r2, [r4, #0]
 8002106:	4b19      	ldr	r3, [pc, #100]	@ (800216c <HAL_I2C_MspInit+0x78>)
 8002108:	429a      	cmp	r2, r3
 800210a:	d12c      	bne.n	8002166 <HAL_I2C_MspInit+0x72>
 800210c:	4c18      	ldr	r4, [pc, #96]	@ (8002170 <HAL_I2C_MspInit+0x7c>)
 800210e:	22c0      	movs	r2, #192	@ 0xc0
 8002110:	69a3      	ldr	r3, [r4, #24]
 8002112:	4818      	ldr	r0, [pc, #96]	@ (8002174 <HAL_I2C_MspInit+0x80>)
 8002114:	f043 0308 	orr.w	r3, r3, #8
 8002118:	61a3      	str	r3, [r4, #24]
 800211a:	69a3      	ldr	r3, [r4, #24]
 800211c:	a902      	add	r1, sp, #8
 800211e:	f003 0308 	and.w	r3, r3, #8
 8002122:	9300      	str	r3, [sp, #0]
 8002124:	9b00      	ldr	r3, [sp, #0]
 8002126:	2312      	movs	r3, #18
 8002128:	e9cd 2302 	strd	r2, r3, [sp, #8]
 800212c:	2303      	movs	r3, #3
 800212e:	9305      	str	r3, [sp, #20]
 8002130:	f000 fd24 	bl	8002b7c <HAL_GPIO_Init>
 8002134:	69e3      	ldr	r3, [r4, #28]
 8002136:	2200      	movs	r2, #0
 8002138:	f443 1300 	orr.w	r3, r3, #2097152	@ 0x200000
 800213c:	61e3      	str	r3, [r4, #28]
 800213e:	69e3      	ldr	r3, [r4, #28]
 8002140:	2105      	movs	r1, #5
 8002142:	f403 1300 	and.w	r3, r3, #2097152	@ 0x200000
 8002146:	201f      	movs	r0, #31
 8002148:	9301      	str	r3, [sp, #4]
 800214a:	9b01      	ldr	r3, [sp, #4]
 800214c:	f000 fc46 	bl	80029dc <HAL_NVIC_SetPriority>
 8002150:	201f      	movs	r0, #31
 8002152:	f000 fc73 	bl	8002a3c <HAL_NVIC_EnableIRQ>
 8002156:	2020      	movs	r0, #32
 8002158:	2200      	movs	r2, #0
 800215a:	2105      	movs	r1, #5
 800215c:	f000 fc3e 	bl	80029dc <HAL_NVIC_SetPriority>
 8002160:	2020      	movs	r0, #32
 8002162:	f000 fc6b 	bl	8002a3c <HAL_NVIC_EnableIRQ>
 8002166:	b006      	add	sp, #24
 8002168:	bd10      	pop	{r4, pc}
 800216a:	bf00      	nop
 800216c:	40005400 	.word	0x40005400
 8002170:	40021000 	.word	0x40021000
 8002174:	40010c00 	.word	0x40010c00

08002178 <HAL_TIM_Base_MspInit>:
 8002178:	b51f      	push	{r0, r1, r2, r3, r4, lr}
 800217a:	6803      	ldr	r3, [r0, #0]
 800217c:	4a29      	ldr	r2, [pc, #164]	@ (8002224 <HAL_TIM_Base_MspInit+0xac>)
 800217e:	4293      	cmp	r3, r2
 8002180:	d124      	bne.n	80021cc <HAL_TIM_Base_MspInit+0x54>
 8002182:	4b29      	ldr	r3, [pc, #164]	@ (8002228 <HAL_TIM_Base_MspInit+0xb0>)
 8002184:	2105      	movs	r1, #5
 8002186:	699a      	ldr	r2, [r3, #24]
 8002188:	2018      	movs	r0, #24
 800218a:	f442 6200 	orr.w	r2, r2, #2048	@ 0x800
 800218e:	619a      	str	r2, [r3, #24]
 8002190:	699b      	ldr	r3, [r3, #24]
 8002192:	2200      	movs	r2, #0
 8002194:	f403 6300 	and.w	r3, r3, #2048	@ 0x800
 8002198:	9301      	str	r3, [sp, #4]
 800219a:	9b01      	ldr	r3, [sp, #4]
 800219c:	f000 fc1e 	bl	80029dc <HAL_NVIC_SetPriority>
 80021a0:	2018      	movs	r0, #24
 80021a2:	f000 fc4b 	bl	8002a3c <HAL_NVIC_EnableIRQ>
 80021a6:	2200      	movs	r2, #0
 80021a8:	2105      	movs	r1, #5
 80021aa:	2019      	movs	r0, #25
 80021ac:	f000 fc16 	bl	80029dc <HAL_NVIC_SetPriority>
 80021b0:	2019      	movs	r0, #25
 80021b2:	f000 fc43 	bl	8002a3c <HAL_NVIC_EnableIRQ>
 80021b6:	201b      	movs	r0, #27
 80021b8:	2200      	movs	r2, #0
 80021ba:	2105      	movs	r1, #5
 80021bc:	f000 fc0e 	bl	80029dc <HAL_NVIC_SetPriority>
 80021c0:	201b      	movs	r0, #27
 80021c2:	b005      	add	sp, #20
 80021c4:	f85d eb04 	ldr.w	lr, [sp], #4
 80021c8:	f000 bc38 	b.w	8002a3c <HAL_NVIC_EnableIRQ>
 80021cc:	f1b3 4f80 	cmp.w	r3, #1073741824	@ 0x40000000
 80021d0:	d111      	bne.n	80021f6 <HAL_TIM_Base_MspInit+0x7e>
 80021d2:	f503 3304 	add.w	r3, r3, #135168	@ 0x21000
 80021d6:	69da      	ldr	r2, [r3, #28]
 80021d8:	201c      	movs	r0, #28
 80021da:	f042 0201 	orr.w	r2, r2, #1
 80021de:	61da      	str	r2, [r3, #28]
 80021e0:	69db      	ldr	r3, [r3, #28]
 80021e2:	2200      	movs	r2, #0
 80021e4:	f003 0301 	and.w	r3, r3, #1
 80021e8:	9302      	str	r3, [sp, #8]
 80021ea:	2105      	movs	r1, #5
 80021ec:	9b02      	ldr	r3, [sp, #8]
 80021ee:	f000 fbf5 	bl	80029dc <HAL_NVIC_SetPriority>
 80021f2:	201c      	movs	r0, #28
 80021f4:	e7e5      	b.n	80021c2 <HAL_TIM_Base_MspInit+0x4a>
 80021f6:	4a0d      	ldr	r2, [pc, #52]	@ (800222c <HAL_TIM_Base_MspInit+0xb4>)
 80021f8:	4293      	cmp	r3, r2
 80021fa:	d110      	bne.n	800221e <HAL_TIM_Base_MspInit+0xa6>
 80021fc:	4b0a      	ldr	r3, [pc, #40]	@ (8002228 <HAL_TIM_Base_MspInit+0xb0>)
 80021fe:	201d      	movs	r0, #29
 8002200:	69da      	ldr	r2, [r3, #28]
 8002202:	2105      	movs	r1, #5
 8002204:	f042 0202 	orr.w	r2, r2, #2
 8002208:	61da      	str	r2, [r3, #28]
 800220a:	69db      	ldr	r3, [r3, #28]
 800220c:	2200      	movs	r2, #0
 800220e:	f003 0302 	and.w	r3, r3, #2
 8002212:	9303      	str	r3, [sp, #12]
 8002214:	9b03      	ldr	r3, [sp, #12]
 8002216:	f000 fbe1 	bl	80029dc <HAL_NVIC_SetPriority>
 800221a:	201d      	movs	r0, #29
 800221c:	e7d1      	b.n	80021c2 <HAL_TIM_Base_MspInit+0x4a>
 800221e:	b005      	add	sp, #20
 8002220:	f85d fb04 	ldr.w	pc, [sp], #4
 8002224:	40012c00 	.word	0x40012c00
 8002228:	40021000 	.word	0x40021000
 800222c:	40000400 	.word	0x40000400

08002230 <HAL_TIM_MspPostInit>:
 8002230:	b510      	push	{r4, lr}
 8002232:	4604      	mov	r4, r0
 8002234:	b086      	sub	sp, #24
 8002236:	2210      	movs	r2, #16
 8002238:	2100      	movs	r1, #0
 800223a:	a802      	add	r0, sp, #8
 800223c:	f004 fedc 	bl	8006ff8 <memset>
 8002240:	6823      	ldr	r3, [r4, #0]
 8002242:	4a14      	ldr	r2, [pc, #80]	@ (8002294 <HAL_TIM_MspPostInit+0x64>)
 8002244:	4293      	cmp	r3, r2
 8002246:	d115      	bne.n	8002274 <HAL_TIM_MspPostInit+0x44>
 8002248:	4b13      	ldr	r3, [pc, #76]	@ (8002298 <HAL_TIM_MspPostInit+0x68>)
 800224a:	699a      	ldr	r2, [r3, #24]
 800224c:	f042 0204 	orr.w	r2, r2, #4
 8002250:	619a      	str	r2, [r3, #24]
 8002252:	699b      	ldr	r3, [r3, #24]
 8002254:	f003 0304 	and.w	r3, r3, #4
 8002258:	9300      	str	r3, [sp, #0]
 800225a:	9b00      	ldr	r3, [sp, #0]
 800225c:	f44f 63a0 	mov.w	r3, #1280	@ 0x500
 8002260:	9302      	str	r3, [sp, #8]
 8002262:	2302      	movs	r3, #2
 8002264:	480d      	ldr	r0, [pc, #52]	@ (800229c <HAL_TIM_MspPostInit+0x6c>)
 8002266:	a902      	add	r1, sp, #8
 8002268:	9303      	str	r3, [sp, #12]
 800226a:	9305      	str	r3, [sp, #20]
 800226c:	f000 fc86 	bl	8002b7c <HAL_GPIO_Init>
 8002270:	b006      	add	sp, #24
 8002272:	bd10      	pop	{r4, pc}
 8002274:	4a0a      	ldr	r2, [pc, #40]	@ (80022a0 <HAL_TIM_MspPostInit+0x70>)
 8002276:	4293      	cmp	r3, r2
 8002278:	d1fa      	bne.n	8002270 <HAL_TIM_MspPostInit+0x40>
 800227a:	4b07      	ldr	r3, [pc, #28]	@ (8002298 <HAL_TIM_MspPostInit+0x68>)
 800227c:	699a      	ldr	r2, [r3, #24]
 800227e:	f042 0204 	orr.w	r2, r2, #4
 8002282:	619a      	str	r2, [r3, #24]
 8002284:	699b      	ldr	r3, [r3, #24]
 8002286:	f003 0304 	and.w	r3, r3, #4
 800228a:	9301      	str	r3, [sp, #4]
 800228c:	9b01      	ldr	r3, [sp, #4]
 800228e:	23c0      	movs	r3, #192	@ 0xc0
 8002290:	e7e6      	b.n	8002260 <HAL_TIM_MspPostInit+0x30>
 8002292:	bf00      	nop
 8002294:	40012c00 	.word	0x40012c00
 8002298:	40021000 	.word	0x40021000
 800229c:	40010800 	.word	0x40010800
 80022a0:	40000400 	.word	0x40000400

080022a4 <HAL_UART_MspInit>:
 80022a4:	b510      	push	{r4, lr}
 80022a6:	4604      	mov	r4, r0
 80022a8:	b086      	sub	sp, #24
 80022aa:	2210      	movs	r2, #16
 80022ac:	2100      	movs	r1, #0
 80022ae:	a802      	add	r0, sp, #8
 80022b0:	f004 fea2 	bl	8006ff8 <memset>
 80022b4:	6822      	ldr	r2, [r4, #0]
 80022b6:	4b1a      	ldr	r3, [pc, #104]	@ (8002320 <HAL_UART_MspInit+0x7c>)
 80022b8:	429a      	cmp	r2, r3
 80022ba:	d12f      	bne.n	800231c <HAL_UART_MspInit+0x78>
 80022bc:	f503 33e6 	add.w	r3, r3, #117760	@ 0x1cc00
 80022c0:	69da      	ldr	r2, [r3, #28]
 80022c2:	4818      	ldr	r0, [pc, #96]	@ (8002324 <HAL_UART_MspInit+0x80>)
 80022c4:	f442 3200 	orr.w	r2, r2, #131072	@ 0x20000
 80022c8:	61da      	str	r2, [r3, #28]
 80022ca:	69da      	ldr	r2, [r3, #28]
 80022cc:	a902      	add	r1, sp, #8
 80022ce:	f402 3200 	and.w	r2, r2, #131072	@ 0x20000
 80022d2:	9200      	str	r2, [sp, #0]
 80022d4:	9a00      	ldr	r2, [sp, #0]
 80022d6:	699a      	ldr	r2, [r3, #24]
 80022d8:	2400      	movs	r4, #0
 80022da:	f042 0204 	orr.w	r2, r2, #4
 80022de:	619a      	str	r2, [r3, #24]
 80022e0:	699b      	ldr	r3, [r3, #24]
 80022e2:	2204      	movs	r2, #4
 80022e4:	f003 0304 	and.w	r3, r3, #4
 80022e8:	9301      	str	r3, [sp, #4]
 80022ea:	9b01      	ldr	r3, [sp, #4]
 80022ec:	2302      	movs	r3, #2
 80022ee:	e9cd 2302 	strd	r2, r3, [sp, #8]
 80022f2:	2303      	movs	r3, #3
 80022f4:	9305      	str	r3, [sp, #20]
 80022f6:	f000 fc41 	bl	8002b7c <HAL_GPIO_Init>
 80022fa:	2308      	movs	r3, #8
 80022fc:	4809      	ldr	r0, [pc, #36]	@ (8002324 <HAL_UART_MspInit+0x80>)
 80022fe:	eb0d 0103 	add.w	r1, sp, r3
 8002302:	e9cd 3402 	strd	r3, r4, [sp, #8]
 8002306:	9404      	str	r4, [sp, #16]
 8002308:	f000 fc38 	bl	8002b7c <HAL_GPIO_Init>
 800230c:	2026      	movs	r0, #38	@ 0x26
 800230e:	4622      	mov	r2, r4
 8002310:	2105      	movs	r1, #5
 8002312:	f000 fb63 	bl	80029dc <HAL_NVIC_SetPriority>
 8002316:	2026      	movs	r0, #38	@ 0x26
 8002318:	f000 fb90 	bl	8002a3c <HAL_NVIC_EnableIRQ>
 800231c:	b006      	add	sp, #24
 800231e:	bd10      	pop	{r4, pc}
 8002320:	40004400 	.word	0x40004400
 8002324:	40010800 	.word	0x40010800

08002328 <HAL_UART_MspDeInit>:
 8002328:	b508      	push	{r3, lr}
 800232a:	6802      	ldr	r2, [r0, #0]
 800232c:	4b08      	ldr	r3, [pc, #32]	@ (8002350 <HAL_UART_MspDeInit+0x28>)
 800232e:	429a      	cmp	r2, r3
 8002330:	d10d      	bne.n	800234e <HAL_UART_MspDeInit+0x26>
 8002332:	4a08      	ldr	r2, [pc, #32]	@ (8002354 <HAL_UART_MspDeInit+0x2c>)
 8002334:	4808      	ldr	r0, [pc, #32]	@ (8002358 <HAL_UART_MspDeInit+0x30>)
 8002336:	69d3      	ldr	r3, [r2, #28]
 8002338:	210c      	movs	r1, #12
 800233a:	f423 3300 	bic.w	r3, r3, #131072	@ 0x20000
 800233e:	61d3      	str	r3, [r2, #28]
 8002340:	f000 fcf0 	bl	8002d24 <HAL_GPIO_DeInit>
 8002344:	e8bd 4008 	ldmia.w	sp!, {r3, lr}
 8002348:	2026      	movs	r0, #38	@ 0x26
 800234a:	f000 bb85 	b.w	8002a58 <HAL_NVIC_DisableIRQ>
 800234e:	bd08      	pop	{r3, pc}
 8002350:	40004400 	.word	0x40004400
 8002354:	40021000 	.word	0x40021000
 8002358:	40010800 	.word	0x40010800

0800235c <NMI_Handler>:
 800235c:	e7fe      	b.n	800235c <NMI_Handler>

0800235e <HardFault_Handler>:
 800235e:	e7fe      	b.n	800235e <HardFault_Handler>

08002360 <MemManage_Handler>:
 8002360:	e7fe      	b.n	8002360 <MemManage_Handler>

08002362 <BusFault_Handler>:
 8002362:	e7fe      	b.n	8002362 <BusFault_Handler>

08002364 <UsageFault_Handler>:
 8002364:	e7fe      	b.n	8002364 <UsageFault_Handler>

08002366 <DebugMon_Handler>:
 8002366:	4770      	bx	lr

08002368 <SysTick_Handler>:
 8002368:	b508      	push	{r3, lr}
 800236a:	f000 f891 	bl	8002490 <HAL_IncTick>
 800236e:	f004 f919 	bl	80065a4 <xTaskGetSchedulerState>
 8002372:	2801      	cmp	r0, #1
 8002374:	d003      	beq.n	800237e <SysTick_Handler+0x16>
 8002376:	e8bd 4008 	ldmia.w	sp!, {r3, lr}
 800237a:	f004 bc93 	b.w	8006ca4 <xPortSysTickHandler>
 800237e:	bd08      	pop	{r3, pc}

08002380 <RCC_IRQHandler>:
 8002380:	4770      	bx	lr
	...

08002384 <TIM1_BRK_IRQHandler>:
 8002384:	4801      	ldr	r0, [pc, #4]	@ (800238c <TIM1_BRK_IRQHandler+0x8>)
 8002386:	f002 b823 	b.w	80043d0 <HAL_TIM_IRQHandler>
 800238a:	bf00      	nop
 800238c:	20000518 	.word	0x20000518

08002390 <TIM1_UP_IRQHandler>:
 8002390:	f7ff bff8 	b.w	8002384 <TIM1_BRK_IRQHandler>

08002394 <TIM1_CC_IRQHandler>:
 8002394:	f7ff bff6 	b.w	8002384 <TIM1_BRK_IRQHandler>

08002398 <TIM2_IRQHandler>:
 8002398:	4801      	ldr	r0, [pc, #4]	@ (80023a0 <TIM2_IRQHandler+0x8>)
 800239a:	f002 b819 	b.w	80043d0 <HAL_TIM_IRQHandler>
 800239e:	bf00      	nop
 80023a0:	200004d0 	.word	0x200004d0

080023a4 <TIM3_IRQHandler>:
 80023a4:	4801      	ldr	r0, [pc, #4]	@ (80023ac <TIM3_IRQHandler+0x8>)
 80023a6:	f002 b813 	b.w	80043d0 <HAL_TIM_IRQHandler>
 80023aa:	bf00      	nop
 80023ac:	20000488 	.word	0x20000488

080023b0 <I2C1_EV_IRQHandler>:
 80023b0:	4801      	ldr	r0, [pc, #4]	@ (80023b8 <I2C1_EV_IRQHandler+0x8>)
 80023b2:	f000 bf45 	b.w	8003240 <HAL_I2C_EV_IRQHandler>
 80023b6:	bf00      	nop
 80023b8:	20000560 	.word	0x20000560

080023bc <I2C1_ER_IRQHandler>:
 80023bc:	4801      	ldr	r0, [pc, #4]	@ (80023c4 <I2C1_ER_IRQHandler+0x8>)
 80023be:	f001 bb97 	b.w	8003af0 <HAL_I2C_ER_IRQHandler>
 80023c2:	bf00      	nop
 80023c4:	20000560 	.word	0x20000560

080023c8 <USART2_IRQHandler>:
 80023c8:	4801      	ldr	r0, [pc, #4]	@ (80023d0 <USART2_IRQHandler+0x8>)
 80023ca:	f002 bd3b 	b.w	8004e44 <HAL_UART_IRQHandler>
 80023ce:	bf00      	nop
 80023d0:	20000440 	.word	0x20000440

080023d4 <SystemInit>:
 80023d4:	4770      	bx	lr
	...

080023d8 <Reset_Handler>:
 80023d8:	f7ff fffc 	bl	80023d4 <SystemInit>
 80023dc:	480b      	ldr	r0, [pc, #44]	@ (800240c <LoopFillZerobss+0xe>)
 80023de:	490c      	ldr	r1, [pc, #48]	@ (8002410 <LoopFillZerobss+0x12>)
 80023e0:	4a0c      	ldr	r2, [pc, #48]	@ (8002414 <LoopFillZerobss+0x16>)
 80023e2:	2300      	movs	r3, #0
 80023e4:	e002      	b.n	80023ec <LoopCopyDataInit>

080023e6 <CopyDataInit>:
 80023e6:	58d4      	ldr	r4, [r2, r3]
 80023e8:	50c4      	str	r4, [r0, r3]
 80023ea:	3304      	adds	r3, #4

080023ec <LoopCopyDataInit>:
 80023ec:	18c4      	adds	r4, r0, r3
 80023ee:	428c      	cmp	r4, r1
 80023f0:	d3f9      	bcc.n	80023e6 <CopyDataInit>
 80023f2:	4a09      	ldr	r2, [pc, #36]	@ (8002418 <LoopFillZerobss+0x1a>)
 80023f4:	4c09      	ldr	r4, [pc, #36]	@ (800241c <LoopFillZerobss+0x1e>)
 80023f6:	2300      	movs	r3, #0
 80023f8:	e001      	b.n	80023fe <LoopFillZerobss>

080023fa <FillZerobss>:
 80023fa:	6013      	str	r3, [r2, #0]
 80023fc:	3204      	adds	r2, #4

080023fe <LoopFillZerobss>:
 80023fe:	42a2      	cmp	r2, r4
 8002400:	d3fb      	bcc.n	80023fa <FillZerobss>
 8002402:	f004 fe01 	bl	8007008 <__libc_init_array>
 8002406:	f7ff fc15 	bl	8001c34 <main>
 800240a:	4770      	bx	lr
 800240c:	20000000 	.word	0x20000000
 8002410:	20000014 	.word	0x20000014
 8002414:	080071a0 	.word	0x080071a0
 8002418:	20000014 	.word	0x20000014
 800241c:	20001f34 	.word	0x20001f34

08002420 <ADC1_2_IRQHandler>:
 8002420:	e7fe      	b.n	8002420 <ADC1_2_IRQHandler>
	...

08002424 <HAL_InitTick>:
 8002424:	b538      	push	{r3, r4, r5, lr}
 8002426:	4b0e      	ldr	r3, [pc, #56]	@ (8002460 <HAL_InitTick+0x3c>)
 8002428:	4605      	mov	r5, r0
 800242a:	781a      	ldrb	r2, [r3, #0]
 800242c:	f44f 737a 	mov.w	r3, #1000	@ 0x3e8
 8002430:	fbb3 f3f2 	udiv	r3, r3, r2
 8002434:	4a0b      	ldr	r2, [pc, #44]	@ (8002464 <HAL_InitTick+0x40>)
 8002436:	6810      	ldr	r0, [r2, #0]
 8002438:	fbb0 f0f3 	udiv	r0, r0, r3
 800243c:	f000 fb1e 	bl	8002a7c <HAL_SYSTICK_Config>
 8002440:	4604      	mov	r4, r0
 8002442:	b958      	cbnz	r0, 800245c <HAL_InitTick+0x38>
 8002444:	2d0f      	cmp	r5, #15
 8002446:	d809      	bhi.n	800245c <HAL_InitTick+0x38>
 8002448:	4602      	mov	r2, r0
 800244a:	4629      	mov	r1, r5
 800244c:	f04f 30ff 	mov.w	r0, #4294967295
 8002450:	f000 fac4 	bl	80029dc <HAL_NVIC_SetPriority>
 8002454:	4620      	mov	r0, r4
 8002456:	4b04      	ldr	r3, [pc, #16]	@ (8002468 <HAL_InitTick+0x44>)
 8002458:	601d      	str	r5, [r3, #0]
 800245a:	bd38      	pop	{r3, r4, r5, pc}
 800245c:	2001      	movs	r0, #1
 800245e:	e7fc      	b.n	800245a <HAL_InitTick+0x36>
 8002460:	20000008 	.word	0x20000008
 8002464:	20000004 	.word	0x20000004
 8002468:	2000000c 	.word	0x2000000c

0800246c <HAL_Init>:
 800246c:	4a07      	ldr	r2, [pc, #28]	@ (800248c <HAL_Init+0x20>)
 800246e:	b508      	push	{r3, lr}
 8002470:	6813      	ldr	r3, [r2, #0]
 8002472:	2003      	movs	r0, #3
 8002474:	f043 0310 	orr.w	r3, r3, #16
 8002478:	6013      	str	r3, [r2, #0]
 800247a:	f000 fa9d 	bl	80029b8 <HAL_NVIC_SetPriorityGrouping>
 800247e:	200f      	movs	r0, #15
 8002480:	f7ff ffd0 	bl	8002424 <HAL_InitTick>
 8002484:	f7ff fdd8 	bl	8002038 <HAL_MspInit>
 8002488:	2000      	movs	r0, #0
 800248a:	bd08      	pop	{r3, pc}
 800248c:	40022000 	.word	0x40022000

08002490 <HAL_IncTick>:
 8002490:	4a03      	ldr	r2, [pc, #12]	@ (80024a0 <HAL_IncTick+0x10>)
 8002492:	4b04      	ldr	r3, [pc, #16]	@ (80024a4 <HAL_IncTick+0x14>)
 8002494:	6811      	ldr	r1, [r2, #0]
 8002496:	781b      	ldrb	r3, [r3, #0]
 8002498:	440b      	add	r3, r1
 800249a:	6013      	str	r3, [r2, #0]
 800249c:	4770      	bx	lr
 800249e:	bf00      	nop
 80024a0:	200005e4 	.word	0x200005e4
 80024a4:	20000008 	.word	0x20000008

080024a8 <HAL_GetTick>:
 80024a8:	4b01      	ldr	r3, [pc, #4]	@ (80024b0 <HAL_GetTick+0x8>)
 80024aa:	6818      	ldr	r0, [r3, #0]
 80024ac:	4770      	bx	lr
 80024ae:	bf00      	nop
 80024b0:	200005e4 	.word	0x200005e4

080024b4 <HAL_ADC_PollForConversion>:
 80024b4:	b5f7      	push	{r0, r1, r2, r4, r5, r6, r7, lr}
 80024b6:	2600      	movs	r6, #0
 80024b8:	4604      	mov	r4, r0
 80024ba:	460d      	mov	r5, r1
 80024bc:	9601      	str	r6, [sp, #4]
 80024be:	f7ff fff3 	bl	80024a8 <HAL_GetTick>
 80024c2:	6823      	ldr	r3, [r4, #0]
 80024c4:	4607      	mov	r7, r0
 80024c6:	689a      	ldr	r2, [r3, #8]
 80024c8:	05d1      	lsls	r1, r2, #23
 80024ca:	d508      	bpl.n	80024de <HAL_ADC_PollForConversion+0x2a>
 80024cc:	2001      	movs	r0, #1
 80024ce:	6aa3      	ldr	r3, [r4, #40]	@ 0x28
 80024d0:	f884 6024 	strb.w	r6, [r4, #36]	@ 0x24
 80024d4:	f043 0320 	orr.w	r3, r3, #32
 80024d8:	62a3      	str	r3, [r4, #40]	@ 0x28
 80024da:	b003      	add	sp, #12
 80024dc:	bdf0      	pop	{r4, r5, r6, r7, pc}
 80024de:	685a      	ldr	r2, [r3, #4]
 80024e0:	05d2      	lsls	r2, r2, #23
 80024e2:	d403      	bmi.n	80024ec <HAL_ADC_PollForConversion+0x38>
 80024e4:	6adb      	ldr	r3, [r3, #44]	@ 0x2c
 80024e6:	f413 0f70 	tst.w	r3, #15728640	@ 0xf00000
 80024ea:	d03d      	beq.n	8002568 <HAL_ADC_PollForConversion+0xb4>
 80024ec:	4b3d      	ldr	r3, [pc, #244]	@ (80025e4 <HAL_ADC_PollForConversion+0x130>)
 80024ee:	2002      	movs	r0, #2
 80024f0:	681e      	ldr	r6, [r3, #0]
 80024f2:	f001 fe95 	bl	8004220 <HAL_RCCEx_GetPeriphCLKFreq>
 80024f6:	6823      	ldr	r3, [r4, #0]
 80024f8:	4a3b      	ldr	r2, [pc, #236]	@ (80025e8 <HAL_ADC_PollForConversion+0x134>)
 80024fa:	6919      	ldr	r1, [r3, #16]
 80024fc:	fbb6 f6f0 	udiv	r6, r6, r0
 8002500:	4211      	tst	r1, r2
 8002502:	4a3a      	ldr	r2, [pc, #232]	@ (80025ec <HAL_ADC_PollForConversion+0x138>)
 8002504:	d151      	bne.n	80025aa <HAL_ADC_PollForConversion+0xf6>
 8002506:	68d8      	ldr	r0, [r3, #12]
 8002508:	4939      	ldr	r1, [pc, #228]	@ (80025f0 <HAL_ADC_PollForConversion+0x13c>)
 800250a:	4208      	tst	r0, r1
 800250c:	d14d      	bne.n	80025aa <HAL_ADC_PollForConversion+0xf6>
 800250e:	6919      	ldr	r1, [r3, #16]
 8002510:	4211      	tst	r1, r2
 8002512:	d15b      	bne.n	80025cc <HAL_ADC_PollForConversion+0x118>
 8002514:	68da      	ldr	r2, [r3, #12]
 8002516:	4b37      	ldr	r3, [pc, #220]	@ (80025f4 <HAL_ADC_PollForConversion+0x140>)
 8002518:	421a      	tst	r2, r3
 800251a:	bf0c      	ite	eq
 800251c:	2314      	moveq	r3, #20
 800251e:	2329      	movne	r3, #41	@ 0x29
 8002520:	435e      	muls	r6, r3
 8002522:	9b01      	ldr	r3, [sp, #4]
 8002524:	42b3      	cmp	r3, r6
 8002526:	d223      	bcs.n	8002570 <HAL_ADC_PollForConversion+0xbc>
 8002528:	1c6a      	adds	r2, r5, #1
 800252a:	d004      	beq.n	8002536 <HAL_ADC_PollForConversion+0x82>
 800252c:	2d00      	cmp	r5, #0
 800252e:	d153      	bne.n	80025d8 <HAL_ADC_PollForConversion+0x124>
 8002530:	9b01      	ldr	r3, [sp, #4]
 8002532:	42b3      	cmp	r3, r6
 8002534:	d30a      	bcc.n	800254c <HAL_ADC_PollForConversion+0x98>
 8002536:	9b01      	ldr	r3, [sp, #4]
 8002538:	3301      	adds	r3, #1
 800253a:	9301      	str	r3, [sp, #4]
 800253c:	e7f1      	b.n	8002522 <HAL_ADC_PollForConversion+0x6e>
 800253e:	1c6e      	adds	r6, r5, #1
 8002540:	d013      	beq.n	800256a <HAL_ADC_PollForConversion+0xb6>
 8002542:	b965      	cbnz	r5, 800255e <HAL_ADC_PollForConversion+0xaa>
 8002544:	6823      	ldr	r3, [r4, #0]
 8002546:	681b      	ldr	r3, [r3, #0]
 8002548:	0798      	lsls	r0, r3, #30
 800254a:	d40d      	bmi.n	8002568 <HAL_ADC_PollForConversion+0xb4>
 800254c:	6aa3      	ldr	r3, [r4, #40]	@ 0x28
 800254e:	2003      	movs	r0, #3
 8002550:	f043 0304 	orr.w	r3, r3, #4
 8002554:	62a3      	str	r3, [r4, #40]	@ 0x28
 8002556:	2300      	movs	r3, #0
 8002558:	f884 3024 	strb.w	r3, [r4, #36]	@ 0x24
 800255c:	e7bd      	b.n	80024da <HAL_ADC_PollForConversion+0x26>
 800255e:	f7ff ffa3 	bl	80024a8 <HAL_GetTick>
 8002562:	1bc0      	subs	r0, r0, r7
 8002564:	42a8      	cmp	r0, r5
 8002566:	d8ed      	bhi.n	8002544 <HAL_ADC_PollForConversion+0x90>
 8002568:	6822      	ldr	r2, [r4, #0]
 800256a:	6813      	ldr	r3, [r2, #0]
 800256c:	0799      	lsls	r1, r3, #30
 800256e:	d5e6      	bpl.n	800253e <HAL_ADC_PollForConversion+0x8a>
 8002570:	f06f 0312 	mvn.w	r3, #18
 8002574:	6822      	ldr	r2, [r4, #0]
 8002576:	6013      	str	r3, [r2, #0]
 8002578:	6aa3      	ldr	r3, [r4, #40]	@ 0x28
 800257a:	f443 7300 	orr.w	r3, r3, #512	@ 0x200
 800257e:	62a3      	str	r3, [r4, #40]	@ 0x28
 8002580:	6893      	ldr	r3, [r2, #8]
 8002582:	f403 2360 	and.w	r3, r3, #917504	@ 0xe0000
 8002586:	f5b3 2f60 	cmp.w	r3, #917504	@ 0xe0000
 800258a:	d10c      	bne.n	80025a6 <HAL_ADC_PollForConversion+0xf2>
 800258c:	7b23      	ldrb	r3, [r4, #12]
 800258e:	b953      	cbnz	r3, 80025a6 <HAL_ADC_PollForConversion+0xf2>
 8002590:	6aa3      	ldr	r3, [r4, #40]	@ 0x28
 8002592:	f423 7380 	bic.w	r3, r3, #256	@ 0x100
 8002596:	62a3      	str	r3, [r4, #40]	@ 0x28
 8002598:	6aa3      	ldr	r3, [r4, #40]	@ 0x28
 800259a:	04db      	lsls	r3, r3, #19
 800259c:	d403      	bmi.n	80025a6 <HAL_ADC_PollForConversion+0xf2>
 800259e:	6aa3      	ldr	r3, [r4, #40]	@ 0x28
 80025a0:	f043 0301 	orr.w	r3, r3, #1
 80025a4:	62a3      	str	r3, [r4, #40]	@ 0x28
 80025a6:	2000      	movs	r0, #0
 80025a8:	e797      	b.n	80024da <HAL_ADC_PollForConversion+0x26>
 80025aa:	6919      	ldr	r1, [r3, #16]
 80025ac:	4211      	tst	r1, r2
 80025ae:	d103      	bne.n	80025b8 <HAL_ADC_PollForConversion+0x104>
 80025b0:	68d9      	ldr	r1, [r3, #12]
 80025b2:	4a10      	ldr	r2, [pc, #64]	@ (80025f4 <HAL_ADC_PollForConversion+0x140>)
 80025b4:	4211      	tst	r1, r2
 80025b6:	d00b      	beq.n	80025d0 <HAL_ADC_PollForConversion+0x11c>
 80025b8:	6919      	ldr	r1, [r3, #16]
 80025ba:	4a0f      	ldr	r2, [pc, #60]	@ (80025f8 <HAL_ADC_PollForConversion+0x144>)
 80025bc:	4211      	tst	r1, r2
 80025be:	d109      	bne.n	80025d4 <HAL_ADC_PollForConversion+0x120>
 80025c0:	68db      	ldr	r3, [r3, #12]
 80025c2:	4213      	tst	r3, r2
 80025c4:	bf0c      	ite	eq
 80025c6:	2354      	moveq	r3, #84	@ 0x54
 80025c8:	23fc      	movne	r3, #252	@ 0xfc
 80025ca:	e7a9      	b.n	8002520 <HAL_ADC_PollForConversion+0x6c>
 80025cc:	2329      	movs	r3, #41	@ 0x29
 80025ce:	e7a7      	b.n	8002520 <HAL_ADC_PollForConversion+0x6c>
 80025d0:	2354      	movs	r3, #84	@ 0x54
 80025d2:	e7a5      	b.n	8002520 <HAL_ADC_PollForConversion+0x6c>
 80025d4:	23fc      	movs	r3, #252	@ 0xfc
 80025d6:	e7a3      	b.n	8002520 <HAL_ADC_PollForConversion+0x6c>
 80025d8:	f7ff ff66 	bl	80024a8 <HAL_GetTick>
 80025dc:	1bc0      	subs	r0, r0, r7
 80025de:	42a8      	cmp	r0, r5
 80025e0:	d8a6      	bhi.n	8002530 <HAL_ADC_PollForConversion+0x7c>
 80025e2:	e7a8      	b.n	8002536 <HAL_ADC_PollForConversion+0x82>
 80025e4:	20000004 	.word	0x20000004
 80025e8:	24924924 	.word	0x24924924
 80025ec:	12492492 	.word	0x12492492
 80025f0:	00924924 	.word	0x00924924
 80025f4:	00492492 	.word	0x00492492
 80025f8:	00249249 	.word	0x00249249

080025fc <HAL_ADC_GetValue>:
 80025fc:	6803      	ldr	r3, [r0, #0]
 80025fe:	6cd8      	ldr	r0, [r3, #76]	@ 0x4c
 8002600:	4770      	bx	lr
	...

08002604 <HAL_ADC_ConfigChannel>:
 8002604:	2300      	movs	r3, #0
 8002606:	b573      	push	{r0, r1, r4, r5, r6, lr}
 8002608:	9301      	str	r3, [sp, #4]
 800260a:	f890 3024 	ldrb.w	r3, [r0, #36]	@ 0x24
 800260e:	4604      	mov	r4, r0
 8002610:	2b01      	cmp	r3, #1
 8002612:	d06c      	beq.n	80026ee <HAL_ADC_ConfigChannel+0xea>
 8002614:	2301      	movs	r3, #1
 8002616:	f880 3024 	strb.w	r3, [r0, #36]	@ 0x24
 800261a:	684d      	ldr	r5, [r1, #4]
 800261c:	6802      	ldr	r2, [r0, #0]
 800261e:	2d06      	cmp	r5, #6
 8002620:	6808      	ldr	r0, [r1, #0]
 8002622:	eb05 0385 	add.w	r3, r5, r5, lsl #2
 8002626:	d822      	bhi.n	800266e <HAL_ADC_ConfigChannel+0x6a>
 8002628:	261f      	movs	r6, #31
 800262a:	6b55      	ldr	r5, [r2, #52]	@ 0x34
 800262c:	3b05      	subs	r3, #5
 800262e:	409e      	lsls	r6, r3
 8002630:	ea25 0506 	bic.w	r5, r5, r6
 8002634:	fa00 f303 	lsl.w	r3, r0, r3
 8002638:	432b      	orrs	r3, r5
 800263a:	6353      	str	r3, [r2, #52]	@ 0x34
 800263c:	2809      	cmp	r0, #9
 800263e:	688b      	ldr	r3, [r1, #8]
 8002640:	eb00 0540 	add.w	r5, r0, r0, lsl #1
 8002644:	f04f 0107 	mov.w	r1, #7
 8002648:	d929      	bls.n	800269e <HAL_ADC_ConfigChannel+0x9a>
 800264a:	68d6      	ldr	r6, [r2, #12]
 800264c:	3d1e      	subs	r5, #30
 800264e:	40a9      	lsls	r1, r5
 8002650:	ea26 0101 	bic.w	r1, r6, r1
 8002654:	40ab      	lsls	r3, r5
 8002656:	430b      	orrs	r3, r1
 8002658:	60d3      	str	r3, [r2, #12]
 800265a:	f1a0 0310 	sub.w	r3, r0, #16
 800265e:	2b01      	cmp	r3, #1
 8002660:	d925      	bls.n	80026ae <HAL_ADC_ConfigChannel+0xaa>
 8002662:	2000      	movs	r0, #0
 8002664:	2300      	movs	r3, #0
 8002666:	f884 3024 	strb.w	r3, [r4, #36]	@ 0x24
 800266a:	b002      	add	sp, #8
 800266c:	bd70      	pop	{r4, r5, r6, pc}
 800266e:	2d0c      	cmp	r5, #12
 8002670:	f04f 051f 	mov.w	r5, #31
 8002674:	d809      	bhi.n	800268a <HAL_ADC_ConfigChannel+0x86>
 8002676:	6b16      	ldr	r6, [r2, #48]	@ 0x30
 8002678:	3b23      	subs	r3, #35	@ 0x23
 800267a:	409d      	lsls	r5, r3
 800267c:	ea26 0505 	bic.w	r5, r6, r5
 8002680:	fa00 f303 	lsl.w	r3, r0, r3
 8002684:	432b      	orrs	r3, r5
 8002686:	6313      	str	r3, [r2, #48]	@ 0x30
 8002688:	e7d8      	b.n	800263c <HAL_ADC_ConfigChannel+0x38>
 800268a:	6ad6      	ldr	r6, [r2, #44]	@ 0x2c
 800268c:	3b41      	subs	r3, #65	@ 0x41
 800268e:	409d      	lsls	r5, r3
 8002690:	ea26 0505 	bic.w	r5, r6, r5
 8002694:	fa00 f303 	lsl.w	r3, r0, r3
 8002698:	432b      	orrs	r3, r5
 800269a:	62d3      	str	r3, [r2, #44]	@ 0x2c
 800269c:	e7ce      	b.n	800263c <HAL_ADC_ConfigChannel+0x38>
 800269e:	6910      	ldr	r0, [r2, #16]
 80026a0:	40a9      	lsls	r1, r5
 80026a2:	ea20 0101 	bic.w	r1, r0, r1
 80026a6:	40ab      	lsls	r3, r5
 80026a8:	430b      	orrs	r3, r1
 80026aa:	6113      	str	r3, [r2, #16]
 80026ac:	e7d9      	b.n	8002662 <HAL_ADC_ConfigChannel+0x5e>
 80026ae:	4b11      	ldr	r3, [pc, #68]	@ (80026f4 <HAL_ADC_ConfigChannel+0xf0>)
 80026b0:	429a      	cmp	r2, r3
 80026b2:	d116      	bne.n	80026e2 <HAL_ADC_ConfigChannel+0xde>
 80026b4:	6893      	ldr	r3, [r2, #8]
 80026b6:	021b      	lsls	r3, r3, #8
 80026b8:	d4d3      	bmi.n	8002662 <HAL_ADC_ConfigChannel+0x5e>
 80026ba:	6893      	ldr	r3, [r2, #8]
 80026bc:	2810      	cmp	r0, #16
 80026be:	f443 0300 	orr.w	r3, r3, #8388608	@ 0x800000
 80026c2:	6093      	str	r3, [r2, #8]
 80026c4:	d1cd      	bne.n	8002662 <HAL_ADC_ConfigChannel+0x5e>
 80026c6:	4b0c      	ldr	r3, [pc, #48]	@ (80026f8 <HAL_ADC_ConfigChannel+0xf4>)
 80026c8:	4a0c      	ldr	r2, [pc, #48]	@ (80026fc <HAL_ADC_ConfigChannel+0xf8>)
 80026ca:	681b      	ldr	r3, [r3, #0]
 80026cc:	fbb3 f3f2 	udiv	r3, r3, r2
 80026d0:	220a      	movs	r2, #10
 80026d2:	4353      	muls	r3, r2
 80026d4:	9301      	str	r3, [sp, #4]
 80026d6:	9b01      	ldr	r3, [sp, #4]
 80026d8:	2b00      	cmp	r3, #0
 80026da:	d0c2      	beq.n	8002662 <HAL_ADC_ConfigChannel+0x5e>
 80026dc:	9b01      	ldr	r3, [sp, #4]
 80026de:	3b01      	subs	r3, #1
 80026e0:	e7f8      	b.n	80026d4 <HAL_ADC_ConfigChannel+0xd0>
 80026e2:	6aa3      	ldr	r3, [r4, #40]	@ 0x28
 80026e4:	2001      	movs	r0, #1
 80026e6:	f043 0320 	orr.w	r3, r3, #32
 80026ea:	62a3      	str	r3, [r4, #40]	@ 0x28
 80026ec:	e7ba      	b.n	8002664 <HAL_ADC_ConfigChannel+0x60>
 80026ee:	2002      	movs	r0, #2
 80026f0:	e7bb      	b.n	800266a <HAL_ADC_ConfigChannel+0x66>
 80026f2:	bf00      	nop
 80026f4:	40012400 	.word	0x40012400
 80026f8:	20000004 	.word	0x20000004
 80026fc:	000f4240 	.word	0x000f4240

08002700 <ADC_Enable>:
 8002700:	2300      	movs	r3, #0
 8002702:	b537      	push	{r0, r1, r2, r4, r5, lr}
 8002704:	9301      	str	r3, [sp, #4]
 8002706:	6803      	ldr	r3, [r0, #0]
 8002708:	4604      	mov	r4, r0
 800270a:	689a      	ldr	r2, [r3, #8]
 800270c:	07d2      	lsls	r2, r2, #31
 800270e:	d502      	bpl.n	8002716 <ADC_Enable+0x16>
 8002710:	2000      	movs	r0, #0
 8002712:	b003      	add	sp, #12
 8002714:	bd30      	pop	{r4, r5, pc}
 8002716:	689a      	ldr	r2, [r3, #8]
 8002718:	f042 0201 	orr.w	r2, r2, #1
 800271c:	609a      	str	r2, [r3, #8]
 800271e:	4b14      	ldr	r3, [pc, #80]	@ (8002770 <ADC_Enable+0x70>)
 8002720:	4a14      	ldr	r2, [pc, #80]	@ (8002774 <ADC_Enable+0x74>)
 8002722:	681b      	ldr	r3, [r3, #0]
 8002724:	fbb3 f3f2 	udiv	r3, r3, r2
 8002728:	9301      	str	r3, [sp, #4]
 800272a:	9b01      	ldr	r3, [sp, #4]
 800272c:	b9e3      	cbnz	r3, 8002768 <ADC_Enable+0x68>
 800272e:	f7ff febb 	bl	80024a8 <HAL_GetTick>
 8002732:	4605      	mov	r5, r0
 8002734:	6823      	ldr	r3, [r4, #0]
 8002736:	689b      	ldr	r3, [r3, #8]
 8002738:	07db      	lsls	r3, r3, #31
 800273a:	d4e9      	bmi.n	8002710 <ADC_Enable+0x10>
 800273c:	f7ff feb4 	bl	80024a8 <HAL_GetTick>
 8002740:	1b40      	subs	r0, r0, r5
 8002742:	2802      	cmp	r0, #2
 8002744:	d9f6      	bls.n	8002734 <ADC_Enable+0x34>
 8002746:	6823      	ldr	r3, [r4, #0]
 8002748:	689b      	ldr	r3, [r3, #8]
 800274a:	f013 0301 	ands.w	r3, r3, #1
 800274e:	d1f1      	bne.n	8002734 <ADC_Enable+0x34>
 8002750:	6aa2      	ldr	r2, [r4, #40]	@ 0x28
 8002752:	2001      	movs	r0, #1
 8002754:	f042 0210 	orr.w	r2, r2, #16
 8002758:	62a2      	str	r2, [r4, #40]	@ 0x28
 800275a:	6ae2      	ldr	r2, [r4, #44]	@ 0x2c
 800275c:	f884 3024 	strb.w	r3, [r4, #36]	@ 0x24
 8002760:	f042 0201 	orr.w	r2, r2, #1
 8002764:	62e2      	str	r2, [r4, #44]	@ 0x2c
 8002766:	e7d4      	b.n	8002712 <ADC_Enable+0x12>
 8002768:	9b01      	ldr	r3, [sp, #4]
 800276a:	3b01      	subs	r3, #1
 800276c:	e7dc      	b.n	8002728 <ADC_Enable+0x28>
 800276e:	bf00      	nop
 8002770:	20000004 	.word	0x20000004
 8002774:	000f4240 	.word	0x000f4240

08002778 <HAL_ADC_Start>:
 8002778:	b510      	push	{r4, lr}
 800277a:	f890 3024 	ldrb.w	r3, [r0, #36]	@ 0x24
 800277e:	4604      	mov	r4, r0
 8002780:	2b01      	cmp	r3, #1
 8002782:	d054      	beq.n	800282e <HAL_ADC_Start+0xb6>
 8002784:	2301      	movs	r3, #1
 8002786:	f880 3024 	strb.w	r3, [r0, #36]	@ 0x24
 800278a:	f7ff ffb9 	bl	8002700 <ADC_Enable>
 800278e:	2800      	cmp	r0, #0
 8002790:	d149      	bne.n	8002826 <HAL_ADC_Start+0xae>
 8002792:	6aa3      	ldr	r3, [r4, #40]	@ 0x28
 8002794:	4a27      	ldr	r2, [pc, #156]	@ (8002834 <HAL_ADC_Start+0xbc>)
 8002796:	f423 7340 	bic.w	r3, r3, #768	@ 0x300
 800279a:	f023 0301 	bic.w	r3, r3, #1
 800279e:	f443 7380 	orr.w	r3, r3, #256	@ 0x100
 80027a2:	62a3      	str	r3, [r4, #40]	@ 0x28
 80027a4:	6823      	ldr	r3, [r4, #0]
 80027a6:	4293      	cmp	r3, r2
 80027a8:	d104      	bne.n	80027b4 <HAL_ADC_Start+0x3c>
 80027aa:	4923      	ldr	r1, [pc, #140]	@ (8002838 <HAL_ADC_Start+0xc0>)
 80027ac:	684a      	ldr	r2, [r1, #4]
 80027ae:	f412 2f70 	tst.w	r2, #983040	@ 0xf0000
 80027b2:	d12e      	bne.n	8002812 <HAL_ADC_Start+0x9a>
 80027b4:	6aa2      	ldr	r2, [r4, #40]	@ 0x28
 80027b6:	f422 1280 	bic.w	r2, r2, #1048576	@ 0x100000
 80027ba:	62a2      	str	r2, [r4, #40]	@ 0x28
 80027bc:	685a      	ldr	r2, [r3, #4]
 80027be:	0552      	lsls	r2, r2, #21
 80027c0:	bf41      	itttt	mi
 80027c2:	6aa2      	ldrmi	r2, [r4, #40]	@ 0x28
 80027c4:	f422 5240 	bicmi.w	r2, r2, #12288	@ 0x3000
 80027c8:	f442 5280 	orrmi.w	r2, r2, #4096	@ 0x1000
 80027cc:	62a2      	strmi	r2, [r4, #40]	@ 0x28
 80027ce:	6aa2      	ldr	r2, [r4, #40]	@ 0x28
 80027d0:	f412 5280 	ands.w	r2, r2, #4096	@ 0x1000
 80027d4:	bf1c      	itt	ne
 80027d6:	6ae2      	ldrne	r2, [r4, #44]	@ 0x2c
 80027d8:	f022 0206 	bicne.w	r2, r2, #6
 80027dc:	62e2      	str	r2, [r4, #44]	@ 0x2c
 80027de:	2200      	movs	r2, #0
 80027e0:	f884 2024 	strb.w	r2, [r4, #36]	@ 0x24
 80027e4:	f06f 0202 	mvn.w	r2, #2
 80027e8:	601a      	str	r2, [r3, #0]
 80027ea:	689a      	ldr	r2, [r3, #8]
 80027ec:	f402 2260 	and.w	r2, r2, #917504	@ 0xe0000
 80027f0:	f5b2 2f60 	cmp.w	r2, #917504	@ 0xe0000
 80027f4:	d113      	bne.n	800281e <HAL_ADC_Start+0xa6>
 80027f6:	4a0f      	ldr	r2, [pc, #60]	@ (8002834 <HAL_ADC_Start+0xbc>)
 80027f8:	4293      	cmp	r3, r2
 80027fa:	d105      	bne.n	8002808 <HAL_ADC_Start+0x90>
 80027fc:	f5a2 6280 	sub.w	r2, r2, #1024	@ 0x400
 8002800:	6852      	ldr	r2, [r2, #4]
 8002802:	f412 2f70 	tst.w	r2, #983040	@ 0xf0000
 8002806:	d10a      	bne.n	800281e <HAL_ADC_Start+0xa6>
 8002808:	689a      	ldr	r2, [r3, #8]
 800280a:	f442 02a0 	orr.w	r2, r2, #5242880	@ 0x500000
 800280e:	609a      	str	r2, [r3, #8]
 8002810:	bd10      	pop	{r4, pc}
 8002812:	6aa2      	ldr	r2, [r4, #40]	@ 0x28
 8002814:	f442 1280 	orr.w	r2, r2, #1048576	@ 0x100000
 8002818:	62a2      	str	r2, [r4, #40]	@ 0x28
 800281a:	684a      	ldr	r2, [r1, #4]
 800281c:	e7cf      	b.n	80027be <HAL_ADC_Start+0x46>
 800281e:	689a      	ldr	r2, [r3, #8]
 8002820:	f442 1280 	orr.w	r2, r2, #1048576	@ 0x100000
 8002824:	e7f3      	b.n	800280e <HAL_ADC_Start+0x96>
 8002826:	2300      	movs	r3, #0
 8002828:	f884 3024 	strb.w	r3, [r4, #36]	@ 0x24
 800282c:	e7f0      	b.n	8002810 <HAL_ADC_Start+0x98>
 800282e:	2002      	movs	r0, #2
 8002830:	e7ee      	b.n	8002810 <HAL_ADC_Start+0x98>
 8002832:	bf00      	nop
 8002834:	40012800 	.word	0x40012800
 8002838:	40012400 	.word	0x40012400

0800283c <ADC_ConversionStop_Disable>:
 800283c:	b538      	push	{r3, r4, r5, lr}
 800283e:	6803      	ldr	r3, [r0, #0]
 8002840:	4604      	mov	r4, r0
 8002842:	689a      	ldr	r2, [r3, #8]
 8002844:	07d1      	lsls	r1, r2, #31
 8002846:	d401      	bmi.n	800284c <ADC_ConversionStop_Disable+0x10>
 8002848:	2000      	movs	r0, #0
 800284a:	bd38      	pop	{r3, r4, r5, pc}
 800284c:	689a      	ldr	r2, [r3, #8]
 800284e:	f022 0201 	bic.w	r2, r2, #1
 8002852:	609a      	str	r2, [r3, #8]
 8002854:	f7ff fe28 	bl	80024a8 <HAL_GetTick>
 8002858:	4605      	mov	r5, r0
 800285a:	6823      	ldr	r3, [r4, #0]
 800285c:	689b      	ldr	r3, [r3, #8]
 800285e:	07db      	lsls	r3, r3, #31
 8002860:	d5f2      	bpl.n	8002848 <ADC_ConversionStop_Disable+0xc>
 8002862:	f7ff fe21 	bl	80024a8 <HAL_GetTick>
 8002866:	1b40      	subs	r0, r0, r5
 8002868:	2802      	cmp	r0, #2
 800286a:	d9f6      	bls.n	800285a <ADC_ConversionStop_Disable+0x1e>
 800286c:	6823      	ldr	r3, [r4, #0]
 800286e:	689b      	ldr	r3, [r3, #8]
 8002870:	07da      	lsls	r2, r3, #31
 8002872:	d5f2      	bpl.n	800285a <ADC_ConversionStop_Disable+0x1e>
 8002874:	6aa3      	ldr	r3, [r4, #40]	@ 0x28
 8002876:	2001      	movs	r0, #1
 8002878:	f043 0310 	orr.w	r3, r3, #16
 800287c:	62a3      	str	r3, [r4, #40]	@ 0x28
 800287e:	6ae3      	ldr	r3, [r4, #44]	@ 0x2c
 8002880:	f043 0301 	orr.w	r3, r3, #1
 8002884:	62e3      	str	r3, [r4, #44]	@ 0x2c
 8002886:	e7e0      	b.n	800284a <ADC_ConversionStop_Disable+0xe>

08002888 <HAL_ADC_Init>:
 8002888:	b5f8      	push	{r3, r4, r5, r6, r7, lr}
 800288a:	4604      	mov	r4, r0
 800288c:	2800      	cmp	r0, #0
 800288e:	d06d      	beq.n	800296c <HAL_ADC_Init+0xe4>
 8002890:	6a83      	ldr	r3, [r0, #40]	@ 0x28
 8002892:	b923      	cbnz	r3, 800289e <HAL_ADC_Init+0x16>
 8002894:	62c3      	str	r3, [r0, #44]	@ 0x2c
 8002896:	f880 3024 	strb.w	r3, [r0, #36]	@ 0x24
 800289a:	f7ff fbfd 	bl	8002098 <HAL_ADC_MspInit>
 800289e:	4620      	mov	r0, r4
 80028a0:	f7ff ffcc 	bl	800283c <ADC_ConversionStop_Disable>
 80028a4:	6aa3      	ldr	r3, [r4, #40]	@ 0x28
 80028a6:	f013 0310 	ands.w	r3, r3, #16
 80028aa:	d161      	bne.n	8002970 <HAL_ADC_Init+0xe8>
 80028ac:	2800      	cmp	r0, #0
 80028ae:	d15f      	bne.n	8002970 <HAL_ADC_Init+0xe8>
 80028b0:	6aa2      	ldr	r2, [r4, #40]	@ 0x28
 80028b2:	6861      	ldr	r1, [r4, #4]
 80028b4:	f422 5288 	bic.w	r2, r2, #4352	@ 0x1100
 80028b8:	f022 0202 	bic.w	r2, r2, #2
 80028bc:	f042 0202 	orr.w	r2, r2, #2
 80028c0:	69e5      	ldr	r5, [r4, #28]
 80028c2:	68a6      	ldr	r6, [r4, #8]
 80028c4:	62a2      	str	r2, [r4, #40]	@ 0x28
 80028c6:	7b22      	ldrb	r2, [r4, #12]
 80028c8:	4329      	orrs	r1, r5
 80028ca:	f5b6 7f80 	cmp.w	r6, #256	@ 0x100
 80028ce:	ea41 0142 	orr.w	r1, r1, r2, lsl #1
 80028d2:	d036      	beq.n	8002942 <HAL_ADC_Init+0xba>
 80028d4:	1e77      	subs	r7, r6, #1
 80028d6:	427d      	negs	r5, r7
 80028d8:	417d      	adcs	r5, r7
 80028da:	022d      	lsls	r5, r5, #8
 80028dc:	7d27      	ldrb	r7, [r4, #20]
 80028de:	2f01      	cmp	r7, #1
 80028e0:	d106      	bne.n	80028f0 <HAL_ADC_Init+0x68>
 80028e2:	bb82      	cbnz	r2, 8002946 <HAL_ADC_Init+0xbe>
 80028e4:	69a2      	ldr	r2, [r4, #24]
 80028e6:	3a01      	subs	r2, #1
 80028e8:	ea45 3242 	orr.w	r2, r5, r2, lsl #13
 80028ec:	f442 6500 	orr.w	r5, r2, #2048	@ 0x800
 80028f0:	6822      	ldr	r2, [r4, #0]
 80028f2:	f5b6 7f80 	cmp.w	r6, #256	@ 0x100
 80028f6:	6857      	ldr	r7, [r2, #4]
 80028f8:	f427 4769 	bic.w	r7, r7, #59648	@ 0xe900
 80028fc:	ea45 0507 	orr.w	r5, r5, r7
 8002900:	6055      	str	r5, [r2, #4]
 8002902:	6897      	ldr	r7, [r2, #8]
 8002904:	4d1d      	ldr	r5, [pc, #116]	@ (800297c <HAL_ADC_Init+0xf4>)
 8002906:	ea05 0507 	and.w	r5, r5, r7
 800290a:	ea45 0501 	orr.w	r5, r5, r1
 800290e:	6095      	str	r5, [r2, #8]
 8002910:	d001      	beq.n	8002916 <HAL_ADC_Init+0x8e>
 8002912:	2e01      	cmp	r6, #1
 8002914:	d102      	bne.n	800291c <HAL_ADC_Init+0x94>
 8002916:	6923      	ldr	r3, [r4, #16]
 8002918:	3b01      	subs	r3, #1
 800291a:	051b      	lsls	r3, r3, #20
 800291c:	6ad5      	ldr	r5, [r2, #44]	@ 0x2c
 800291e:	f425 0570 	bic.w	r5, r5, #15728640	@ 0xf00000
 8002922:	432b      	orrs	r3, r5
 8002924:	62d3      	str	r3, [r2, #44]	@ 0x2c
 8002926:	6892      	ldr	r2, [r2, #8]
 8002928:	4b15      	ldr	r3, [pc, #84]	@ (8002980 <HAL_ADC_Init+0xf8>)
 800292a:	4013      	ands	r3, r2
 800292c:	4299      	cmp	r1, r3
 800292e:	d113      	bne.n	8002958 <HAL_ADC_Init+0xd0>
 8002930:	2300      	movs	r3, #0
 8002932:	62e3      	str	r3, [r4, #44]	@ 0x2c
 8002934:	6aa3      	ldr	r3, [r4, #40]	@ 0x28
 8002936:	f023 0303 	bic.w	r3, r3, #3
 800293a:	f043 0301 	orr.w	r3, r3, #1
 800293e:	62a3      	str	r3, [r4, #40]	@ 0x28
 8002940:	bdf8      	pop	{r3, r4, r5, r6, r7, pc}
 8002942:	4635      	mov	r5, r6
 8002944:	e7ca      	b.n	80028dc <HAL_ADC_Init+0x54>
 8002946:	6aa2      	ldr	r2, [r4, #40]	@ 0x28
 8002948:	f042 0220 	orr.w	r2, r2, #32
 800294c:	62a2      	str	r2, [r4, #40]	@ 0x28
 800294e:	6ae2      	ldr	r2, [r4, #44]	@ 0x2c
 8002950:	f042 0201 	orr.w	r2, r2, #1
 8002954:	62e2      	str	r2, [r4, #44]	@ 0x2c
 8002956:	e7cb      	b.n	80028f0 <HAL_ADC_Init+0x68>
 8002958:	6aa3      	ldr	r3, [r4, #40]	@ 0x28
 800295a:	f023 0312 	bic.w	r3, r3, #18
 800295e:	f043 0310 	orr.w	r3, r3, #16
 8002962:	62a3      	str	r3, [r4, #40]	@ 0x28
 8002964:	6ae3      	ldr	r3, [r4, #44]	@ 0x2c
 8002966:	f043 0301 	orr.w	r3, r3, #1
 800296a:	62e3      	str	r3, [r4, #44]	@ 0x2c
 800296c:	2001      	movs	r0, #1
 800296e:	e7e7      	b.n	8002940 <HAL_ADC_Init+0xb8>
 8002970:	6aa3      	ldr	r3, [r4, #40]	@ 0x28
 8002972:	f043 0310 	orr.w	r3, r3, #16
 8002976:	62a3      	str	r3, [r4, #40]	@ 0x28
 8002978:	e7f8      	b.n	800296c <HAL_ADC_Init+0xe4>
 800297a:	bf00      	nop
 800297c:	ffe1f7fd 	.word	0xffe1f7fd
 8002980:	ff1f0efe 	.word	0xff1f0efe

08002984 <HAL_ADC_Stop>:
 8002984:	b510      	push	{r4, lr}
 8002986:	f890 3024 	ldrb.w	r3, [r0, #36]	@ 0x24
 800298a:	4604      	mov	r4, r0
 800298c:	2b01      	cmp	r3, #1
 800298e:	d011      	beq.n	80029b4 <HAL_ADC_Stop+0x30>
 8002990:	2301      	movs	r3, #1
 8002992:	f880 3024 	strb.w	r3, [r0, #36]	@ 0x24
 8002996:	f7ff ff51 	bl	800283c <ADC_ConversionStop_Disable>
 800299a:	b938      	cbnz	r0, 80029ac <HAL_ADC_Stop+0x28>
 800299c:	6aa3      	ldr	r3, [r4, #40]	@ 0x28
 800299e:	f423 5388 	bic.w	r3, r3, #4352	@ 0x1100
 80029a2:	f023 0301 	bic.w	r3, r3, #1
 80029a6:	f043 0301 	orr.w	r3, r3, #1
 80029aa:	62a3      	str	r3, [r4, #40]	@ 0x28
 80029ac:	2300      	movs	r3, #0
 80029ae:	f884 3024 	strb.w	r3, [r4, #36]	@ 0x24
 80029b2:	bd10      	pop	{r4, pc}
 80029b4:	2002      	movs	r0, #2
 80029b6:	e7fc      	b.n	80029b2 <HAL_ADC_Stop+0x2e>

080029b8 <HAL_NVIC_SetPriorityGrouping>:
 80029b8:	4907      	ldr	r1, [pc, #28]	@ (80029d8 <HAL_NVIC_SetPriorityGrouping+0x20>)
 80029ba:	0203      	lsls	r3, r0, #8
 80029bc:	68ca      	ldr	r2, [r1, #12]
 80029be:	f403 63e0 	and.w	r3, r3, #1792	@ 0x700
 80029c2:	f422 62e0 	bic.w	r2, r2, #1792	@ 0x700
 80029c6:	0412      	lsls	r2, r2, #16
 80029c8:	0c12      	lsrs	r2, r2, #16
 80029ca:	4313      	orrs	r3, r2
 80029cc:	f043 63bf 	orr.w	r3, r3, #100139008	@ 0x5f80000
 80029d0:	f443 3300 	orr.w	r3, r3, #131072	@ 0x20000
 80029d4:	60cb      	str	r3, [r1, #12]
 80029d6:	4770      	bx	lr
 80029d8:	e000ed00 	.word	0xe000ed00

080029dc <HAL_NVIC_SetPriority>:
 80029dc:	4b15      	ldr	r3, [pc, #84]	@ (8002a34 <HAL_NVIC_SetPriority+0x58>)
 80029de:	b530      	push	{r4, r5, lr}
 80029e0:	68dc      	ldr	r4, [r3, #12]
 80029e2:	f3c4 2402 	ubfx	r4, r4, #8, #3
 80029e6:	f1c4 0307 	rsb	r3, r4, #7
 80029ea:	1d25      	adds	r5, r4, #4
 80029ec:	2b04      	cmp	r3, #4
 80029ee:	bf28      	it	cs
 80029f0:	2304      	movcs	r3, #4
 80029f2:	2d06      	cmp	r5, #6
 80029f4:	f04f 35ff 	mov.w	r5, #4294967295
 80029f8:	bf94      	ite	ls
 80029fa:	2400      	movls	r4, #0
 80029fc:	3c03      	subhi	r4, #3
 80029fe:	fa05 f303 	lsl.w	r3, r5, r3
 8002a02:	ea21 0303 	bic.w	r3, r1, r3
 8002a06:	40a5      	lsls	r5, r4
 8002a08:	ea22 0205 	bic.w	r2, r2, r5
 8002a0c:	40a3      	lsls	r3, r4
 8002a0e:	2800      	cmp	r0, #0
 8002a10:	ea43 0302 	orr.w	r3, r3, r2
 8002a14:	bfac      	ite	ge
 8002a16:	f100 4060 	addge.w	r0, r0, #3758096384	@ 0xe0000000
 8002a1a:	4a07      	ldrlt	r2, [pc, #28]	@ (8002a38 <HAL_NVIC_SetPriority+0x5c>)
 8002a1c:	ea4f 1303 	mov.w	r3, r3, lsl #4
 8002a20:	b2db      	uxtb	r3, r3
 8002a22:	bfab      	itete	ge
 8002a24:	f500 4061 	addge.w	r0, r0, #57600	@ 0xe100
 8002a28:	f000 000f 	andlt.w	r0, r0, #15
 8002a2c:	f880 3300 	strbge.w	r3, [r0, #768]	@ 0x300
 8002a30:	5413      	strblt	r3, [r2, r0]
 8002a32:	bd30      	pop	{r4, r5, pc}
 8002a34:	e000ed00 	.word	0xe000ed00
 8002a38:	e000ed14 	.word	0xe000ed14

08002a3c <HAL_NVIC_EnableIRQ>:
 8002a3c:	2800      	cmp	r0, #0
 8002a3e:	db07      	blt.n	8002a50 <HAL_NVIC_EnableIRQ+0x14>
 8002a40:	2301      	movs	r3, #1
 8002a42:	0941      	lsrs	r1, r0, #5
 8002a44:	4a03      	ldr	r2, [pc, #12]	@ (8002a54 <HAL_NVIC_EnableIRQ+0x18>)
 8002a46:	f000 001f 	and.w	r0, r0, #31
 8002a4a:	4083      	lsls	r3, r0
 8002a4c:	f842 3021 	str.w	r3, [r2, r1, lsl #2]
 8002a50:	4770      	bx	lr
 8002a52:	bf00      	nop
 8002a54:	e000e100 	.word	0xe000e100

08002a58 <HAL_NVIC_DisableIRQ>:
 8002a58:	2800      	cmp	r0, #0
 8002a5a:	db0c      	blt.n	8002a76 <HAL_NVIC_DisableIRQ+0x1e>
 8002a5c:	2201      	movs	r2, #1
 8002a5e:	4906      	ldr	r1, [pc, #24]	@ (8002a78 <HAL_NVIC_DisableIRQ+0x20>)
 8002a60:	0943      	lsrs	r3, r0, #5
 8002a62:	f000 001f 	and.w	r0, r0, #31
 8002a66:	4082      	lsls	r2, r0
 8002a68:	3320      	adds	r3, #32
 8002a6a:	f841 2023 	str.w	r2, [r1, r3, lsl #2]
 8002a6e:	f3bf 8f4f 	dsb	sy
 8002a72:	f3bf 8f6f 	isb	sy
 8002a76:	4770      	bx	lr
 8002a78:	e000e100 	.word	0xe000e100

08002a7c <HAL_SYSTICK_Config>:
 8002a7c:	3801      	subs	r0, #1
 8002a7e:	f1b0 7f80 	cmp.w	r0, #16777216	@ 0x1000000
 8002a82:	d20b      	bcs.n	8002a9c <HAL_SYSTICK_Config+0x20>
 8002a84:	f04f 23e0 	mov.w	r3, #3758153728	@ 0xe000e000
 8002a88:	21f0      	movs	r1, #240	@ 0xf0
 8002a8a:	4a05      	ldr	r2, [pc, #20]	@ (8002aa0 <HAL_SYSTICK_Config+0x24>)
 8002a8c:	6158      	str	r0, [r3, #20]
 8002a8e:	f882 1023 	strb.w	r1, [r2, #35]	@ 0x23
 8002a92:	2000      	movs	r0, #0
 8002a94:	2207      	movs	r2, #7
 8002a96:	6198      	str	r0, [r3, #24]
 8002a98:	611a      	str	r2, [r3, #16]
 8002a9a:	4770      	bx	lr
 8002a9c:	2001      	movs	r0, #1
 8002a9e:	4770      	bx	lr
 8002aa0:	e000ed00 	.word	0xe000ed00

08002aa4 <HAL_DMA_Abort>:
 8002aa4:	f890 2021 	ldrb.w	r2, [r0, #33]	@ 0x21
 8002aa8:	4603      	mov	r3, r0
 8002aaa:	2a02      	cmp	r2, #2
 8002aac:	d006      	beq.n	8002abc <HAL_DMA_Abort+0x18>
 8002aae:	2204      	movs	r2, #4
 8002ab0:	6382      	str	r2, [r0, #56]	@ 0x38
 8002ab2:	2001      	movs	r0, #1
 8002ab4:	2200      	movs	r2, #0
 8002ab6:	f883 2020 	strb.w	r2, [r3, #32]
 8002aba:	4770      	bx	lr
 8002abc:	6802      	ldr	r2, [r0, #0]
 8002abe:	6bc0      	ldr	r0, [r0, #60]	@ 0x3c
 8002ac0:	6811      	ldr	r1, [r2, #0]
 8002ac2:	f021 010e 	bic.w	r1, r1, #14
 8002ac6:	6011      	str	r1, [r2, #0]
 8002ac8:	6811      	ldr	r1, [r2, #0]
 8002aca:	f021 0101 	bic.w	r1, r1, #1
 8002ace:	6011      	str	r1, [r2, #0]
 8002ad0:	2101      	movs	r1, #1
 8002ad2:	6c1a      	ldr	r2, [r3, #64]	@ 0x40
 8002ad4:	fa01 f202 	lsl.w	r2, r1, r2
 8002ad8:	6042      	str	r2, [r0, #4]
 8002ada:	2000      	movs	r0, #0
 8002adc:	f883 1021 	strb.w	r1, [r3, #33]	@ 0x21
 8002ae0:	e7e8      	b.n	8002ab4 <HAL_DMA_Abort+0x10>
	...

08002ae4 <HAL_DMA_Abort_IT>:
 8002ae4:	b508      	push	{r3, lr}
 8002ae6:	f890 3021 	ldrb.w	r3, [r0, #33]	@ 0x21
 8002aea:	2b02      	cmp	r3, #2
 8002aec:	d003      	beq.n	8002af6 <HAL_DMA_Abort_IT+0x12>
 8002aee:	2304      	movs	r3, #4
 8002af0:	6383      	str	r3, [r0, #56]	@ 0x38
 8002af2:	2001      	movs	r0, #1
 8002af4:	bd08      	pop	{r3, pc}
 8002af6:	6803      	ldr	r3, [r0, #0]
 8002af8:	681a      	ldr	r2, [r3, #0]
 8002afa:	f022 020e 	bic.w	r2, r2, #14
 8002afe:	601a      	str	r2, [r3, #0]
 8002b00:	681a      	ldr	r2, [r3, #0]
 8002b02:	f022 0201 	bic.w	r2, r2, #1
 8002b06:	601a      	str	r2, [r3, #0]
 8002b08:	4a17      	ldr	r2, [pc, #92]	@ (8002b68 <HAL_DMA_Abort_IT+0x84>)
 8002b0a:	4293      	cmp	r3, r2
 8002b0c:	d01f      	beq.n	8002b4e <HAL_DMA_Abort_IT+0x6a>
 8002b0e:	3214      	adds	r2, #20
 8002b10:	4293      	cmp	r3, r2
 8002b12:	d01e      	beq.n	8002b52 <HAL_DMA_Abort_IT+0x6e>
 8002b14:	3214      	adds	r2, #20
 8002b16:	4293      	cmp	r3, r2
 8002b18:	d01d      	beq.n	8002b56 <HAL_DMA_Abort_IT+0x72>
 8002b1a:	3214      	adds	r2, #20
 8002b1c:	4293      	cmp	r3, r2
 8002b1e:	d01d      	beq.n	8002b5c <HAL_DMA_Abort_IT+0x78>
 8002b20:	3214      	adds	r2, #20
 8002b22:	4293      	cmp	r3, r2
 8002b24:	d01d      	beq.n	8002b62 <HAL_DMA_Abort_IT+0x7e>
 8002b26:	3214      	adds	r2, #20
 8002b28:	4293      	cmp	r3, r2
 8002b2a:	bf14      	ite	ne
 8002b2c:	f04f 7380 	movne.w	r3, #16777216	@ 0x1000000
 8002b30:	f44f 1380 	moveq.w	r3, #1048576	@ 0x100000
 8002b34:	4a0d      	ldr	r2, [pc, #52]	@ (8002b6c <HAL_DMA_Abort_IT+0x88>)
 8002b36:	6053      	str	r3, [r2, #4]
 8002b38:	2301      	movs	r3, #1
 8002b3a:	f880 3021 	strb.w	r3, [r0, #33]	@ 0x21
 8002b3e:	2300      	movs	r3, #0
 8002b40:	f880 3020 	strb.w	r3, [r0, #32]
 8002b44:	6b43      	ldr	r3, [r0, #52]	@ 0x34
 8002b46:	b103      	cbz	r3, 8002b4a <HAL_DMA_Abort_IT+0x66>
 8002b48:	4798      	blx	r3
 8002b4a:	2000      	movs	r0, #0
 8002b4c:	e7d2      	b.n	8002af4 <HAL_DMA_Abort_IT+0x10>
 8002b4e:	2301      	movs	r3, #1
 8002b50:	e7f0      	b.n	8002b34 <HAL_DMA_Abort_IT+0x50>
 8002b52:	2310      	movs	r3, #16
 8002b54:	e7ee      	b.n	8002b34 <HAL_DMA_Abort_IT+0x50>
 8002b56:	f44f 7380 	mov.w	r3, #256	@ 0x100
 8002b5a:	e7eb      	b.n	8002b34 <HAL_DMA_Abort_IT+0x50>
 8002b5c:	f44f 5380 	mov.w	r3, #4096	@ 0x1000
 8002b60:	e7e8      	b.n	8002b34 <HAL_DMA_Abort_IT+0x50>
 8002b62:	f44f 3380 	mov.w	r3, #65536	@ 0x10000
 8002b66:	e7e5      	b.n	8002b34 <HAL_DMA_Abort_IT+0x50>
 8002b68:	40020008 	.word	0x40020008
 8002b6c:	40020000 	.word	0x40020000

08002b70 <HAL_DMA_GetState>:
 8002b70:	f890 0021 	ldrb.w	r0, [r0, #33]	@ 0x21
 8002b74:	4770      	bx	lr

08002b76 <HAL_DMA_GetError>:
 8002b76:	6b80      	ldr	r0, [r0, #56]	@ 0x38
 8002b78:	4770      	bx	lr
	...

08002b7c <HAL_GPIO_Init>:
 8002b7c:	e92d 4ff7 	stmdb	sp!, {r0, r1, r2, r4, r5, r6, r7, r8, r9, sl, fp, lr}
 8002b80:	2400      	movs	r4, #0
 8002b82:	f04f 0e0f 	mov.w	lr, #15
 8002b86:	4626      	mov	r6, r4
 8002b88:	f8df c184 	ldr.w	ip, [pc, #388]	@ 8002d10 <HAL_GPIO_Init+0x194>
 8002b8c:	4b61      	ldr	r3, [pc, #388]	@ (8002d14 <HAL_GPIO_Init+0x198>)
 8002b8e:	f100 0804 	add.w	r8, r0, #4
 8002b92:	680a      	ldr	r2, [r1, #0]
 8002b94:	fa32 f506 	lsrs.w	r5, r2, r6
 8002b98:	d102      	bne.n	8002ba0 <HAL_GPIO_Init+0x24>
 8002b9a:	b003      	add	sp, #12
 8002b9c:	e8bd 8ff0 	ldmia.w	sp!, {r4, r5, r6, r7, r8, r9, sl, fp, pc}
 8002ba0:	2501      	movs	r5, #1
 8002ba2:	fa05 f706 	lsl.w	r7, r5, r6
 8002ba6:	ea02 0507 	and.w	r5, r2, r7
 8002baa:	ea37 0202 	bics.w	r2, r7, r2
 8002bae:	d176      	bne.n	8002c9e <HAL_GPIO_Init+0x122>
 8002bb0:	684a      	ldr	r2, [r1, #4]
 8002bb2:	2a03      	cmp	r2, #3
 8002bb4:	d807      	bhi.n	8002bc6 <HAL_GPIO_Init+0x4a>
 8002bb6:	3a01      	subs	r2, #1
 8002bb8:	2a02      	cmp	r2, #2
 8002bba:	f200 8083 	bhi.w	8002cc4 <HAL_GPIO_Init+0x148>
 8002bbe:	e8df f002 	tbb	[pc, r2]
 8002bc2:	9691      	.short	0x9691
 8002bc4:	9c          	.byte	0x9c
 8002bc5:	00          	.byte	0x00
 8002bc6:	2a12      	cmp	r2, #18
 8002bc8:	f000 8094 	beq.w	8002cf4 <HAL_GPIO_Init+0x178>
 8002bcc:	d869      	bhi.n	8002ca2 <HAL_GPIO_Init+0x126>
 8002bce:	2a11      	cmp	r2, #17
 8002bd0:	f000 808a 	beq.w	8002ce8 <HAL_GPIO_Init+0x16c>
 8002bd4:	2dff      	cmp	r5, #255	@ 0xff
 8002bd6:	bf94      	ite	ls
 8002bd8:	4681      	movls	r9, r0
 8002bda:	46c1      	movhi	r9, r8
 8002bdc:	ea4f 0286 	mov.w	r2, r6, lsl #2
 8002be0:	f8d9 7000 	ldr.w	r7, [r9]
 8002be4:	bf88      	it	hi
 8002be6:	3a20      	subhi	r2, #32
 8002be8:	fa0e fa02 	lsl.w	sl, lr, r2
 8002bec:	ea27 070a 	bic.w	r7, r7, sl
 8002bf0:	fa04 f202 	lsl.w	r2, r4, r2
 8002bf4:	4317      	orrs	r7, r2
 8002bf6:	f8c9 7000 	str.w	r7, [r9]
 8002bfa:	f8d1 9004 	ldr.w	r9, [r1, #4]
 8002bfe:	f019 5f80 	tst.w	r9, #268435456	@ 0x10000000
 8002c02:	d04c      	beq.n	8002c9e <HAL_GPIO_Init+0x122>
 8002c04:	f8dc 2018 	ldr.w	r2, [ip, #24]
 8002c08:	f026 0703 	bic.w	r7, r6, #3
 8002c0c:	f042 0201 	orr.w	r2, r2, #1
 8002c10:	f8cc 2018 	str.w	r2, [ip, #24]
 8002c14:	f8dc 2018 	ldr.w	r2, [ip, #24]
 8002c18:	f107 4780 	add.w	r7, r7, #1073741824	@ 0x40000000
 8002c1c:	f002 0201 	and.w	r2, r2, #1
 8002c20:	9201      	str	r2, [sp, #4]
 8002c22:	f507 3780 	add.w	r7, r7, #65536	@ 0x10000
 8002c26:	f006 0a03 	and.w	sl, r6, #3
 8002c2a:	9a01      	ldr	r2, [sp, #4]
 8002c2c:	ea4f 0a8a 	mov.w	sl, sl, lsl #2
 8002c30:	68ba      	ldr	r2, [r7, #8]
 8002c32:	fa0e fb0a 	lsl.w	fp, lr, sl
 8002c36:	ea22 0b0b 	bic.w	fp, r2, fp
 8002c3a:	4a37      	ldr	r2, [pc, #220]	@ (8002d18 <HAL_GPIO_Init+0x19c>)
 8002c3c:	4290      	cmp	r0, r2
 8002c3e:	d060      	beq.n	8002d02 <HAL_GPIO_Init+0x186>
 8002c40:	f502 6280 	add.w	r2, r2, #1024	@ 0x400
 8002c44:	4290      	cmp	r0, r2
 8002c46:	d05e      	beq.n	8002d06 <HAL_GPIO_Init+0x18a>
 8002c48:	f502 6280 	add.w	r2, r2, #1024	@ 0x400
 8002c4c:	4290      	cmp	r0, r2
 8002c4e:	d05c      	beq.n	8002d0a <HAL_GPIO_Init+0x18e>
 8002c50:	f502 6280 	add.w	r2, r2, #1024	@ 0x400
 8002c54:	4290      	cmp	r0, r2
 8002c56:	bf14      	ite	ne
 8002c58:	2204      	movne	r2, #4
 8002c5a:	2203      	moveq	r2, #3
 8002c5c:	fa02 f20a 	lsl.w	r2, r2, sl
 8002c60:	ea42 020b 	orr.w	r2, r2, fp
 8002c64:	60ba      	str	r2, [r7, #8]
 8002c66:	689a      	ldr	r2, [r3, #8]
 8002c68:	f419 1f80 	tst.w	r9, #1048576	@ 0x100000
 8002c6c:	bf14      	ite	ne
 8002c6e:	432a      	orrne	r2, r5
 8002c70:	43aa      	biceq	r2, r5
 8002c72:	609a      	str	r2, [r3, #8]
 8002c74:	68da      	ldr	r2, [r3, #12]
 8002c76:	f419 1f00 	tst.w	r9, #2097152	@ 0x200000
 8002c7a:	bf14      	ite	ne
 8002c7c:	432a      	orrne	r2, r5
 8002c7e:	43aa      	biceq	r2, r5
 8002c80:	60da      	str	r2, [r3, #12]
 8002c82:	685a      	ldr	r2, [r3, #4]
 8002c84:	f419 3f00 	tst.w	r9, #131072	@ 0x20000
 8002c88:	bf14      	ite	ne
 8002c8a:	432a      	orrne	r2, r5
 8002c8c:	43aa      	biceq	r2, r5
 8002c8e:	605a      	str	r2, [r3, #4]
 8002c90:	681a      	ldr	r2, [r3, #0]
 8002c92:	f419 3f80 	tst.w	r9, #65536	@ 0x10000
 8002c96:	bf14      	ite	ne
 8002c98:	432a      	orrne	r2, r5
 8002c9a:	43aa      	biceq	r2, r5
 8002c9c:	601a      	str	r2, [r3, #0]
 8002c9e:	3601      	adds	r6, #1
 8002ca0:	e777      	b.n	8002b92 <HAL_GPIO_Init+0x16>
 8002ca2:	f8df 9078 	ldr.w	r9, [pc, #120]	@ 8002d1c <HAL_GPIO_Init+0x1a0>
 8002ca6:	454a      	cmp	r2, r9
 8002ca8:	d00c      	beq.n	8002cc4 <HAL_GPIO_Init+0x148>
 8002caa:	d814      	bhi.n	8002cd6 <HAL_GPIO_Init+0x15a>
 8002cac:	f5a9 1980 	sub.w	r9, r9, #1048576	@ 0x100000
 8002cb0:	454a      	cmp	r2, r9
 8002cb2:	d007      	beq.n	8002cc4 <HAL_GPIO_Init+0x148>
 8002cb4:	f509 2970 	add.w	r9, r9, #983040	@ 0xf0000
 8002cb8:	454a      	cmp	r2, r9
 8002cba:	d003      	beq.n	8002cc4 <HAL_GPIO_Init+0x148>
 8002cbc:	f5a9 1980 	sub.w	r9, r9, #1048576	@ 0x100000
 8002cc0:	454a      	cmp	r2, r9
 8002cc2:	d187      	bne.n	8002bd4 <HAL_GPIO_Init+0x58>
 8002cc4:	688a      	ldr	r2, [r1, #8]
 8002cc6:	b1d2      	cbz	r2, 8002cfe <HAL_GPIO_Init+0x182>
 8002cc8:	2a01      	cmp	r2, #1
 8002cca:	f04f 0408 	mov.w	r4, #8
 8002cce:	bf0c      	ite	eq
 8002cd0:	6107      	streq	r7, [r0, #16]
 8002cd2:	6147      	strne	r7, [r0, #20]
 8002cd4:	e77e      	b.n	8002bd4 <HAL_GPIO_Init+0x58>
 8002cd6:	f8df 9048 	ldr.w	r9, [pc, #72]	@ 8002d20 <HAL_GPIO_Init+0x1a4>
 8002cda:	454a      	cmp	r2, r9
 8002cdc:	d0f2      	beq.n	8002cc4 <HAL_GPIO_Init+0x148>
 8002cde:	f509 3980 	add.w	r9, r9, #65536	@ 0x10000
 8002ce2:	e7ed      	b.n	8002cc0 <HAL_GPIO_Init+0x144>
 8002ce4:	68cc      	ldr	r4, [r1, #12]
 8002ce6:	e775      	b.n	8002bd4 <HAL_GPIO_Init+0x58>
 8002ce8:	68cc      	ldr	r4, [r1, #12]
 8002cea:	3404      	adds	r4, #4
 8002cec:	e772      	b.n	8002bd4 <HAL_GPIO_Init+0x58>
 8002cee:	68cc      	ldr	r4, [r1, #12]
 8002cf0:	3408      	adds	r4, #8
 8002cf2:	e76f      	b.n	8002bd4 <HAL_GPIO_Init+0x58>
 8002cf4:	68cc      	ldr	r4, [r1, #12]
 8002cf6:	340c      	adds	r4, #12
 8002cf8:	e76c      	b.n	8002bd4 <HAL_GPIO_Init+0x58>
 8002cfa:	2400      	movs	r4, #0
 8002cfc:	e76a      	b.n	8002bd4 <HAL_GPIO_Init+0x58>
 8002cfe:	2404      	movs	r4, #4
 8002d00:	e768      	b.n	8002bd4 <HAL_GPIO_Init+0x58>
 8002d02:	2200      	movs	r2, #0
 8002d04:	e7aa      	b.n	8002c5c <HAL_GPIO_Init+0xe0>
 8002d06:	2201      	movs	r2, #1
 8002d08:	e7a8      	b.n	8002c5c <HAL_GPIO_Init+0xe0>
 8002d0a:	2202      	movs	r2, #2
 8002d0c:	e7a6      	b.n	8002c5c <HAL_GPIO_Init+0xe0>
 8002d0e:	bf00      	nop
 8002d10:	40021000 	.word	0x40021000
 8002d14:	40010400 	.word	0x40010400
 8002d18:	40010800 	.word	0x40010800
 8002d1c:	10220000 	.word	0x10220000
 8002d20:	10310000 	.word	0x10310000

08002d24 <HAL_GPIO_DeInit>:
 8002d24:	e92d 4ff7 	stmdb	sp!, {r0, r1, r2, r4, r5, r6, r7, r8, r9, sl, fp, lr}
 8002d28:	f04f 0b04 	mov.w	fp, #4
 8002d2c:	2200      	movs	r2, #0
 8002d2e:	f04f 0a01 	mov.w	sl, #1
 8002d32:	f04f 080f 	mov.w	r8, #15
 8002d36:	eb00 030b 	add.w	r3, r0, fp
 8002d3a:	9301      	str	r3, [sp, #4]
 8002d3c:	4b2e      	ldr	r3, [pc, #184]	@ (8002df8 <HAL_GPIO_DeInit+0xd4>)
 8002d3e:	fa31 f402 	lsrs.w	r4, r1, r2
 8002d42:	d102      	bne.n	8002d4a <HAL_GPIO_DeInit+0x26>
 8002d44:	b003      	add	sp, #12
 8002d46:	e8bd 8ff0 	ldmia.w	sp!, {r4, r5, r6, r7, r8, r9, sl, fp, pc}
 8002d4a:	fa0a f702 	lsl.w	r7, sl, r2
 8002d4e:	400f      	ands	r7, r1
 8002d50:	d049      	beq.n	8002de6 <HAL_GPIO_DeInit+0xc2>
 8002d52:	f022 0403 	bic.w	r4, r2, #3
 8002d56:	f104 4480 	add.w	r4, r4, #1073741824	@ 0x40000000
 8002d5a:	f504 3480 	add.w	r4, r4, #65536	@ 0x10000
 8002d5e:	f002 0c03 	and.w	ip, r2, #3
 8002d62:	68a5      	ldr	r5, [r4, #8]
 8002d64:	ea4f 0c8c 	mov.w	ip, ip, lsl #2
 8002d68:	fa08 f90c 	lsl.w	r9, r8, ip
 8002d6c:	ea09 0e05 	and.w	lr, r9, r5
 8002d70:	4d22      	ldr	r5, [pc, #136]	@ (8002dfc <HAL_GPIO_DeInit+0xd8>)
 8002d72:	42a8      	cmp	r0, r5
 8002d74:	d039      	beq.n	8002dea <HAL_GPIO_DeInit+0xc6>
 8002d76:	f505 6580 	add.w	r5, r5, #1024	@ 0x400
 8002d7a:	42a8      	cmp	r0, r5
 8002d7c:	d037      	beq.n	8002dee <HAL_GPIO_DeInit+0xca>
 8002d7e:	f505 6580 	add.w	r5, r5, #1024	@ 0x400
 8002d82:	42a8      	cmp	r0, r5
 8002d84:	d035      	beq.n	8002df2 <HAL_GPIO_DeInit+0xce>
 8002d86:	f505 6580 	add.w	r5, r5, #1024	@ 0x400
 8002d8a:	42a8      	cmp	r0, r5
 8002d8c:	bf14      	ite	ne
 8002d8e:	2504      	movne	r5, #4
 8002d90:	2503      	moveq	r5, #3
 8002d92:	fa05 f50c 	lsl.w	r5, r5, ip
 8002d96:	4575      	cmp	r5, lr
 8002d98:	ea6f 0607 	mvn.w	r6, r7
 8002d9c:	d10f      	bne.n	8002dbe <HAL_GPIO_DeInit+0x9a>
 8002d9e:	681d      	ldr	r5, [r3, #0]
 8002da0:	4035      	ands	r5, r6
 8002da2:	601d      	str	r5, [r3, #0]
 8002da4:	685d      	ldr	r5, [r3, #4]
 8002da6:	4035      	ands	r5, r6
 8002da8:	605d      	str	r5, [r3, #4]
 8002daa:	68dd      	ldr	r5, [r3, #12]
 8002dac:	4035      	ands	r5, r6
 8002dae:	60dd      	str	r5, [r3, #12]
 8002db0:	689d      	ldr	r5, [r3, #8]
 8002db2:	4035      	ands	r5, r6
 8002db4:	609d      	str	r5, [r3, #8]
 8002db6:	68a5      	ldr	r5, [r4, #8]
 8002db8:	ea25 0509 	bic.w	r5, r5, r9
 8002dbc:	60a5      	str	r5, [r4, #8]
 8002dbe:	2fff      	cmp	r7, #255	@ 0xff
 8002dc0:	bf94      	ite	ls
 8002dc2:	4607      	movls	r7, r0
 8002dc4:	9f01      	ldrhi	r7, [sp, #4]
 8002dc6:	ea4f 0482 	mov.w	r4, r2, lsl #2
 8002dca:	683d      	ldr	r5, [r7, #0]
 8002dcc:	bf88      	it	hi
 8002dce:	3c20      	subhi	r4, #32
 8002dd0:	fa08 fc04 	lsl.w	ip, r8, r4
 8002dd4:	ea25 050c 	bic.w	r5, r5, ip
 8002dd8:	fa0b f404 	lsl.w	r4, fp, r4
 8002ddc:	4325      	orrs	r5, r4
 8002dde:	603d      	str	r5, [r7, #0]
 8002de0:	68c4      	ldr	r4, [r0, #12]
 8002de2:	4034      	ands	r4, r6
 8002de4:	60c4      	str	r4, [r0, #12]
 8002de6:	3201      	adds	r2, #1
 8002de8:	e7a9      	b.n	8002d3e <HAL_GPIO_DeInit+0x1a>
 8002dea:	2500      	movs	r5, #0
 8002dec:	e7d1      	b.n	8002d92 <HAL_GPIO_DeInit+0x6e>
 8002dee:	2501      	movs	r5, #1
 8002df0:	e7cf      	b.n	8002d92 <HAL_GPIO_DeInit+0x6e>
 8002df2:	2502      	movs	r5, #2
 8002df4:	e7cd      	b.n	8002d92 <HAL_GPIO_DeInit+0x6e>
 8002df6:	bf00      	nop
 8002df8:	40010400 	.word	0x40010400
 8002dfc:	40010800 	.word	0x40010800

08002e00 <HAL_GPIO_WritePin>:
 8002e00:	b10a      	cbz	r2, 8002e06 <HAL_GPIO_WritePin+0x6>
 8002e02:	6101      	str	r1, [r0, #16]
 8002e04:	4770      	bx	lr
 8002e06:	0409      	lsls	r1, r1, #16
 8002e08:	e7fb      	b.n	8002e02 <HAL_GPIO_WritePin+0x2>

08002e0a <HAL_GPIO_TogglePin>:
 8002e0a:	68c3      	ldr	r3, [r0, #12]
 8002e0c:	ea01 0203 	and.w	r2, r1, r3
 8002e10:	ea21 0103 	bic.w	r1, r1, r3
 8002e14:	ea41 4102 	orr.w	r1, r1, r2, lsl #16
 8002e18:	6101      	str	r1, [r0, #16]
 8002e1a:	4770      	bx	lr

08002e1c <HAL_I2C_Init>:
 8002e1c:	b570      	push	{r4, r5, r6, lr}
 8002e1e:	4604      	mov	r4, r0
 8002e20:	b908      	cbnz	r0, 8002e26 <HAL_I2C_Init+0xa>
 8002e22:	2001      	movs	r0, #1
 8002e24:	bd70      	pop	{r4, r5, r6, pc}
 8002e26:	f890 303d 	ldrb.w	r3, [r0, #61]	@ 0x3d
 8002e2a:	f003 02ff 	and.w	r2, r3, #255	@ 0xff
 8002e2e:	b91b      	cbnz	r3, 8002e38 <HAL_I2C_Init+0x1c>
 8002e30:	f880 203c 	strb.w	r2, [r0, #60]	@ 0x3c
 8002e34:	f7ff f95e 	bl	80020f4 <HAL_I2C_MspInit>
 8002e38:	2324      	movs	r3, #36	@ 0x24
 8002e3a:	f884 303d 	strb.w	r3, [r4, #61]	@ 0x3d
 8002e3e:	6823      	ldr	r3, [r4, #0]
 8002e40:	681a      	ldr	r2, [r3, #0]
 8002e42:	f022 0201 	bic.w	r2, r2, #1
 8002e46:	601a      	str	r2, [r3, #0]
 8002e48:	681a      	ldr	r2, [r3, #0]
 8002e4a:	f442 4200 	orr.w	r2, r2, #32768	@ 0x8000
 8002e4e:	601a      	str	r2, [r3, #0]
 8002e50:	681a      	ldr	r2, [r3, #0]
 8002e52:	f422 4200 	bic.w	r2, r2, #32768	@ 0x8000
 8002e56:	601a      	str	r2, [r3, #0]
 8002e58:	f001 f948 	bl	80040ec <HAL_RCC_GetPCLK1Freq>
 8002e5c:	4b3f      	ldr	r3, [pc, #252]	@ (8002f5c <HAL_I2C_Init+0x140>)
 8002e5e:	6865      	ldr	r5, [r4, #4]
 8002e60:	429d      	cmp	r5, r3
 8002e62:	bf94      	ite	ls
 8002e64:	4b3e      	ldrls	r3, [pc, #248]	@ (8002f60 <HAL_I2C_Init+0x144>)
 8002e66:	4b3f      	ldrhi	r3, [pc, #252]	@ (8002f64 <HAL_I2C_Init+0x148>)
 8002e68:	4298      	cmp	r0, r3
 8002e6a:	bf8c      	ite	hi
 8002e6c:	2300      	movhi	r3, #0
 8002e6e:	2301      	movls	r3, #1
 8002e70:	2b00      	cmp	r3, #0
 8002e72:	d1d6      	bne.n	8002e22 <HAL_I2C_Init+0x6>
 8002e74:	4e39      	ldr	r6, [pc, #228]	@ (8002f5c <HAL_I2C_Init+0x140>)
 8002e76:	4b3c      	ldr	r3, [pc, #240]	@ (8002f68 <HAL_I2C_Init+0x14c>)
 8002e78:	42b5      	cmp	r5, r6
 8002e7a:	fbb0 f3f3 	udiv	r3, r0, r3
 8002e7e:	bf88      	it	hi
 8002e80:	f44f 7696 	movhi.w	r6, #300	@ 0x12c
 8002e84:	6822      	ldr	r2, [r4, #0]
 8002e86:	6851      	ldr	r1, [r2, #4]
 8002e88:	f021 013f 	bic.w	r1, r1, #63	@ 0x3f
 8002e8c:	ea41 0103 	orr.w	r1, r1, r3
 8002e90:	bf82      	ittt	hi
 8002e92:	4373      	mulhi	r3, r6
 8002e94:	f44f 767a 	movhi.w	r6, #1000	@ 0x3e8
 8002e98:	fbb3 f3f6 	udivhi	r3, r3, r6
 8002e9c:	6051      	str	r1, [r2, #4]
 8002e9e:	6a11      	ldr	r1, [r2, #32]
 8002ea0:	3301      	adds	r3, #1
 8002ea2:	f021 013f 	bic.w	r1, r1, #63	@ 0x3f
 8002ea6:	430b      	orrs	r3, r1
 8002ea8:	6213      	str	r3, [r2, #32]
 8002eaa:	69d1      	ldr	r1, [r2, #28]
 8002eac:	1e43      	subs	r3, r0, #1
 8002eae:	482b      	ldr	r0, [pc, #172]	@ (8002f5c <HAL_I2C_Init+0x140>)
 8002eb0:	f421 414f 	bic.w	r1, r1, #52992	@ 0xcf00
 8002eb4:	4285      	cmp	r5, r0
 8002eb6:	f021 01ff 	bic.w	r1, r1, #255	@ 0xff
 8002eba:	d832      	bhi.n	8002f22 <HAL_I2C_Init+0x106>
 8002ebc:	006d      	lsls	r5, r5, #1
 8002ebe:	fbb3 f3f5 	udiv	r3, r3, r5
 8002ec2:	f640 70fc 	movw	r0, #4092	@ 0xffc
 8002ec6:	3301      	adds	r3, #1
 8002ec8:	4203      	tst	r3, r0
 8002eca:	d042      	beq.n	8002f52 <HAL_I2C_Init+0x136>
 8002ecc:	f3c3 030b 	ubfx	r3, r3, #0, #12
 8002ed0:	4319      	orrs	r1, r3
 8002ed2:	61d1      	str	r1, [r2, #28]
 8002ed4:	6811      	ldr	r1, [r2, #0]
 8002ed6:	e9d4 3007 	ldrd	r3, r0, [r4, #28]
 8002eda:	f021 01c0 	bic.w	r1, r1, #192	@ 0xc0
 8002ede:	4303      	orrs	r3, r0
 8002ee0:	430b      	orrs	r3, r1
 8002ee2:	6013      	str	r3, [r2, #0]
 8002ee4:	6891      	ldr	r1, [r2, #8]
 8002ee6:	e9d4 0303 	ldrd	r0, r3, [r4, #12]
 8002eea:	f421 4103 	bic.w	r1, r1, #33536	@ 0x8300
 8002eee:	4303      	orrs	r3, r0
 8002ef0:	f021 01ff 	bic.w	r1, r1, #255	@ 0xff
 8002ef4:	430b      	orrs	r3, r1
 8002ef6:	6093      	str	r3, [r2, #8]
 8002ef8:	68d1      	ldr	r1, [r2, #12]
 8002efa:	e9d4 3005 	ldrd	r3, r0, [r4, #20]
 8002efe:	f021 01ff 	bic.w	r1, r1, #255	@ 0xff
 8002f02:	4303      	orrs	r3, r0
 8002f04:	430b      	orrs	r3, r1
 8002f06:	60d3      	str	r3, [r2, #12]
 8002f08:	6813      	ldr	r3, [r2, #0]
 8002f0a:	2000      	movs	r0, #0
 8002f0c:	f043 0301 	orr.w	r3, r3, #1
 8002f10:	6013      	str	r3, [r2, #0]
 8002f12:	2320      	movs	r3, #32
 8002f14:	6420      	str	r0, [r4, #64]	@ 0x40
 8002f16:	f884 303d 	strb.w	r3, [r4, #61]	@ 0x3d
 8002f1a:	6320      	str	r0, [r4, #48]	@ 0x30
 8002f1c:	f884 003e 	strb.w	r0, [r4, #62]	@ 0x3e
 8002f20:	e780      	b.n	8002e24 <HAL_I2C_Init+0x8>
 8002f22:	68a0      	ldr	r0, [r4, #8]
 8002f24:	b950      	cbnz	r0, 8002f3c <HAL_I2C_Init+0x120>
 8002f26:	eb05 0545 	add.w	r5, r5, r5, lsl #1
 8002f2a:	fbb3 f3f5 	udiv	r3, r3, r5
 8002f2e:	3301      	adds	r3, #1
 8002f30:	f3c3 030b 	ubfx	r3, r3, #0, #12
 8002f34:	b17b      	cbz	r3, 8002f56 <HAL_I2C_Init+0x13a>
 8002f36:	f443 4300 	orr.w	r3, r3, #32768	@ 0x8000
 8002f3a:	e7c9      	b.n	8002ed0 <HAL_I2C_Init+0xb4>
 8002f3c:	2019      	movs	r0, #25
 8002f3e:	4368      	muls	r0, r5
 8002f40:	fbb3 f3f0 	udiv	r3, r3, r0
 8002f44:	3301      	adds	r3, #1
 8002f46:	f3c3 030b 	ubfx	r3, r3, #0, #12
 8002f4a:	b123      	cbz	r3, 8002f56 <HAL_I2C_Init+0x13a>
 8002f4c:	f443 4340 	orr.w	r3, r3, #49152	@ 0xc000
 8002f50:	e7be      	b.n	8002ed0 <HAL_I2C_Init+0xb4>
 8002f52:	2304      	movs	r3, #4
 8002f54:	e7bc      	b.n	8002ed0 <HAL_I2C_Init+0xb4>
 8002f56:	2301      	movs	r3, #1
 8002f58:	e7ba      	b.n	8002ed0 <HAL_I2C_Init+0xb4>
 8002f5a:	bf00      	nop
 8002f5c:	000186a0 	.word	0x000186a0
 8002f60:	001e847f 	.word	0x001e847f
 8002f64:	003d08ff 	.word	0x003d08ff
 8002f68:	000f4240 	.word	0x000f4240

08002f6c <HAL_I2C_MasterTxCpltCallback>:
 8002f6c:	4770      	bx	lr

08002f6e <HAL_I2C_MasterRxCpltCallback>:
 8002f6e:	4770      	bx	lr

08002f70 <HAL_I2C_SlaveTxCpltCallback>:
 8002f70:	4770      	bx	lr

08002f72 <HAL_I2C_SlaveRxCpltCallback>:
 8002f72:	4770      	bx	lr

08002f74 <HAL_I2C_AddrCallback>:
 8002f74:	4770      	bx	lr

08002f76 <HAL_I2C_ListenCpltCallback>:
 8002f76:	4770      	bx	lr

08002f78 <HAL_I2C_MemTxCpltCallback>:
 8002f78:	4770      	bx	lr

08002f7a <I2C_MemoryTransmit_TXE_BTF>:
 8002f7a:	f890 203d 	ldrb.w	r2, [r0, #61]	@ 0x3d
 8002f7e:	b508      	push	{r3, lr}
 8002f80:	6d03      	ldr	r3, [r0, #80]	@ 0x50
 8002f82:	b2d2      	uxtb	r2, r2
 8002f84:	b983      	cbnz	r3, 8002fa8 <I2C_MemoryTransmit_TXE_BTF+0x2e>
 8002f86:	6cc3      	ldr	r3, [r0, #76]	@ 0x4c
 8002f88:	6802      	ldr	r2, [r0, #0]
 8002f8a:	2b01      	cmp	r3, #1
 8002f8c:	6c83      	ldr	r3, [r0, #72]	@ 0x48
 8002f8e:	d105      	bne.n	8002f9c <I2C_MemoryTransmit_TXE_BTF+0x22>
 8002f90:	b2db      	uxtb	r3, r3
 8002f92:	6113      	str	r3, [r2, #16]
 8002f94:	6d03      	ldr	r3, [r0, #80]	@ 0x50
 8002f96:	3302      	adds	r3, #2
 8002f98:	6503      	str	r3, [r0, #80]	@ 0x50
 8002f9a:	bd08      	pop	{r3, pc}
 8002f9c:	f3c3 2307 	ubfx	r3, r3, #8, #8
 8002fa0:	6113      	str	r3, [r2, #16]
 8002fa2:	6d03      	ldr	r3, [r0, #80]	@ 0x50
 8002fa4:	3301      	adds	r3, #1
 8002fa6:	e7f7      	b.n	8002f98 <I2C_MemoryTransmit_TXE_BTF+0x1e>
 8002fa8:	6d03      	ldr	r3, [r0, #80]	@ 0x50
 8002faa:	2b01      	cmp	r3, #1
 8002fac:	d103      	bne.n	8002fb6 <I2C_MemoryTransmit_TXE_BTF+0x3c>
 8002fae:	6c83      	ldr	r3, [r0, #72]	@ 0x48
 8002fb0:	6802      	ldr	r2, [r0, #0]
 8002fb2:	b2db      	uxtb	r3, r3
 8002fb4:	e7f4      	b.n	8002fa0 <I2C_MemoryTransmit_TXE_BTF+0x26>
 8002fb6:	6d03      	ldr	r3, [r0, #80]	@ 0x50
 8002fb8:	2b02      	cmp	r3, #2
 8002fba:	d12f      	bne.n	800301c <I2C_MemoryTransmit_TXE_BTF+0xa2>
 8002fbc:	2a22      	cmp	r2, #34	@ 0x22
 8002fbe:	d105      	bne.n	8002fcc <I2C_MemoryTransmit_TXE_BTF+0x52>
 8002fc0:	6802      	ldr	r2, [r0, #0]
 8002fc2:	6813      	ldr	r3, [r2, #0]
 8002fc4:	f443 7380 	orr.w	r3, r3, #256	@ 0x100
 8002fc8:	6013      	str	r3, [r2, #0]
 8002fca:	e7ea      	b.n	8002fa2 <I2C_MemoryTransmit_TXE_BTF+0x28>
 8002fcc:	8d43      	ldrh	r3, [r0, #42]	@ 0x2a
 8002fce:	b29b      	uxth	r3, r3
 8002fd0:	b163      	cbz	r3, 8002fec <I2C_MemoryTransmit_TXE_BTF+0x72>
 8002fd2:	2a21      	cmp	r2, #33	@ 0x21
 8002fd4:	d10a      	bne.n	8002fec <I2C_MemoryTransmit_TXE_BTF+0x72>
 8002fd6:	6a43      	ldr	r3, [r0, #36]	@ 0x24
 8002fd8:	6802      	ldr	r2, [r0, #0]
 8002fda:	f813 1b01 	ldrb.w	r1, [r3], #1
 8002fde:	6111      	str	r1, [r2, #16]
 8002fe0:	6243      	str	r3, [r0, #36]	@ 0x24
 8002fe2:	8d43      	ldrh	r3, [r0, #42]	@ 0x2a
 8002fe4:	3b01      	subs	r3, #1
 8002fe6:	b29b      	uxth	r3, r3
 8002fe8:	8543      	strh	r3, [r0, #42]	@ 0x2a
 8002fea:	e7d6      	b.n	8002f9a <I2C_MemoryTransmit_TXE_BTF+0x20>
 8002fec:	8d43      	ldrh	r3, [r0, #42]	@ 0x2a
 8002fee:	b29b      	uxth	r3, r3
 8002ff0:	2b00      	cmp	r3, #0
 8002ff2:	d1d2      	bne.n	8002f9a <I2C_MemoryTransmit_TXE_BTF+0x20>
 8002ff4:	2a21      	cmp	r2, #33	@ 0x21
 8002ff6:	d1d0      	bne.n	8002f9a <I2C_MemoryTransmit_TXE_BTF+0x20>
 8002ff8:	6802      	ldr	r2, [r0, #0]
 8002ffa:	6851      	ldr	r1, [r2, #4]
 8002ffc:	f421 61e0 	bic.w	r1, r1, #1792	@ 0x700
 8003000:	6051      	str	r1, [r2, #4]
 8003002:	6811      	ldr	r1, [r2, #0]
 8003004:	f441 7100 	orr.w	r1, r1, #512	@ 0x200
 8003008:	6011      	str	r1, [r2, #0]
 800300a:	2220      	movs	r2, #32
 800300c:	6303      	str	r3, [r0, #48]	@ 0x30
 800300e:	f880 203d 	strb.w	r2, [r0, #61]	@ 0x3d
 8003012:	f880 303e 	strb.w	r3, [r0, #62]	@ 0x3e
 8003016:	f7ff ffaf 	bl	8002f78 <HAL_I2C_MemTxCpltCallback>
 800301a:	e7be      	b.n	8002f9a <I2C_MemoryTransmit_TXE_BTF+0x20>
 800301c:	6803      	ldr	r3, [r0, #0]
 800301e:	695a      	ldr	r2, [r3, #20]
 8003020:	0612      	lsls	r2, r2, #24
 8003022:	bf44      	itt	mi
 8003024:	2200      	movmi	r2, #0
 8003026:	611a      	strmi	r2, [r3, #16]
 8003028:	e7b7      	b.n	8002f9a <I2C_MemoryTransmit_TXE_BTF+0x20>

0800302a <HAL_I2C_MemRxCpltCallback>:
 800302a:	4770      	bx	lr

0800302c <HAL_I2C_ErrorCallback>:
 800302c:	4770      	bx	lr

0800302e <HAL_I2C_AbortCpltCallback>:
 800302e:	4770      	bx	lr

08003030 <I2C_DMAAbort>:
 8003030:	2300      	movs	r3, #0
 8003032:	b537      	push	{r0, r1, r2, r4, r5, lr}
 8003034:	f246 11a8 	movw	r1, #25000	@ 0x61a8
 8003038:	9301      	str	r3, [sp, #4]
 800303a:	4b2c      	ldr	r3, [pc, #176]	@ (80030ec <I2C_DMAAbort+0xbc>)
 800303c:	6a40      	ldr	r0, [r0, #36]	@ 0x24
 800303e:	681b      	ldr	r3, [r3, #0]
 8003040:	f890 203d 	ldrb.w	r2, [r0, #61]	@ 0x3d
 8003044:	fbb3 f3f1 	udiv	r3, r3, r1
 8003048:	2123      	movs	r1, #35	@ 0x23
 800304a:	434b      	muls	r3, r1
 800304c:	9301      	str	r3, [sp, #4]
 800304e:	6803      	ldr	r3, [r0, #0]
 8003050:	b2d2      	uxtb	r2, r2
 8003052:	9901      	ldr	r1, [sp, #4]
 8003054:	bb41      	cbnz	r1, 80030a8 <I2C_DMAAbort+0x78>
 8003056:	6c01      	ldr	r1, [r0, #64]	@ 0x40
 8003058:	f041 0120 	orr.w	r1, r1, #32
 800305c:	6401      	str	r1, [r0, #64]	@ 0x40
 800305e:	6b44      	ldr	r4, [r0, #52]	@ 0x34
 8003060:	b10c      	cbz	r4, 8003066 <I2C_DMAAbort+0x36>
 8003062:	2100      	movs	r1, #0
 8003064:	62a1      	str	r1, [r4, #40]	@ 0x28
 8003066:	6b81      	ldr	r1, [r0, #56]	@ 0x38
 8003068:	b109      	cbz	r1, 800306e <I2C_DMAAbort+0x3e>
 800306a:	2500      	movs	r5, #0
 800306c:	628d      	str	r5, [r1, #40]	@ 0x28
 800306e:	681d      	ldr	r5, [r3, #0]
 8003070:	f425 6580 	bic.w	r5, r5, #1024	@ 0x400
 8003074:	601d      	str	r5, [r3, #0]
 8003076:	2500      	movs	r5, #0
 8003078:	8545      	strh	r5, [r0, #42]	@ 0x2a
 800307a:	b104      	cbz	r4, 800307e <I2C_DMAAbort+0x4e>
 800307c:	6365      	str	r5, [r4, #52]	@ 0x34
 800307e:	b101      	cbz	r1, 8003082 <I2C_DMAAbort+0x52>
 8003080:	634d      	str	r5, [r1, #52]	@ 0x34
 8003082:	6819      	ldr	r1, [r3, #0]
 8003084:	f021 0101 	bic.w	r1, r1, #1
 8003088:	6019      	str	r1, [r3, #0]
 800308a:	f890 103d 	ldrb.w	r1, [r0, #61]	@ 0x3d
 800308e:	2960      	cmp	r1, #96	@ 0x60
 8003090:	d111      	bne.n	80030b6 <I2C_DMAAbort+0x86>
 8003092:	2320      	movs	r3, #32
 8003094:	f880 303d 	strb.w	r3, [r0, #61]	@ 0x3d
 8003098:	2300      	movs	r3, #0
 800309a:	f880 303e 	strb.w	r3, [r0, #62]	@ 0x3e
 800309e:	6403      	str	r3, [r0, #64]	@ 0x40
 80030a0:	f7ff ffc5 	bl	800302e <HAL_I2C_AbortCpltCallback>
 80030a4:	b003      	add	sp, #12
 80030a6:	bd30      	pop	{r4, r5, pc}
 80030a8:	9901      	ldr	r1, [sp, #4]
 80030aa:	3901      	subs	r1, #1
 80030ac:	9101      	str	r1, [sp, #4]
 80030ae:	6819      	ldr	r1, [r3, #0]
 80030b0:	0589      	lsls	r1, r1, #22
 80030b2:	d4ce      	bmi.n	8003052 <I2C_DMAAbort+0x22>
 80030b4:	e7d3      	b.n	800305e <I2C_DMAAbort+0x2e>
 80030b6:	f002 0228 	and.w	r2, r2, #40	@ 0x28
 80030ba:	2a28      	cmp	r2, #40	@ 0x28
 80030bc:	d10e      	bne.n	80030dc <I2C_DMAAbort+0xac>
 80030be:	6819      	ldr	r1, [r3, #0]
 80030c0:	f041 0101 	orr.w	r1, r1, #1
 80030c4:	6019      	str	r1, [r3, #0]
 80030c6:	6819      	ldr	r1, [r3, #0]
 80030c8:	f441 6180 	orr.w	r1, r1, #1024	@ 0x400
 80030cc:	6019      	str	r1, [r3, #0]
 80030ce:	2300      	movs	r3, #0
 80030d0:	6303      	str	r3, [r0, #48]	@ 0x30
 80030d2:	f880 203d 	strb.w	r2, [r0, #61]	@ 0x3d
 80030d6:	f7ff ffa9 	bl	800302c <HAL_I2C_ErrorCallback>
 80030da:	e7e3      	b.n	80030a4 <I2C_DMAAbort+0x74>
 80030dc:	2320      	movs	r3, #32
 80030de:	f880 303d 	strb.w	r3, [r0, #61]	@ 0x3d
 80030e2:	2300      	movs	r3, #0
 80030e4:	f880 303e 	strb.w	r3, [r0, #62]	@ 0x3e
 80030e8:	e7f5      	b.n	80030d6 <I2C_DMAAbort+0xa6>
 80030ea:	bf00      	nop
 80030ec:	20000004 	.word	0x20000004

080030f0 <I2C_ITError>:
 80030f0:	b510      	push	{r4, lr}
 80030f2:	f890 203d 	ldrb.w	r2, [r0, #61]	@ 0x3d
 80030f6:	f890 303e 	ldrb.w	r3, [r0, #62]	@ 0x3e
 80030fa:	4604      	mov	r4, r0
 80030fc:	2b10      	cmp	r3, #16
 80030fe:	b2d9      	uxtb	r1, r3
 8003100:	b2d2      	uxtb	r2, r2
 8003102:	6803      	ldr	r3, [r0, #0]
 8003104:	d001      	beq.n	800310a <I2C_ITError+0x1a>
 8003106:	2940      	cmp	r1, #64	@ 0x40
 8003108:	d113      	bne.n	8003132 <I2C_ITError+0x42>
 800310a:	2a22      	cmp	r2, #34	@ 0x22
 800310c:	d111      	bne.n	8003132 <I2C_ITError+0x42>
 800310e:	6819      	ldr	r1, [r3, #0]
 8003110:	f421 6100 	bic.w	r1, r1, #2048	@ 0x800
 8003114:	6019      	str	r1, [r3, #0]
 8003116:	6859      	ldr	r1, [r3, #4]
 8003118:	f411 6100 	ands.w	r1, r1, #2048	@ 0x800
 800311c:	d106      	bne.n	800312c <I2C_ITError+0x3c>
 800311e:	2a60      	cmp	r2, #96	@ 0x60
 8003120:	bf1e      	ittt	ne
 8003122:	2220      	movne	r2, #32
 8003124:	f884 203d 	strbne.w	r2, [r4, #61]	@ 0x3d
 8003128:	f884 103e 	strbne.w	r1, [r4, #62]	@ 0x3e
 800312c:	2200      	movs	r2, #0
 800312e:	6322      	str	r2, [r4, #48]	@ 0x30
 8003130:	e007      	b.n	8003142 <I2C_ITError+0x52>
 8003132:	f002 0128 	and.w	r1, r2, #40	@ 0x28
 8003136:	2928      	cmp	r1, #40	@ 0x28
 8003138:	d1ed      	bne.n	8003116 <I2C_ITError+0x26>
 800313a:	2200      	movs	r2, #0
 800313c:	6322      	str	r2, [r4, #48]	@ 0x30
 800313e:	f884 103d 	strb.w	r1, [r4, #61]	@ 0x3d
 8003142:	685a      	ldr	r2, [r3, #4]
 8003144:	f412 6200 	ands.w	r2, r2, #2048	@ 0x800
 8003148:	d04f      	beq.n	80031ea <I2C_ITError+0xfa>
 800314a:	685a      	ldr	r2, [r3, #4]
 800314c:	6b60      	ldr	r0, [r4, #52]	@ 0x34
 800314e:	f422 6200 	bic.w	r2, r2, #2048	@ 0x800
 8003152:	605a      	str	r2, [r3, #4]
 8003154:	f890 3021 	ldrb.w	r3, [r0, #33]	@ 0x21
 8003158:	2b01      	cmp	r3, #1
 800315a:	4b37      	ldr	r3, [pc, #220]	@ (8003238 <I2C_ITError+0x148>)
 800315c:	d02b      	beq.n	80031b6 <I2C_ITError+0xc6>
 800315e:	6343      	str	r3, [r0, #52]	@ 0x34
 8003160:	f7ff fcc0 	bl	8002ae4 <HAL_DMA_Abort_IT>
 8003164:	b150      	cbz	r0, 800317c <I2C_ITError+0x8c>
 8003166:	6822      	ldr	r2, [r4, #0]
 8003168:	6b60      	ldr	r0, [r4, #52]	@ 0x34
 800316a:	6813      	ldr	r3, [r2, #0]
 800316c:	f023 0301 	bic.w	r3, r3, #1
 8003170:	6013      	str	r3, [r2, #0]
 8003172:	2320      	movs	r3, #32
 8003174:	f884 303d 	strb.w	r3, [r4, #61]	@ 0x3d
 8003178:	6b43      	ldr	r3, [r0, #52]	@ 0x34
 800317a:	4798      	blx	r3
 800317c:	6c23      	ldr	r3, [r4, #64]	@ 0x40
 800317e:	0719      	lsls	r1, r3, #28
 8003180:	bf1f      	itttt	ne
 8003182:	6822      	ldrne	r2, [r4, #0]
 8003184:	6853      	ldrne	r3, [r2, #4]
 8003186:	f423 63e0 	bicne.w	r3, r3, #1792	@ 0x700
 800318a:	6053      	strne	r3, [r2, #4]
 800318c:	f894 303d 	ldrb.w	r3, [r4, #61]	@ 0x3d
 8003190:	6c22      	ldr	r2, [r4, #64]	@ 0x40
 8003192:	b2db      	uxtb	r3, r3
 8003194:	0752      	lsls	r2, r2, #29
 8003196:	d50d      	bpl.n	80031b4 <I2C_ITError+0xc4>
 8003198:	2b28      	cmp	r3, #40	@ 0x28
 800319a:	d10b      	bne.n	80031b4 <I2C_ITError+0xc4>
 800319c:	4b27      	ldr	r3, [pc, #156]	@ (800323c <I2C_ITError+0x14c>)
 800319e:	2220      	movs	r2, #32
 80031a0:	62e3      	str	r3, [r4, #44]	@ 0x2c
 80031a2:	2300      	movs	r3, #0
 80031a4:	4620      	mov	r0, r4
 80031a6:	6323      	str	r3, [r4, #48]	@ 0x30
 80031a8:	f884 203d 	strb.w	r2, [r4, #61]	@ 0x3d
 80031ac:	f884 303e 	strb.w	r3, [r4, #62]	@ 0x3e
 80031b0:	f7ff fee1 	bl	8002f76 <HAL_I2C_ListenCpltCallback>
 80031b4:	bd10      	pop	{r4, pc}
 80031b6:	6ba0      	ldr	r0, [r4, #56]	@ 0x38
 80031b8:	6343      	str	r3, [r0, #52]	@ 0x34
 80031ba:	f7ff fc93 	bl	8002ae4 <HAL_DMA_Abort_IT>
 80031be:	2800      	cmp	r0, #0
 80031c0:	d0dc      	beq.n	800317c <I2C_ITError+0x8c>
 80031c2:	6823      	ldr	r3, [r4, #0]
 80031c4:	695a      	ldr	r2, [r3, #20]
 80031c6:	0651      	lsls	r1, r2, #25
 80031c8:	d505      	bpl.n	80031d6 <I2C_ITError+0xe6>
 80031ca:	691a      	ldr	r2, [r3, #16]
 80031cc:	6a63      	ldr	r3, [r4, #36]	@ 0x24
 80031ce:	701a      	strb	r2, [r3, #0]
 80031d0:	6a63      	ldr	r3, [r4, #36]	@ 0x24
 80031d2:	3301      	adds	r3, #1
 80031d4:	6263      	str	r3, [r4, #36]	@ 0x24
 80031d6:	6822      	ldr	r2, [r4, #0]
 80031d8:	6ba0      	ldr	r0, [r4, #56]	@ 0x38
 80031da:	6813      	ldr	r3, [r2, #0]
 80031dc:	f023 0301 	bic.w	r3, r3, #1
 80031e0:	6013      	str	r3, [r2, #0]
 80031e2:	2320      	movs	r3, #32
 80031e4:	f884 303d 	strb.w	r3, [r4, #61]	@ 0x3d
 80031e8:	e7c6      	b.n	8003178 <I2C_ITError+0x88>
 80031ea:	f894 103d 	ldrb.w	r1, [r4, #61]	@ 0x3d
 80031ee:	2960      	cmp	r1, #96	@ 0x60
 80031f0:	d115      	bne.n	800321e <I2C_ITError+0x12e>
 80031f2:	2120      	movs	r1, #32
 80031f4:	f884 103d 	strb.w	r1, [r4, #61]	@ 0x3d
 80031f8:	6422      	str	r2, [r4, #64]	@ 0x40
 80031fa:	695a      	ldr	r2, [r3, #20]
 80031fc:	0652      	lsls	r2, r2, #25
 80031fe:	d505      	bpl.n	800320c <I2C_ITError+0x11c>
 8003200:	691a      	ldr	r2, [r3, #16]
 8003202:	6a63      	ldr	r3, [r4, #36]	@ 0x24
 8003204:	701a      	strb	r2, [r3, #0]
 8003206:	6a63      	ldr	r3, [r4, #36]	@ 0x24
 8003208:	3301      	adds	r3, #1
 800320a:	6263      	str	r3, [r4, #36]	@ 0x24
 800320c:	6822      	ldr	r2, [r4, #0]
 800320e:	4620      	mov	r0, r4
 8003210:	6813      	ldr	r3, [r2, #0]
 8003212:	f023 0301 	bic.w	r3, r3, #1
 8003216:	6013      	str	r3, [r2, #0]
 8003218:	f7ff ff09 	bl	800302e <HAL_I2C_AbortCpltCallback>
 800321c:	e7ae      	b.n	800317c <I2C_ITError+0x8c>
 800321e:	695a      	ldr	r2, [r3, #20]
 8003220:	0650      	lsls	r0, r2, #25
 8003222:	d505      	bpl.n	8003230 <I2C_ITError+0x140>
 8003224:	691a      	ldr	r2, [r3, #16]
 8003226:	6a63      	ldr	r3, [r4, #36]	@ 0x24
 8003228:	701a      	strb	r2, [r3, #0]
 800322a:	6a63      	ldr	r3, [r4, #36]	@ 0x24
 800322c:	3301      	adds	r3, #1
 800322e:	6263      	str	r3, [r4, #36]	@ 0x24
 8003230:	4620      	mov	r0, r4
 8003232:	f7ff fefb 	bl	800302c <HAL_I2C_ErrorCallback>
 8003236:	e7a1      	b.n	800317c <I2C_ITError+0x8c>
 8003238:	08003031 	.word	0x08003031
 800323c:	ffff0000 	.word	0xffff0000

08003240 <HAL_I2C_EV_IRQHandler>:
 8003240:	b5f0      	push	{r4, r5, r6, r7, lr}
 8003242:	4604      	mov	r4, r0
 8003244:	6803      	ldr	r3, [r0, #0]
 8003246:	b08f      	sub	sp, #60	@ 0x3c
 8003248:	685a      	ldr	r2, [r3, #4]
 800324a:	6ac6      	ldr	r6, [r0, #44]	@ 0x2c
 800324c:	f890 003e 	ldrb.w	r0, [r0, #62]	@ 0x3e
 8003250:	f894 103d 	ldrb.w	r1, [r4, #61]	@ 0x3d
 8003254:	2810      	cmp	r0, #16
 8003256:	b2c5      	uxtb	r5, r0
 8003258:	b2c9      	uxtb	r1, r1
 800325a:	d002      	beq.n	8003262 <HAL_I2C_EV_IRQHandler+0x22>
 800325c:	2d40      	cmp	r5, #64	@ 0x40
 800325e:	f040 82e5 	bne.w	800382c <HAL_I2C_EV_IRQHandler+0x5ec>
 8003262:	699f      	ldr	r7, [r3, #24]
 8003264:	6958      	ldr	r0, [r3, #20]
 8003266:	f010 0f01 	tst.w	r0, #1
 800326a:	d107      	bne.n	800327c <HAL_I2C_EV_IRQHandler+0x3c>
 800326c:	f5b6 0f2a 	cmp.w	r6, #11141120	@ 0xaa0000
 8003270:	d002      	beq.n	8003278 <HAL_I2C_EV_IRQHandler+0x38>
 8003272:	f1b6 4f2a 	cmp.w	r6, #2852126720	@ 0xaa000000
 8003276:	d151      	bne.n	800331c <HAL_I2C_EV_IRQHandler+0xdc>
 8003278:	b00f      	add	sp, #60	@ 0x3c
 800327a:	bdf0      	pop	{r4, r5, r6, r7, pc}
 800327c:	0596      	lsls	r6, r2, #22
 800327e:	d54d      	bpl.n	800331c <HAL_I2C_EV_IRQHandler+0xdc>
 8003280:	6ae2      	ldr	r2, [r4, #44]	@ 0x2c
 8003282:	f5b2 0f2a 	cmp.w	r2, #11141120	@ 0xaa0000
 8003286:	d10c      	bne.n	80032a2 <HAL_I2C_EV_IRQHandler+0x62>
 8003288:	2201      	movs	r2, #1
 800328a:	62e2      	str	r2, [r4, #44]	@ 0x2c
 800328c:	f894 203e 	ldrb.w	r2, [r4, #62]	@ 0x3e
 8003290:	2a40      	cmp	r2, #64	@ 0x40
 8003292:	d111      	bne.n	80032b8 <HAL_I2C_EV_IRQHandler+0x78>
 8003294:	6d22      	ldr	r2, [r4, #80]	@ 0x50
 8003296:	b952      	cbnz	r2, 80032ae <HAL_I2C_EV_IRQHandler+0x6e>
 8003298:	6c62      	ldr	r2, [r4, #68]	@ 0x44
 800329a:	f002 02fe 	and.w	r2, r2, #254	@ 0xfe
 800329e:	611a      	str	r2, [r3, #16]
 80032a0:	e7ea      	b.n	8003278 <HAL_I2C_EV_IRQHandler+0x38>
 80032a2:	6ae2      	ldr	r2, [r4, #44]	@ 0x2c
 80032a4:	f1b2 4f2a 	cmp.w	r2, #2852126720	@ 0xaa000000
 80032a8:	d1f0      	bne.n	800328c <HAL_I2C_EV_IRQHandler+0x4c>
 80032aa:	2208      	movs	r2, #8
 80032ac:	e7ed      	b.n	800328a <HAL_I2C_EV_IRQHandler+0x4a>
 80032ae:	6c62      	ldr	r2, [r4, #68]	@ 0x44
 80032b0:	f042 0201 	orr.w	r2, r2, #1
 80032b4:	b2d2      	uxtb	r2, r2
 80032b6:	e7f2      	b.n	800329e <HAL_I2C_EV_IRQHandler+0x5e>
 80032b8:	6922      	ldr	r2, [r4, #16]
 80032ba:	f5b2 4f80 	cmp.w	r2, #16384	@ 0x4000
 80032be:	d11a      	bne.n	80032f6 <HAL_I2C_EV_IRQHandler+0xb6>
 80032c0:	f894 203d 	ldrb.w	r2, [r4, #61]	@ 0x3d
 80032c4:	2a21      	cmp	r2, #33	@ 0x21
 80032c6:	6c62      	ldr	r2, [r4, #68]	@ 0x44
 80032c8:	d111      	bne.n	80032ee <HAL_I2C_EV_IRQHandler+0xae>
 80032ca:	f002 02fe 	and.w	r2, r2, #254	@ 0xfe
 80032ce:	611a      	str	r2, [r3, #16]
 80032d0:	6b62      	ldr	r2, [r4, #52]	@ 0x34
 80032d2:	b10a      	cbz	r2, 80032d8 <HAL_I2C_EV_IRQHandler+0x98>
 80032d4:	6a92      	ldr	r2, [r2, #40]	@ 0x28
 80032d6:	b92a      	cbnz	r2, 80032e4 <HAL_I2C_EV_IRQHandler+0xa4>
 80032d8:	6ba2      	ldr	r2, [r4, #56]	@ 0x38
 80032da:	2a00      	cmp	r2, #0
 80032dc:	d0cc      	beq.n	8003278 <HAL_I2C_EV_IRQHandler+0x38>
 80032de:	6a92      	ldr	r2, [r2, #40]	@ 0x28
 80032e0:	2a00      	cmp	r2, #0
 80032e2:	d0c9      	beq.n	8003278 <HAL_I2C_EV_IRQHandler+0x38>
 80032e4:	685a      	ldr	r2, [r3, #4]
 80032e6:	f442 6200 	orr.w	r2, r2, #2048	@ 0x800
 80032ea:	605a      	str	r2, [r3, #4]
 80032ec:	e7c4      	b.n	8003278 <HAL_I2C_EV_IRQHandler+0x38>
 80032ee:	f042 0201 	orr.w	r2, r2, #1
 80032f2:	b2d2      	uxtb	r2, r2
 80032f4:	e7eb      	b.n	80032ce <HAL_I2C_EV_IRQHandler+0x8e>
 80032f6:	6d22      	ldr	r2, [r4, #80]	@ 0x50
 80032f8:	b932      	cbnz	r2, 8003308 <HAL_I2C_EV_IRQHandler+0xc8>
 80032fa:	6c62      	ldr	r2, [r4, #68]	@ 0x44
 80032fc:	11d2      	asrs	r2, r2, #7
 80032fe:	f002 0206 	and.w	r2, r2, #6
 8003302:	f042 02f0 	orr.w	r2, r2, #240	@ 0xf0
 8003306:	e7ca      	b.n	800329e <HAL_I2C_EV_IRQHandler+0x5e>
 8003308:	6d22      	ldr	r2, [r4, #80]	@ 0x50
 800330a:	2a01      	cmp	r2, #1
 800330c:	d1b4      	bne.n	8003278 <HAL_I2C_EV_IRQHandler+0x38>
 800330e:	6c62      	ldr	r2, [r4, #68]	@ 0x44
 8003310:	11d2      	asrs	r2, r2, #7
 8003312:	f002 0206 	and.w	r2, r2, #6
 8003316:	f042 02f1 	orr.w	r2, r2, #241	@ 0xf1
 800331a:	e7c0      	b.n	800329e <HAL_I2C_EV_IRQHandler+0x5e>
 800331c:	0706      	lsls	r6, r0, #28
 800331e:	d503      	bpl.n	8003328 <HAL_I2C_EV_IRQHandler+0xe8>
 8003320:	0596      	lsls	r6, r2, #22
 8003322:	d501      	bpl.n	8003328 <HAL_I2C_EV_IRQHandler+0xe8>
 8003324:	6c62      	ldr	r2, [r4, #68]	@ 0x44
 8003326:	e7e4      	b.n	80032f2 <HAL_I2C_EV_IRQHandler+0xb2>
 8003328:	0786      	lsls	r6, r0, #30
 800332a:	f140 80f0 	bpl.w	800350e <HAL_I2C_EV_IRQHandler+0x2ce>
 800332e:	0596      	lsls	r6, r2, #22
 8003330:	f140 80ed 	bpl.w	800350e <HAL_I2C_EV_IRQHandler+0x2ce>
 8003334:	f894 103e 	ldrb.w	r1, [r4, #62]	@ 0x3e
 8003338:	6ae2      	ldr	r2, [r4, #44]	@ 0x2c
 800333a:	6b25      	ldr	r5, [r4, #48]	@ 0x30
 800333c:	f894 003d 	ldrb.w	r0, [r4, #61]	@ 0x3d
 8003340:	b2c9      	uxtb	r1, r1
 8003342:	2822      	cmp	r0, #34	@ 0x22
 8003344:	f040 80db 	bne.w	80034fe <HAL_I2C_EV_IRQHandler+0x2be>
 8003348:	6d20      	ldr	r0, [r4, #80]	@ 0x50
 800334a:	b940      	cbnz	r0, 800335e <HAL_I2C_EV_IRQHandler+0x11e>
 800334c:	2940      	cmp	r1, #64	@ 0x40
 800334e:	d106      	bne.n	800335e <HAL_I2C_EV_IRQHandler+0x11e>
 8003350:	9000      	str	r0, [sp, #0]
 8003352:	695a      	ldr	r2, [r3, #20]
 8003354:	9200      	str	r2, [sp, #0]
 8003356:	699b      	ldr	r3, [r3, #24]
 8003358:	9300      	str	r3, [sp, #0]
 800335a:	9b00      	ldr	r3, [sp, #0]
 800335c:	e78c      	b.n	8003278 <HAL_I2C_EV_IRQHandler+0x38>
 800335e:	6d21      	ldr	r1, [r4, #80]	@ 0x50
 8003360:	b989      	cbnz	r1, 8003386 <HAL_I2C_EV_IRQHandler+0x146>
 8003362:	6920      	ldr	r0, [r4, #16]
 8003364:	f5b0 4f40 	cmp.w	r0, #49152	@ 0xc000
 8003368:	d10d      	bne.n	8003386 <HAL_I2C_EV_IRQHandler+0x146>
 800336a:	9101      	str	r1, [sp, #4]
 800336c:	695a      	ldr	r2, [r3, #20]
 800336e:	9201      	str	r2, [sp, #4]
 8003370:	699a      	ldr	r2, [r3, #24]
 8003372:	9201      	str	r2, [sp, #4]
 8003374:	9a01      	ldr	r2, [sp, #4]
 8003376:	681a      	ldr	r2, [r3, #0]
 8003378:	f442 7280 	orr.w	r2, r2, #256	@ 0x100
 800337c:	601a      	str	r2, [r3, #0]
 800337e:	6d23      	ldr	r3, [r4, #80]	@ 0x50
 8003380:	3301      	adds	r3, #1
 8003382:	6523      	str	r3, [r4, #80]	@ 0x50
 8003384:	e778      	b.n	8003278 <HAL_I2C_EV_IRQHandler+0x38>
 8003386:	8d61      	ldrh	r1, [r4, #42]	@ 0x2a
 8003388:	b289      	uxth	r1, r1
 800338a:	b951      	cbnz	r1, 80033a2 <HAL_I2C_EV_IRQHandler+0x162>
 800338c:	9102      	str	r1, [sp, #8]
 800338e:	695a      	ldr	r2, [r3, #20]
 8003390:	9202      	str	r2, [sp, #8]
 8003392:	699a      	ldr	r2, [r3, #24]
 8003394:	9202      	str	r2, [sp, #8]
 8003396:	9a02      	ldr	r2, [sp, #8]
 8003398:	681a      	ldr	r2, [r3, #0]
 800339a:	f442 7200 	orr.w	r2, r2, #512	@ 0x200
 800339e:	601a      	str	r2, [r3, #0]
 80033a0:	e019      	b.n	80033d6 <HAL_I2C_EV_IRQHandler+0x196>
 80033a2:	8d61      	ldrh	r1, [r4, #42]	@ 0x2a
 80033a4:	b289      	uxth	r1, r1
 80033a6:	2901      	cmp	r1, #1
 80033a8:	d149      	bne.n	800343e <HAL_I2C_EV_IRQHandler+0x1fe>
 80033aa:	f512 3f80 	cmn.w	r2, #65536	@ 0x10000
 80033ae:	d11b      	bne.n	80033e8 <HAL_I2C_EV_IRQHandler+0x1a8>
 80033b0:	681a      	ldr	r2, [r3, #0]
 80033b2:	f422 6280 	bic.w	r2, r2, #1024	@ 0x400
 80033b6:	601a      	str	r2, [r3, #0]
 80033b8:	685a      	ldr	r2, [r3, #4]
 80033ba:	f412 6200 	ands.w	r2, r2, #2048	@ 0x800
 80033be:	d00c      	beq.n	80033da <HAL_I2C_EV_IRQHandler+0x19a>
 80033c0:	681a      	ldr	r2, [r3, #0]
 80033c2:	f422 6280 	bic.w	r2, r2, #1024	@ 0x400
 80033c6:	601a      	str	r2, [r3, #0]
 80033c8:	2200      	movs	r2, #0
 80033ca:	9203      	str	r2, [sp, #12]
 80033cc:	695a      	ldr	r2, [r3, #20]
 80033ce:	9203      	str	r2, [sp, #12]
 80033d0:	699b      	ldr	r3, [r3, #24]
 80033d2:	9303      	str	r3, [sp, #12]
 80033d4:	9b03      	ldr	r3, [sp, #12]
 80033d6:	2300      	movs	r3, #0
 80033d8:	e7d3      	b.n	8003382 <HAL_I2C_EV_IRQHandler+0x142>
 80033da:	9204      	str	r2, [sp, #16]
 80033dc:	695a      	ldr	r2, [r3, #20]
 80033de:	9204      	str	r2, [sp, #16]
 80033e0:	699a      	ldr	r2, [r3, #24]
 80033e2:	9204      	str	r2, [sp, #16]
 80033e4:	9a04      	ldr	r2, [sp, #16]
 80033e6:	e7d7      	b.n	8003398 <HAL_I2C_EV_IRQHandler+0x158>
 80033e8:	2a08      	cmp	r2, #8
 80033ea:	d01c      	beq.n	8003426 <HAL_I2C_EV_IRQHandler+0x1e6>
 80033ec:	2a20      	cmp	r2, #32
 80033ee:	d01a      	beq.n	8003426 <HAL_I2C_EV_IRQHandler+0x1e6>
 80033f0:	2d12      	cmp	r5, #18
 80033f2:	d10d      	bne.n	8003410 <HAL_I2C_EV_IRQHandler+0x1d0>
 80033f4:	2a01      	cmp	r2, #1
 80033f6:	d116      	bne.n	8003426 <HAL_I2C_EV_IRQHandler+0x1e6>
 80033f8:	681a      	ldr	r2, [r3, #0]
 80033fa:	f422 6280 	bic.w	r2, r2, #1024	@ 0x400
 80033fe:	601a      	str	r2, [r3, #0]
 8003400:	2200      	movs	r2, #0
 8003402:	9205      	str	r2, [sp, #20]
 8003404:	695a      	ldr	r2, [r3, #20]
 8003406:	9205      	str	r2, [sp, #20]
 8003408:	699b      	ldr	r3, [r3, #24]
 800340a:	9305      	str	r3, [sp, #20]
 800340c:	9b05      	ldr	r3, [sp, #20]
 800340e:	e7e2      	b.n	80033d6 <HAL_I2C_EV_IRQHandler+0x196>
 8003410:	2a10      	cmp	r2, #16
 8003412:	d8f1      	bhi.n	80033f8 <HAL_I2C_EV_IRQHandler+0x1b8>
 8003414:	4986      	ldr	r1, [pc, #536]	@ (8003630 <HAL_I2C_EV_IRQHandler+0x3f0>)
 8003416:	fa41 f202 	asr.w	r2, r1, r2
 800341a:	07d7      	lsls	r7, r2, #31
 800341c:	d4ec      	bmi.n	80033f8 <HAL_I2C_EV_IRQHandler+0x1b8>
 800341e:	681a      	ldr	r2, [r3, #0]
 8003420:	f442 6280 	orr.w	r2, r2, #1024	@ 0x400
 8003424:	e7eb      	b.n	80033fe <HAL_I2C_EV_IRQHandler+0x1be>
 8003426:	681a      	ldr	r2, [r3, #0]
 8003428:	f422 6280 	bic.w	r2, r2, #1024	@ 0x400
 800342c:	601a      	str	r2, [r3, #0]
 800342e:	2200      	movs	r2, #0
 8003430:	9206      	str	r2, [sp, #24]
 8003432:	695a      	ldr	r2, [r3, #20]
 8003434:	9206      	str	r2, [sp, #24]
 8003436:	699a      	ldr	r2, [r3, #24]
 8003438:	9206      	str	r2, [sp, #24]
 800343a:	9a06      	ldr	r2, [sp, #24]
 800343c:	e7ac      	b.n	8003398 <HAL_I2C_EV_IRQHandler+0x158>
 800343e:	8d61      	ldrh	r1, [r4, #42]	@ 0x2a
 8003440:	b289      	uxth	r1, r1
 8003442:	2902      	cmp	r1, #2
 8003444:	d138      	bne.n	80034b8 <HAL_I2C_EV_IRQHandler+0x278>
 8003446:	2a10      	cmp	r2, #16
 8003448:	d803      	bhi.n	8003452 <HAL_I2C_EV_IRQHandler+0x212>
 800344a:	497a      	ldr	r1, [pc, #488]	@ (8003634 <HAL_I2C_EV_IRQHandler+0x3f4>)
 800344c:	40d1      	lsrs	r1, r2
 800344e:	07ce      	lsls	r6, r1, #31
 8003450:	d418      	bmi.n	8003484 <HAL_I2C_EV_IRQHandler+0x244>
 8003452:	6819      	ldr	r1, [r3, #0]
 8003454:	f441 6100 	orr.w	r1, r1, #2048	@ 0x800
 8003458:	6019      	str	r1, [r3, #0]
 800345a:	2100      	movs	r1, #0
 800345c:	9107      	str	r1, [sp, #28]
 800345e:	6959      	ldr	r1, [r3, #20]
 8003460:	9107      	str	r1, [sp, #28]
 8003462:	6999      	ldr	r1, [r3, #24]
 8003464:	9107      	str	r1, [sp, #28]
 8003466:	9907      	ldr	r1, [sp, #28]
 8003468:	6819      	ldr	r1, [r3, #0]
 800346a:	f421 6180 	bic.w	r1, r1, #1024	@ 0x400
 800346e:	6019      	str	r1, [r3, #0]
 8003470:	6859      	ldr	r1, [r3, #4]
 8003472:	050d      	lsls	r5, r1, #20
 8003474:	d5af      	bpl.n	80033d6 <HAL_I2C_EV_IRQHandler+0x196>
 8003476:	2a20      	cmp	r2, #32
 8003478:	d81b      	bhi.n	80034b2 <HAL_I2C_EV_IRQHandler+0x272>
 800347a:	2a07      	cmp	r2, #7
 800347c:	d80e      	bhi.n	800349c <HAL_I2C_EV_IRQHandler+0x25c>
 800347e:	2a01      	cmp	r2, #1
 8003480:	d1a9      	bne.n	80033d6 <HAL_I2C_EV_IRQHandler+0x196>
 8003482:	e011      	b.n	80034a8 <HAL_I2C_EV_IRQHandler+0x268>
 8003484:	6819      	ldr	r1, [r3, #0]
 8003486:	f441 6180 	orr.w	r1, r1, #1024	@ 0x400
 800348a:	6019      	str	r1, [r3, #0]
 800348c:	2100      	movs	r1, #0
 800348e:	9108      	str	r1, [sp, #32]
 8003490:	6959      	ldr	r1, [r3, #20]
 8003492:	9108      	str	r1, [sp, #32]
 8003494:	6999      	ldr	r1, [r3, #24]
 8003496:	9108      	str	r1, [sp, #32]
 8003498:	9908      	ldr	r1, [sp, #32]
 800349a:	e7e9      	b.n	8003470 <HAL_I2C_EV_IRQHandler+0x230>
 800349c:	f1a2 0108 	sub.w	r1, r2, #8
 80034a0:	4a65      	ldr	r2, [pc, #404]	@ (8003638 <HAL_I2C_EV_IRQHandler+0x3f8>)
 80034a2:	40ca      	lsrs	r2, r1
 80034a4:	07d0      	lsls	r0, r2, #31
 80034a6:	d596      	bpl.n	80033d6 <HAL_I2C_EV_IRQHandler+0x196>
 80034a8:	685a      	ldr	r2, [r3, #4]
 80034aa:	f442 5280 	orr.w	r2, r2, #4096	@ 0x1000
 80034ae:	605a      	str	r2, [r3, #4]
 80034b0:	e791      	b.n	80033d6 <HAL_I2C_EV_IRQHandler+0x196>
 80034b2:	f512 3f80 	cmn.w	r2, #65536	@ 0x10000
 80034b6:	e7e3      	b.n	8003480 <HAL_I2C_EV_IRQHandler+0x240>
 80034b8:	6819      	ldr	r1, [r3, #0]
 80034ba:	f441 6180 	orr.w	r1, r1, #1024	@ 0x400
 80034be:	6019      	str	r1, [r3, #0]
 80034c0:	6859      	ldr	r1, [r3, #4]
 80034c2:	0509      	lsls	r1, r1, #20
 80034c4:	d510      	bpl.n	80034e8 <HAL_I2C_EV_IRQHandler+0x2a8>
 80034c6:	2a20      	cmp	r2, #32
 80034c8:	d816      	bhi.n	80034f8 <HAL_I2C_EV_IRQHandler+0x2b8>
 80034ca:	2a07      	cmp	r2, #7
 80034cc:	d806      	bhi.n	80034dc <HAL_I2C_EV_IRQHandler+0x29c>
 80034ce:	2a01      	cmp	r2, #1
 80034d0:	d10a      	bne.n	80034e8 <HAL_I2C_EV_IRQHandler+0x2a8>
 80034d2:	685a      	ldr	r2, [r3, #4]
 80034d4:	f442 5280 	orr.w	r2, r2, #4096	@ 0x1000
 80034d8:	605a      	str	r2, [r3, #4]
 80034da:	e005      	b.n	80034e8 <HAL_I2C_EV_IRQHandler+0x2a8>
 80034dc:	f1a2 0108 	sub.w	r1, r2, #8
 80034e0:	4a55      	ldr	r2, [pc, #340]	@ (8003638 <HAL_I2C_EV_IRQHandler+0x3f8>)
 80034e2:	40ca      	lsrs	r2, r1
 80034e4:	07d2      	lsls	r2, r2, #31
 80034e6:	d4f4      	bmi.n	80034d2 <HAL_I2C_EV_IRQHandler+0x292>
 80034e8:	2200      	movs	r2, #0
 80034ea:	9209      	str	r2, [sp, #36]	@ 0x24
 80034ec:	695a      	ldr	r2, [r3, #20]
 80034ee:	9209      	str	r2, [sp, #36]	@ 0x24
 80034f0:	699b      	ldr	r3, [r3, #24]
 80034f2:	9309      	str	r3, [sp, #36]	@ 0x24
 80034f4:	9b09      	ldr	r3, [sp, #36]	@ 0x24
 80034f6:	e76e      	b.n	80033d6 <HAL_I2C_EV_IRQHandler+0x196>
 80034f8:	f512 3f80 	cmn.w	r2, #65536	@ 0x10000
 80034fc:	e7e8      	b.n	80034d0 <HAL_I2C_EV_IRQHandler+0x290>
 80034fe:	2200      	movs	r2, #0
 8003500:	920a      	str	r2, [sp, #40]	@ 0x28
 8003502:	695a      	ldr	r2, [r3, #20]
 8003504:	920a      	str	r2, [sp, #40]	@ 0x28
 8003506:	699b      	ldr	r3, [r3, #24]
 8003508:	930a      	str	r3, [sp, #40]	@ 0x28
 800350a:	9b0a      	ldr	r3, [sp, #40]	@ 0x28
 800350c:	e6b4      	b.n	8003278 <HAL_I2C_EV_IRQHandler+0x38>
 800350e:	077f      	lsls	r7, r7, #29
 8003510:	f140 8094 	bpl.w	800363c <HAL_I2C_EV_IRQHandler+0x3fc>
 8003514:	685e      	ldr	r6, [r3, #4]
 8003516:	0536      	lsls	r6, r6, #20
 8003518:	f53f aeae 	bmi.w	8003278 <HAL_I2C_EV_IRQHandler+0x38>
 800351c:	0607      	lsls	r7, r0, #24
 800351e:	f000 0604 	and.w	r6, r0, #4
 8003522:	d53e      	bpl.n	80035a2 <HAL_I2C_EV_IRQHandler+0x362>
 8003524:	0550      	lsls	r0, r2, #21
 8003526:	d53c      	bpl.n	80035a2 <HAL_I2C_EV_IRQHandler+0x362>
 8003528:	2e00      	cmp	r6, #0
 800352a:	d13d      	bne.n	80035a8 <HAL_I2C_EV_IRQHandler+0x368>
 800352c:	f894 203d 	ldrb.w	r2, [r4, #61]	@ 0x3d
 8003530:	8d25      	ldrh	r5, [r4, #40]	@ 0x28
 8003532:	f894 103e 	ldrb.w	r1, [r4, #62]	@ 0x3e
 8003536:	b2d2      	uxtb	r2, r2
 8003538:	6ae0      	ldr	r0, [r4, #44]	@ 0x2c
 800353a:	b2c9      	uxtb	r1, r1
 800353c:	b9c5      	cbnz	r5, 8003570 <HAL_I2C_EV_IRQHandler+0x330>
 800353e:	2a21      	cmp	r2, #33	@ 0x21
 8003540:	d118      	bne.n	8003574 <HAL_I2C_EV_IRQHandler+0x334>
 8003542:	2808      	cmp	r0, #8
 8003544:	d058      	beq.n	80035f8 <HAL_I2C_EV_IRQHandler+0x3b8>
 8003546:	2820      	cmp	r0, #32
 8003548:	d056      	beq.n	80035f8 <HAL_I2C_EV_IRQHandler+0x3b8>
 800354a:	f510 3f80 	cmn.w	r0, #65536	@ 0x10000
 800354e:	d053      	beq.n	80035f8 <HAL_I2C_EV_IRQHandler+0x3b8>
 8003550:	685a      	ldr	r2, [r3, #4]
 8003552:	f422 62e0 	bic.w	r2, r2, #1792	@ 0x700
 8003556:	605a      	str	r2, [r3, #4]
 8003558:	2311      	movs	r3, #17
 800355a:	6323      	str	r3, [r4, #48]	@ 0x30
 800355c:	2300      	movs	r3, #0
 800355e:	f884 303e 	strb.w	r3, [r4, #62]	@ 0x3e
 8003562:	2320      	movs	r3, #32
 8003564:	4620      	mov	r0, r4
 8003566:	f884 303d 	strb.w	r3, [r4, #61]	@ 0x3d
 800356a:	f7ff fcff 	bl	8002f6c <HAL_I2C_MasterTxCpltCallback>
 800356e:	e683      	b.n	8003278 <HAL_I2C_EV_IRQHandler+0x38>
 8003570:	2a21      	cmp	r2, #33	@ 0x21
 8003572:	d005      	beq.n	8003580 <HAL_I2C_EV_IRQHandler+0x340>
 8003574:	2940      	cmp	r1, #64	@ 0x40
 8003576:	f47f ae7f 	bne.w	8003278 <HAL_I2C_EV_IRQHandler+0x38>
 800357a:	2a22      	cmp	r2, #34	@ 0x22
 800357c:	f47f ae7c 	bne.w	8003278 <HAL_I2C_EV_IRQHandler+0x38>
 8003580:	8d62      	ldrh	r2, [r4, #42]	@ 0x2a
 8003582:	b292      	uxth	r2, r2
 8003584:	b91a      	cbnz	r2, 800358e <HAL_I2C_EV_IRQHandler+0x34e>
 8003586:	685a      	ldr	r2, [r3, #4]
 8003588:	f422 6280 	bic.w	r2, r2, #1024	@ 0x400
 800358c:	e6ad      	b.n	80032ea <HAL_I2C_EV_IRQHandler+0xaa>
 800358e:	f894 203e 	ldrb.w	r2, [r4, #62]	@ 0x3e
 8003592:	2a40      	cmp	r2, #64	@ 0x40
 8003594:	d116      	bne.n	80035c4 <HAL_I2C_EV_IRQHandler+0x384>
 8003596:	4620      	mov	r0, r4
 8003598:	b00f      	add	sp, #60	@ 0x3c
 800359a:	e8bd 40f0 	ldmia.w	sp!, {r4, r5, r6, r7, lr}
 800359e:	f7ff bcec 	b.w	8002f7a <I2C_MemoryTransmit_TXE_BTF>
 80035a2:	2e00      	cmp	r6, #0
 80035a4:	f43f ae68 	beq.w	8003278 <HAL_I2C_EV_IRQHandler+0x38>
 80035a8:	0597      	lsls	r7, r2, #22
 80035aa:	f57f ae65 	bpl.w	8003278 <HAL_I2C_EV_IRQHandler+0x38>
 80035ae:	2921      	cmp	r1, #33	@ 0x21
 80035b0:	d139      	bne.n	8003626 <HAL_I2C_EV_IRQHandler+0x3e6>
 80035b2:	6ae1      	ldr	r1, [r4, #44]	@ 0x2c
 80035b4:	f894 203d 	ldrb.w	r2, [r4, #61]	@ 0x3d
 80035b8:	2a21      	cmp	r2, #33	@ 0x21
 80035ba:	f47f ae5d 	bne.w	8003278 <HAL_I2C_EV_IRQHandler+0x38>
 80035be:	8d62      	ldrh	r2, [r4, #42]	@ 0x2a
 80035c0:	b292      	uxth	r2, r2
 80035c2:	b14a      	cbz	r2, 80035d8 <HAL_I2C_EV_IRQHandler+0x398>
 80035c4:	6a62      	ldr	r2, [r4, #36]	@ 0x24
 80035c6:	f812 1b01 	ldrb.w	r1, [r2], #1
 80035ca:	6119      	str	r1, [r3, #16]
 80035cc:	6262      	str	r2, [r4, #36]	@ 0x24
 80035ce:	8d63      	ldrh	r3, [r4, #42]	@ 0x2a
 80035d0:	3b01      	subs	r3, #1
 80035d2:	b29b      	uxth	r3, r3
 80035d4:	8563      	strh	r3, [r4, #42]	@ 0x2a
 80035d6:	e64f      	b.n	8003278 <HAL_I2C_EV_IRQHandler+0x38>
 80035d8:	2908      	cmp	r1, #8
 80035da:	d00d      	beq.n	80035f8 <HAL_I2C_EV_IRQHandler+0x3b8>
 80035dc:	2920      	cmp	r1, #32
 80035de:	d00b      	beq.n	80035f8 <HAL_I2C_EV_IRQHandler+0x3b8>
 80035e0:	f511 3f80 	cmn.w	r1, #65536	@ 0x10000
 80035e4:	d008      	beq.n	80035f8 <HAL_I2C_EV_IRQHandler+0x3b8>
 80035e6:	6859      	ldr	r1, [r3, #4]
 80035e8:	f421 61e0 	bic.w	r1, r1, #1792	@ 0x700
 80035ec:	6059      	str	r1, [r3, #4]
 80035ee:	2311      	movs	r3, #17
 80035f0:	6323      	str	r3, [r4, #48]	@ 0x30
 80035f2:	f884 203e 	strb.w	r2, [r4, #62]	@ 0x3e
 80035f6:	e7b4      	b.n	8003562 <HAL_I2C_EV_IRQHandler+0x322>
 80035f8:	685a      	ldr	r2, [r3, #4]
 80035fa:	4620      	mov	r0, r4
 80035fc:	f422 62e0 	bic.w	r2, r2, #1792	@ 0x700
 8003600:	605a      	str	r2, [r3, #4]
 8003602:	681a      	ldr	r2, [r3, #0]
 8003604:	f442 7200 	orr.w	r2, r2, #512	@ 0x200
 8003608:	601a      	str	r2, [r3, #0]
 800360a:	2300      	movs	r3, #0
 800360c:	2220      	movs	r2, #32
 800360e:	6323      	str	r3, [r4, #48]	@ 0x30
 8003610:	f884 203d 	strb.w	r2, [r4, #61]	@ 0x3d
 8003614:	f894 203e 	ldrb.w	r2, [r4, #62]	@ 0x3e
 8003618:	f884 303e 	strb.w	r3, [r4, #62]	@ 0x3e
 800361c:	2a40      	cmp	r2, #64	@ 0x40
 800361e:	d1a4      	bne.n	800356a <HAL_I2C_EV_IRQHandler+0x32a>
 8003620:	f7ff fcaa 	bl	8002f78 <HAL_I2C_MemTxCpltCallback>
 8003624:	e628      	b.n	8003278 <HAL_I2C_EV_IRQHandler+0x38>
 8003626:	2d40      	cmp	r5, #64	@ 0x40
 8003628:	f47f ae26 	bne.w	8003278 <HAL_I2C_EV_IRQHandler+0x38>
 800362c:	e7b3      	b.n	8003596 <HAL_I2C_EV_IRQHandler+0x356>
 800362e:	bf00      	nop
 8003630:	fffeffeb 	.word	0xfffeffeb
 8003634:	00010014 	.word	0x00010014
 8003638:	01000101 	.word	0x01000101
 800363c:	6859      	ldr	r1, [r3, #4]
 800363e:	050e      	lsls	r6, r1, #20
 8003640:	f53f ae1a 	bmi.w	8003278 <HAL_I2C_EV_IRQHandler+0x38>
 8003644:	0645      	lsls	r5, r0, #25
 8003646:	f000 0104 	and.w	r1, r0, #4
 800364a:	f140 8086 	bpl.w	800375a <HAL_I2C_EV_IRQHandler+0x51a>
 800364e:	0550      	lsls	r0, r2, #21
 8003650:	f140 8083 	bpl.w	800375a <HAL_I2C_EV_IRQHandler+0x51a>
 8003654:	2900      	cmp	r1, #0
 8003656:	f040 8083 	bne.w	8003760 <HAL_I2C_EV_IRQHandler+0x520>
 800365a:	f894 203d 	ldrb.w	r2, [r4, #61]	@ 0x3d
 800365e:	2a22      	cmp	r2, #34	@ 0x22
 8003660:	f47f ae0a 	bne.w	8003278 <HAL_I2C_EV_IRQHandler+0x38>
 8003664:	6ae0      	ldr	r0, [r4, #44]	@ 0x2c
 8003666:	8d62      	ldrh	r2, [r4, #42]	@ 0x2a
 8003668:	b292      	uxth	r2, r2
 800366a:	2a03      	cmp	r2, #3
 800366c:	d914      	bls.n	8003698 <HAL_I2C_EV_IRQHandler+0x458>
 800366e:	691a      	ldr	r2, [r3, #16]
 8003670:	6a63      	ldr	r3, [r4, #36]	@ 0x24
 8003672:	701a      	strb	r2, [r3, #0]
 8003674:	6a63      	ldr	r3, [r4, #36]	@ 0x24
 8003676:	3301      	adds	r3, #1
 8003678:	6263      	str	r3, [r4, #36]	@ 0x24
 800367a:	8d63      	ldrh	r3, [r4, #42]	@ 0x2a
 800367c:	3b01      	subs	r3, #1
 800367e:	b29b      	uxth	r3, r3
 8003680:	8563      	strh	r3, [r4, #42]	@ 0x2a
 8003682:	8d63      	ldrh	r3, [r4, #42]	@ 0x2a
 8003684:	b29b      	uxth	r3, r3
 8003686:	2b03      	cmp	r3, #3
 8003688:	f47f adf6 	bne.w	8003278 <HAL_I2C_EV_IRQHandler+0x38>
 800368c:	6822      	ldr	r2, [r4, #0]
 800368e:	6853      	ldr	r3, [r2, #4]
 8003690:	f423 6380 	bic.w	r3, r3, #1024	@ 0x400
 8003694:	6053      	str	r3, [r2, #4]
 8003696:	e5ef      	b.n	8003278 <HAL_I2C_EV_IRQHandler+0x38>
 8003698:	6ae5      	ldr	r5, [r4, #44]	@ 0x2c
 800369a:	2d02      	cmp	r5, #2
 800369c:	f43f af73 	beq.w	8003586 <HAL_I2C_EV_IRQHandler+0x346>
 80036a0:	2a01      	cmp	r2, #1
 80036a2:	f63f af70 	bhi.w	8003586 <HAL_I2C_EV_IRQHandler+0x346>
 80036a6:	910b      	str	r1, [sp, #44]	@ 0x2c
 80036a8:	f246 11a8 	movw	r1, #25000	@ 0x61a8
 80036ac:	4a78      	ldr	r2, [pc, #480]	@ (8003890 <HAL_I2C_EV_IRQHandler+0x650>)
 80036ae:	6812      	ldr	r2, [r2, #0]
 80036b0:	fbb2 f2f1 	udiv	r2, r2, r1
 80036b4:	eb02 0282 	add.w	r2, r2, r2, lsl #2
 80036b8:	920b      	str	r2, [sp, #44]	@ 0x2c
 80036ba:	9a0b      	ldr	r2, [sp, #44]	@ 0x2c
 80036bc:	3a01      	subs	r2, #1
 80036be:	920b      	str	r2, [sp, #44]	@ 0x2c
 80036c0:	990b      	ldr	r1, [sp, #44]	@ 0x2c
 80036c2:	b9d1      	cbnz	r1, 80036fa <HAL_I2C_EV_IRQHandler+0x4ba>
 80036c4:	6c22      	ldr	r2, [r4, #64]	@ 0x40
 80036c6:	4620      	mov	r0, r4
 80036c8:	f042 0220 	orr.w	r2, r2, #32
 80036cc:	6422      	str	r2, [r4, #64]	@ 0x40
 80036ce:	685a      	ldr	r2, [r3, #4]
 80036d0:	f422 62e0 	bic.w	r2, r2, #1792	@ 0x700
 80036d4:	605a      	str	r2, [r3, #4]
 80036d6:	691a      	ldr	r2, [r3, #16]
 80036d8:	6a63      	ldr	r3, [r4, #36]	@ 0x24
 80036da:	701a      	strb	r2, [r3, #0]
 80036dc:	6a63      	ldr	r3, [r4, #36]	@ 0x24
 80036de:	3301      	adds	r3, #1
 80036e0:	6263      	str	r3, [r4, #36]	@ 0x24
 80036e2:	8d63      	ldrh	r3, [r4, #42]	@ 0x2a
 80036e4:	3b01      	subs	r3, #1
 80036e6:	b29b      	uxth	r3, r3
 80036e8:	8563      	strh	r3, [r4, #42]	@ 0x2a
 80036ea:	2320      	movs	r3, #32
 80036ec:	f884 303d 	strb.w	r3, [r4, #61]	@ 0x3d
 80036f0:	f884 103e 	strb.w	r1, [r4, #62]	@ 0x3e
 80036f4:	f7ff fc9a 	bl	800302c <HAL_I2C_ErrorCallback>
 80036f8:	e5be      	b.n	8003278 <HAL_I2C_EV_IRQHandler+0x38>
 80036fa:	681a      	ldr	r2, [r3, #0]
 80036fc:	f412 7200 	ands.w	r2, r2, #512	@ 0x200
 8003700:	d1db      	bne.n	80036ba <HAL_I2C_EV_IRQHandler+0x47a>
 8003702:	6819      	ldr	r1, [r3, #0]
 8003704:	f421 6180 	bic.w	r1, r1, #1024	@ 0x400
 8003708:	6019      	str	r1, [r3, #0]
 800370a:	6859      	ldr	r1, [r3, #4]
 800370c:	f421 61e0 	bic.w	r1, r1, #1792	@ 0x700
 8003710:	6059      	str	r1, [r3, #4]
 8003712:	6919      	ldr	r1, [r3, #16]
 8003714:	6a63      	ldr	r3, [r4, #36]	@ 0x24
 8003716:	7019      	strb	r1, [r3, #0]
 8003718:	6a63      	ldr	r3, [r4, #36]	@ 0x24
 800371a:	3301      	adds	r3, #1
 800371c:	6263      	str	r3, [r4, #36]	@ 0x24
 800371e:	8d63      	ldrh	r3, [r4, #42]	@ 0x2a
 8003720:	3b01      	subs	r3, #1
 8003722:	b29b      	uxth	r3, r3
 8003724:	8563      	strh	r3, [r4, #42]	@ 0x2a
 8003726:	2320      	movs	r3, #32
 8003728:	f884 303d 	strb.w	r3, [r4, #61]	@ 0x3d
 800372c:	f894 303e 	ldrb.w	r3, [r4, #62]	@ 0x3e
 8003730:	f884 203e 	strb.w	r2, [r4, #62]	@ 0x3e
 8003734:	2b40      	cmp	r3, #64	@ 0x40
 8003736:	d104      	bne.n	8003742 <HAL_I2C_EV_IRQHandler+0x502>
 8003738:	6322      	str	r2, [r4, #48]	@ 0x30
 800373a:	4620      	mov	r0, r4
 800373c:	f7ff fc75 	bl	800302a <HAL_I2C_MemRxCpltCallback>
 8003740:	e59a      	b.n	8003278 <HAL_I2C_EV_IRQHandler+0x38>
 8003742:	2808      	cmp	r0, #8
 8003744:	d001      	beq.n	800374a <HAL_I2C_EV_IRQHandler+0x50a>
 8003746:	2820      	cmp	r0, #32
 8003748:	d101      	bne.n	800374e <HAL_I2C_EV_IRQHandler+0x50e>
 800374a:	2300      	movs	r3, #0
 800374c:	e000      	b.n	8003750 <HAL_I2C_EV_IRQHandler+0x510>
 800374e:	2312      	movs	r3, #18
 8003750:	4620      	mov	r0, r4
 8003752:	6323      	str	r3, [r4, #48]	@ 0x30
 8003754:	f7ff fc0b 	bl	8002f6e <HAL_I2C_MasterRxCpltCallback>
 8003758:	e58e      	b.n	8003278 <HAL_I2C_EV_IRQHandler+0x38>
 800375a:	2900      	cmp	r1, #0
 800375c:	f43f ad8c 	beq.w	8003278 <HAL_I2C_EV_IRQHandler+0x38>
 8003760:	0592      	lsls	r2, r2, #22
 8003762:	f57f ad89 	bpl.w	8003278 <HAL_I2C_EV_IRQHandler+0x38>
 8003766:	6ae2      	ldr	r2, [r4, #44]	@ 0x2c
 8003768:	8d60      	ldrh	r0, [r4, #42]	@ 0x2a
 800376a:	6a61      	ldr	r1, [r4, #36]	@ 0x24
 800376c:	b280      	uxth	r0, r0
 800376e:	2804      	cmp	r0, #4
 8003770:	d109      	bne.n	8003786 <HAL_I2C_EV_IRQHandler+0x546>
 8003772:	685a      	ldr	r2, [r3, #4]
 8003774:	f422 6280 	bic.w	r2, r2, #1024	@ 0x400
 8003778:	605a      	str	r2, [r3, #4]
 800377a:	691b      	ldr	r3, [r3, #16]
 800377c:	700b      	strb	r3, [r1, #0]
 800377e:	6a63      	ldr	r3, [r4, #36]	@ 0x24
 8003780:	3301      	adds	r3, #1
 8003782:	6263      	str	r3, [r4, #36]	@ 0x24
 8003784:	e723      	b.n	80035ce <HAL_I2C_EV_IRQHandler+0x38e>
 8003786:	8d60      	ldrh	r0, [r4, #42]	@ 0x2a
 8003788:	b280      	uxth	r0, r0
 800378a:	2803      	cmp	r0, #3
 800378c:	d10c      	bne.n	80037a8 <HAL_I2C_EV_IRQHandler+0x568>
 800378e:	6858      	ldr	r0, [r3, #4]
 8003790:	2a04      	cmp	r2, #4
 8003792:	f420 6080 	bic.w	r0, r0, #1024	@ 0x400
 8003796:	6058      	str	r0, [r3, #4]
 8003798:	d0ef      	beq.n	800377a <HAL_I2C_EV_IRQHandler+0x53a>
 800379a:	2a02      	cmp	r2, #2
 800379c:	d0ed      	beq.n	800377a <HAL_I2C_EV_IRQHandler+0x53a>
 800379e:	681a      	ldr	r2, [r3, #0]
 80037a0:	f422 6280 	bic.w	r2, r2, #1024	@ 0x400
 80037a4:	601a      	str	r2, [r3, #0]
 80037a6:	e7e8      	b.n	800377a <HAL_I2C_EV_IRQHandler+0x53a>
 80037a8:	8d60      	ldrh	r0, [r4, #42]	@ 0x2a
 80037aa:	b280      	uxth	r0, r0
 80037ac:	2802      	cmp	r0, #2
 80037ae:	d1e4      	bne.n	800377a <HAL_I2C_EV_IRQHandler+0x53a>
 80037b0:	2a04      	cmp	r2, #4
 80037b2:	d033      	beq.n	800381c <HAL_I2C_EV_IRQHandler+0x5dc>
 80037b4:	d807      	bhi.n	80037c6 <HAL_I2C_EV_IRQHandler+0x586>
 80037b6:	2a01      	cmp	r2, #1
 80037b8:	d007      	beq.n	80037ca <HAL_I2C_EV_IRQHandler+0x58a>
 80037ba:	2a02      	cmp	r2, #2
 80037bc:	d02e      	beq.n	800381c <HAL_I2C_EV_IRQHandler+0x5dc>
 80037be:	6818      	ldr	r0, [r3, #0]
 80037c0:	f440 7000 	orr.w	r0, r0, #512	@ 0x200
 80037c4:	e004      	b.n	80037d0 <HAL_I2C_EV_IRQHandler+0x590>
 80037c6:	2a10      	cmp	r2, #16
 80037c8:	d1f9      	bne.n	80037be <HAL_I2C_EV_IRQHandler+0x57e>
 80037ca:	6818      	ldr	r0, [r3, #0]
 80037cc:	f420 6080 	bic.w	r0, r0, #1024	@ 0x400
 80037d0:	6018      	str	r0, [r3, #0]
 80037d2:	691b      	ldr	r3, [r3, #16]
 80037d4:	700b      	strb	r3, [r1, #0]
 80037d6:	6a61      	ldr	r1, [r4, #36]	@ 0x24
 80037d8:	1c4b      	adds	r3, r1, #1
 80037da:	6263      	str	r3, [r4, #36]	@ 0x24
 80037dc:	8d63      	ldrh	r3, [r4, #42]	@ 0x2a
 80037de:	3b01      	subs	r3, #1
 80037e0:	b29b      	uxth	r3, r3
 80037e2:	8563      	strh	r3, [r4, #42]	@ 0x2a
 80037e4:	6823      	ldr	r3, [r4, #0]
 80037e6:	691b      	ldr	r3, [r3, #16]
 80037e8:	704b      	strb	r3, [r1, #1]
 80037ea:	6a63      	ldr	r3, [r4, #36]	@ 0x24
 80037ec:	6821      	ldr	r1, [r4, #0]
 80037ee:	3301      	adds	r3, #1
 80037f0:	6263      	str	r3, [r4, #36]	@ 0x24
 80037f2:	8d63      	ldrh	r3, [r4, #42]	@ 0x2a
 80037f4:	3b01      	subs	r3, #1
 80037f6:	b29b      	uxth	r3, r3
 80037f8:	8563      	strh	r3, [r4, #42]	@ 0x2a
 80037fa:	684b      	ldr	r3, [r1, #4]
 80037fc:	f423 7340 	bic.w	r3, r3, #768	@ 0x300
 8003800:	604b      	str	r3, [r1, #4]
 8003802:	2320      	movs	r3, #32
 8003804:	f884 303d 	strb.w	r3, [r4, #61]	@ 0x3d
 8003808:	f894 303e 	ldrb.w	r3, [r4, #62]	@ 0x3e
 800380c:	2b40      	cmp	r3, #64	@ 0x40
 800380e:	f04f 0300 	mov.w	r3, #0
 8003812:	f884 303e 	strb.w	r3, [r4, #62]	@ 0x3e
 8003816:	d105      	bne.n	8003824 <HAL_I2C_EV_IRQHandler+0x5e4>
 8003818:	6323      	str	r3, [r4, #48]	@ 0x30
 800381a:	e78e      	b.n	800373a <HAL_I2C_EV_IRQHandler+0x4fa>
 800381c:	6818      	ldr	r0, [r3, #0]
 800381e:	f440 6080 	orr.w	r0, r0, #1024	@ 0x400
 8003822:	e7d5      	b.n	80037d0 <HAL_I2C_EV_IRQHandler+0x590>
 8003824:	2a08      	cmp	r2, #8
 8003826:	d090      	beq.n	800374a <HAL_I2C_EV_IRQHandler+0x50a>
 8003828:	2a20      	cmp	r2, #32
 800382a:	e78d      	b.n	8003748 <HAL_I2C_EV_IRQHandler+0x508>
 800382c:	6c20      	ldr	r0, [r4, #64]	@ 0x40
 800382e:	b310      	cbz	r0, 8003876 <HAL_I2C_EV_IRQHandler+0x636>
 8003830:	2500      	movs	r5, #0
 8003832:	6958      	ldr	r0, [r3, #20]
 8003834:	0787      	lsls	r7, r0, #30
 8003836:	d52d      	bpl.n	8003894 <HAL_I2C_EV_IRQHandler+0x654>
 8003838:	0596      	lsls	r6, r2, #22
 800383a:	d52b      	bpl.n	8003894 <HAL_I2C_EV_IRQHandler+0x654>
 800383c:	6c22      	ldr	r2, [r4, #64]	@ 0x40
 800383e:	b102      	cbz	r2, 8003842 <HAL_I2C_EV_IRQHandler+0x602>
 8003840:	699d      	ldr	r5, [r3, #24]
 8003842:	f894 203d 	ldrb.w	r2, [r4, #61]	@ 0x3d
 8003846:	f002 0228 	and.w	r2, r2, #40	@ 0x28
 800384a:	2a28      	cmp	r2, #40	@ 0x28
 800384c:	d116      	bne.n	800387c <HAL_I2C_EV_IRQHandler+0x63c>
 800384e:	685a      	ldr	r2, [r3, #4]
 8003850:	062f      	lsls	r7, r5, #24
 8003852:	f422 6280 	bic.w	r2, r2, #1024	@ 0x400
 8003856:	605a      	str	r2, [r3, #4]
 8003858:	f04f 0300 	mov.w	r3, #0
 800385c:	f085 0104 	eor.w	r1, r5, #4
 8003860:	4620      	mov	r0, r4
 8003862:	bf54      	ite	pl
 8003864:	89a2      	ldrhpl	r2, [r4, #12]
 8003866:	8b22      	ldrhmi	r2, [r4, #24]
 8003868:	f3c1 0180 	ubfx	r1, r1, #2, #1
 800386c:	f884 303c 	strb.w	r3, [r4, #60]	@ 0x3c
 8003870:	f7ff fb80 	bl	8002f74 <HAL_I2C_AddrCallback>
 8003874:	e500      	b.n	8003278 <HAL_I2C_EV_IRQHandler+0x38>
 8003876:	699d      	ldr	r5, [r3, #24]
 8003878:	6958      	ldr	r0, [r3, #20]
 800387a:	e7db      	b.n	8003834 <HAL_I2C_EV_IRQHandler+0x5f4>
 800387c:	2200      	movs	r2, #0
 800387e:	920c      	str	r2, [sp, #48]	@ 0x30
 8003880:	6959      	ldr	r1, [r3, #20]
 8003882:	910c      	str	r1, [sp, #48]	@ 0x30
 8003884:	699b      	ldr	r3, [r3, #24]
 8003886:	f884 203c 	strb.w	r2, [r4, #60]	@ 0x3c
 800388a:	930c      	str	r3, [sp, #48]	@ 0x30
 800388c:	9b0c      	ldr	r3, [sp, #48]	@ 0x30
 800388e:	e4f3      	b.n	8003278 <HAL_I2C_EV_IRQHandler+0x38>
 8003890:	20000004 	.word	0x20000004
 8003894:	06c6      	lsls	r6, r0, #27
 8003896:	f140 80b1 	bpl.w	80039fc <HAL_I2C_EV_IRQHandler+0x7bc>
 800389a:	0595      	lsls	r5, r2, #22
 800389c:	f140 80ae 	bpl.w	80039fc <HAL_I2C_EV_IRQHandler+0x7bc>
 80038a0:	f894 503d 	ldrb.w	r5, [r4, #61]	@ 0x3d
 80038a4:	685a      	ldr	r2, [r3, #4]
 80038a6:	b2ed      	uxtb	r5, r5
 80038a8:	f422 62e0 	bic.w	r2, r2, #1792	@ 0x700
 80038ac:	605a      	str	r2, [r3, #4]
 80038ae:	2200      	movs	r2, #0
 80038b0:	920d      	str	r2, [sp, #52]	@ 0x34
 80038b2:	695a      	ldr	r2, [r3, #20]
 80038b4:	920d      	str	r2, [sp, #52]	@ 0x34
 80038b6:	681a      	ldr	r2, [r3, #0]
 80038b8:	f042 0201 	orr.w	r2, r2, #1
 80038bc:	601a      	str	r2, [r3, #0]
 80038be:	9a0d      	ldr	r2, [sp, #52]	@ 0x34
 80038c0:	681a      	ldr	r2, [r3, #0]
 80038c2:	f422 6280 	bic.w	r2, r2, #1024	@ 0x400
 80038c6:	601a      	str	r2, [r3, #0]
 80038c8:	685a      	ldr	r2, [r3, #4]
 80038ca:	0510      	lsls	r0, r2, #20
 80038cc:	d520      	bpl.n	8003910 <HAL_I2C_EV_IRQHandler+0x6d0>
 80038ce:	f005 02f7 	and.w	r2, r5, #247	@ 0xf7
 80038d2:	2a22      	cmp	r2, #34	@ 0x22
 80038d4:	d14a      	bne.n	800396c <HAL_I2C_EV_IRQHandler+0x72c>
 80038d6:	6ba0      	ldr	r0, [r4, #56]	@ 0x38
 80038d8:	6802      	ldr	r2, [r0, #0]
 80038da:	6852      	ldr	r2, [r2, #4]
 80038dc:	b292      	uxth	r2, r2
 80038de:	8562      	strh	r2, [r4, #42]	@ 0x2a
 80038e0:	8d62      	ldrh	r2, [r4, #42]	@ 0x2a
 80038e2:	b292      	uxth	r2, r2
 80038e4:	b11a      	cbz	r2, 80038ee <HAL_I2C_EV_IRQHandler+0x6ae>
 80038e6:	6c22      	ldr	r2, [r4, #64]	@ 0x40
 80038e8:	f042 0204 	orr.w	r2, r2, #4
 80038ec:	6422      	str	r2, [r4, #64]	@ 0x40
 80038ee:	685a      	ldr	r2, [r3, #4]
 80038f0:	f422 6200 	bic.w	r2, r2, #2048	@ 0x800
 80038f4:	605a      	str	r2, [r3, #4]
 80038f6:	f7ff f93b 	bl	8002b70 <HAL_DMA_GetState>
 80038fa:	2801      	cmp	r0, #1
 80038fc:	d008      	beq.n	8003910 <HAL_I2C_EV_IRQHandler+0x6d0>
 80038fe:	6ba0      	ldr	r0, [r4, #56]	@ 0x38
 8003900:	4b79      	ldr	r3, [pc, #484]	@ (8003ae8 <HAL_I2C_EV_IRQHandler+0x8a8>)
 8003902:	6343      	str	r3, [r0, #52]	@ 0x34
 8003904:	f7ff f8ee 	bl	8002ae4 <HAL_DMA_Abort_IT>
 8003908:	b110      	cbz	r0, 8003910 <HAL_I2C_EV_IRQHandler+0x6d0>
 800390a:	6ba0      	ldr	r0, [r4, #56]	@ 0x38
 800390c:	6b43      	ldr	r3, [r0, #52]	@ 0x34
 800390e:	4798      	blx	r3
 8003910:	8d63      	ldrh	r3, [r4, #42]	@ 0x2a
 8003912:	b29b      	uxth	r3, r3
 8003914:	b313      	cbz	r3, 800395c <HAL_I2C_EV_IRQHandler+0x71c>
 8003916:	6823      	ldr	r3, [r4, #0]
 8003918:	695a      	ldr	r2, [r3, #20]
 800391a:	0751      	lsls	r1, r2, #29
 800391c:	d509      	bpl.n	8003932 <HAL_I2C_EV_IRQHandler+0x6f2>
 800391e:	691a      	ldr	r2, [r3, #16]
 8003920:	6a63      	ldr	r3, [r4, #36]	@ 0x24
 8003922:	701a      	strb	r2, [r3, #0]
 8003924:	6a63      	ldr	r3, [r4, #36]	@ 0x24
 8003926:	3301      	adds	r3, #1
 8003928:	6263      	str	r3, [r4, #36]	@ 0x24
 800392a:	8d63      	ldrh	r3, [r4, #42]	@ 0x2a
 800392c:	3b01      	subs	r3, #1
 800392e:	b29b      	uxth	r3, r3
 8003930:	8563      	strh	r3, [r4, #42]	@ 0x2a
 8003932:	6823      	ldr	r3, [r4, #0]
 8003934:	695a      	ldr	r2, [r3, #20]
 8003936:	0652      	lsls	r2, r2, #25
 8003938:	d509      	bpl.n	800394e <HAL_I2C_EV_IRQHandler+0x70e>
 800393a:	691a      	ldr	r2, [r3, #16]
 800393c:	6a63      	ldr	r3, [r4, #36]	@ 0x24
 800393e:	701a      	strb	r2, [r3, #0]
 8003940:	6a63      	ldr	r3, [r4, #36]	@ 0x24
 8003942:	3301      	adds	r3, #1
 8003944:	6263      	str	r3, [r4, #36]	@ 0x24
 8003946:	8d63      	ldrh	r3, [r4, #42]	@ 0x2a
 8003948:	3b01      	subs	r3, #1
 800394a:	b29b      	uxth	r3, r3
 800394c:	8563      	strh	r3, [r4, #42]	@ 0x2a
 800394e:	8d63      	ldrh	r3, [r4, #42]	@ 0x2a
 8003950:	b29b      	uxth	r3, r3
 8003952:	b11b      	cbz	r3, 800395c <HAL_I2C_EV_IRQHandler+0x71c>
 8003954:	6c23      	ldr	r3, [r4, #64]	@ 0x40
 8003956:	f043 0304 	orr.w	r3, r3, #4
 800395a:	6423      	str	r3, [r4, #64]	@ 0x40
 800395c:	6c23      	ldr	r3, [r4, #64]	@ 0x40
 800395e:	b313      	cbz	r3, 80039a6 <HAL_I2C_EV_IRQHandler+0x766>
 8003960:	4620      	mov	r0, r4
 8003962:	b00f      	add	sp, #60	@ 0x3c
 8003964:	e8bd 40f0 	ldmia.w	sp!, {r4, r5, r6, r7, lr}
 8003968:	f7ff bbc2 	b.w	80030f0 <I2C_ITError>
 800396c:	6b60      	ldr	r0, [r4, #52]	@ 0x34
 800396e:	6802      	ldr	r2, [r0, #0]
 8003970:	6852      	ldr	r2, [r2, #4]
 8003972:	b292      	uxth	r2, r2
 8003974:	8562      	strh	r2, [r4, #42]	@ 0x2a
 8003976:	8d62      	ldrh	r2, [r4, #42]	@ 0x2a
 8003978:	b292      	uxth	r2, r2
 800397a:	b11a      	cbz	r2, 8003984 <HAL_I2C_EV_IRQHandler+0x744>
 800397c:	6c22      	ldr	r2, [r4, #64]	@ 0x40
 800397e:	f042 0204 	orr.w	r2, r2, #4
 8003982:	6422      	str	r2, [r4, #64]	@ 0x40
 8003984:	685a      	ldr	r2, [r3, #4]
 8003986:	f422 6200 	bic.w	r2, r2, #2048	@ 0x800
 800398a:	605a      	str	r2, [r3, #4]
 800398c:	f7ff f8f0 	bl	8002b70 <HAL_DMA_GetState>
 8003990:	2801      	cmp	r0, #1
 8003992:	d0bd      	beq.n	8003910 <HAL_I2C_EV_IRQHandler+0x6d0>
 8003994:	6b60      	ldr	r0, [r4, #52]	@ 0x34
 8003996:	4b54      	ldr	r3, [pc, #336]	@ (8003ae8 <HAL_I2C_EV_IRQHandler+0x8a8>)
 8003998:	6343      	str	r3, [r0, #52]	@ 0x34
 800399a:	f7ff f8a3 	bl	8002ae4 <HAL_DMA_Abort_IT>
 800399e:	2800      	cmp	r0, #0
 80039a0:	d0b6      	beq.n	8003910 <HAL_I2C_EV_IRQHandler+0x6d0>
 80039a2:	6b60      	ldr	r0, [r4, #52]	@ 0x34
 80039a4:	e7b2      	b.n	800390c <HAL_I2C_EV_IRQHandler+0x6cc>
 80039a6:	2d2a      	cmp	r5, #42	@ 0x2a
 80039a8:	d106      	bne.n	80039b8 <HAL_I2C_EV_IRQHandler+0x778>
 80039aa:	6323      	str	r3, [r4, #48]	@ 0x30
 80039ac:	2328      	movs	r3, #40	@ 0x28
 80039ae:	4620      	mov	r0, r4
 80039b0:	f884 303d 	strb.w	r3, [r4, #61]	@ 0x3d
 80039b4:	f7ff fadd 	bl	8002f72 <HAL_I2C_SlaveRxCpltCallback>
 80039b8:	f894 303d 	ldrb.w	r3, [r4, #61]	@ 0x3d
 80039bc:	2b28      	cmp	r3, #40	@ 0x28
 80039be:	d10c      	bne.n	80039da <HAL_I2C_EV_IRQHandler+0x79a>
 80039c0:	4b4a      	ldr	r3, [pc, #296]	@ (8003aec <HAL_I2C_EV_IRQHandler+0x8ac>)
 80039c2:	2220      	movs	r2, #32
 80039c4:	62e3      	str	r3, [r4, #44]	@ 0x2c
 80039c6:	2300      	movs	r3, #0
 80039c8:	4620      	mov	r0, r4
 80039ca:	6323      	str	r3, [r4, #48]	@ 0x30
 80039cc:	f884 203d 	strb.w	r2, [r4, #61]	@ 0x3d
 80039d0:	f884 303e 	strb.w	r3, [r4, #62]	@ 0x3e
 80039d4:	f7ff facf 	bl	8002f76 <HAL_I2C_ListenCpltCallback>
 80039d8:	e44e      	b.n	8003278 <HAL_I2C_EV_IRQHandler+0x38>
 80039da:	6b23      	ldr	r3, [r4, #48]	@ 0x30
 80039dc:	2b22      	cmp	r3, #34	@ 0x22
 80039de:	d002      	beq.n	80039e6 <HAL_I2C_EV_IRQHandler+0x7a6>
 80039e0:	2d22      	cmp	r5, #34	@ 0x22
 80039e2:	f47f ac49 	bne.w	8003278 <HAL_I2C_EV_IRQHandler+0x38>
 80039e6:	2300      	movs	r3, #0
 80039e8:	2220      	movs	r2, #32
 80039ea:	6323      	str	r3, [r4, #48]	@ 0x30
 80039ec:	f884 203d 	strb.w	r2, [r4, #61]	@ 0x3d
 80039f0:	f884 303e 	strb.w	r3, [r4, #62]	@ 0x3e
 80039f4:	4620      	mov	r0, r4
 80039f6:	f7ff fabc 	bl	8002f72 <HAL_I2C_SlaveRxCpltCallback>
 80039fa:	e43d      	b.n	8003278 <HAL_I2C_EV_IRQHandler+0x38>
 80039fc:	f001 01f7 	and.w	r1, r1, #247	@ 0xf7
 8003a00:	2921      	cmp	r1, #33	@ 0x21
 8003a02:	f000 0504 	and.w	r5, r0, #4
 8003a06:	d135      	bne.n	8003a74 <HAL_I2C_EV_IRQHandler+0x834>
 8003a08:	0607      	lsls	r7, r0, #24
 8003a0a:	d527      	bpl.n	8003a5c <HAL_I2C_EV_IRQHandler+0x81c>
 8003a0c:	0556      	lsls	r6, r2, #21
 8003a0e:	d525      	bpl.n	8003a5c <HAL_I2C_EV_IRQHandler+0x81c>
 8003a10:	bb3d      	cbnz	r5, 8003a62 <HAL_I2C_EV_IRQHandler+0x822>
 8003a12:	f894 003d 	ldrb.w	r0, [r4, #61]	@ 0x3d
 8003a16:	8d62      	ldrh	r2, [r4, #42]	@ 0x2a
 8003a18:	b2c0      	uxtb	r0, r0
 8003a1a:	b292      	uxth	r2, r2
 8003a1c:	2a00      	cmp	r2, #0
 8003a1e:	f43f ac2b 	beq.w	8003278 <HAL_I2C_EV_IRQHandler+0x38>
 8003a22:	6a62      	ldr	r2, [r4, #36]	@ 0x24
 8003a24:	f812 5b01 	ldrb.w	r5, [r2], #1
 8003a28:	611d      	str	r5, [r3, #16]
 8003a2a:	6262      	str	r2, [r4, #36]	@ 0x24
 8003a2c:	8d62      	ldrh	r2, [r4, #42]	@ 0x2a
 8003a2e:	3a01      	subs	r2, #1
 8003a30:	b292      	uxth	r2, r2
 8003a32:	8562      	strh	r2, [r4, #42]	@ 0x2a
 8003a34:	8d62      	ldrh	r2, [r4, #42]	@ 0x2a
 8003a36:	b292      	uxth	r2, r2
 8003a38:	2a00      	cmp	r2, #0
 8003a3a:	f47f ac1d 	bne.w	8003278 <HAL_I2C_EV_IRQHandler+0x38>
 8003a3e:	2829      	cmp	r0, #41	@ 0x29
 8003a40:	f47f ac1a 	bne.w	8003278 <HAL_I2C_EV_IRQHandler+0x38>
 8003a44:	685a      	ldr	r2, [r3, #4]
 8003a46:	4620      	mov	r0, r4
 8003a48:	f422 6280 	bic.w	r2, r2, #1024	@ 0x400
 8003a4c:	605a      	str	r2, [r3, #4]
 8003a4e:	2328      	movs	r3, #40	@ 0x28
 8003a50:	6321      	str	r1, [r4, #48]	@ 0x30
 8003a52:	f884 303d 	strb.w	r3, [r4, #61]	@ 0x3d
 8003a56:	f7ff fa8b 	bl	8002f70 <HAL_I2C_SlaveTxCpltCallback>
 8003a5a:	e40d      	b.n	8003278 <HAL_I2C_EV_IRQHandler+0x38>
 8003a5c:	2d00      	cmp	r5, #0
 8003a5e:	f43f ac0b 	beq.w	8003278 <HAL_I2C_EV_IRQHandler+0x38>
 8003a62:	0595      	lsls	r5, r2, #22
 8003a64:	f57f ac08 	bpl.w	8003278 <HAL_I2C_EV_IRQHandler+0x38>
 8003a68:	8d62      	ldrh	r2, [r4, #42]	@ 0x2a
 8003a6a:	b292      	uxth	r2, r2
 8003a6c:	2a00      	cmp	r2, #0
 8003a6e:	f43f ac03 	beq.w	8003278 <HAL_I2C_EV_IRQHandler+0x38>
 8003a72:	e5a7      	b.n	80035c4 <HAL_I2C_EV_IRQHandler+0x384>
 8003a74:	0640      	lsls	r0, r0, #25
 8003a76:	d527      	bpl.n	8003ac8 <HAL_I2C_EV_IRQHandler+0x888>
 8003a78:	0551      	lsls	r1, r2, #21
 8003a7a:	d525      	bpl.n	8003ac8 <HAL_I2C_EV_IRQHandler+0x888>
 8003a7c:	bb3d      	cbnz	r5, 8003ace <HAL_I2C_EV_IRQHandler+0x88e>
 8003a7e:	f894 203d 	ldrb.w	r2, [r4, #61]	@ 0x3d
 8003a82:	8d61      	ldrh	r1, [r4, #42]	@ 0x2a
 8003a84:	b2d2      	uxtb	r2, r2
 8003a86:	b289      	uxth	r1, r1
 8003a88:	2900      	cmp	r1, #0
 8003a8a:	f43f abf5 	beq.w	8003278 <HAL_I2C_EV_IRQHandler+0x38>
 8003a8e:	6919      	ldr	r1, [r3, #16]
 8003a90:	6a63      	ldr	r3, [r4, #36]	@ 0x24
 8003a92:	7019      	strb	r1, [r3, #0]
 8003a94:	6a63      	ldr	r3, [r4, #36]	@ 0x24
 8003a96:	3301      	adds	r3, #1
 8003a98:	6263      	str	r3, [r4, #36]	@ 0x24
 8003a9a:	8d63      	ldrh	r3, [r4, #42]	@ 0x2a
 8003a9c:	3b01      	subs	r3, #1
 8003a9e:	b29b      	uxth	r3, r3
 8003aa0:	8563      	strh	r3, [r4, #42]	@ 0x2a
 8003aa2:	8d63      	ldrh	r3, [r4, #42]	@ 0x2a
 8003aa4:	b29b      	uxth	r3, r3
 8003aa6:	2b00      	cmp	r3, #0
 8003aa8:	f47f abe6 	bne.w	8003278 <HAL_I2C_EV_IRQHandler+0x38>
 8003aac:	2a2a      	cmp	r2, #42	@ 0x2a
 8003aae:	f47f abe3 	bne.w	8003278 <HAL_I2C_EV_IRQHandler+0x38>
 8003ab2:	6822      	ldr	r2, [r4, #0]
 8003ab4:	6853      	ldr	r3, [r2, #4]
 8003ab6:	f423 6380 	bic.w	r3, r3, #1024	@ 0x400
 8003aba:	6053      	str	r3, [r2, #4]
 8003abc:	2322      	movs	r3, #34	@ 0x22
 8003abe:	6323      	str	r3, [r4, #48]	@ 0x30
 8003ac0:	2328      	movs	r3, #40	@ 0x28
 8003ac2:	f884 303d 	strb.w	r3, [r4, #61]	@ 0x3d
 8003ac6:	e795      	b.n	80039f4 <HAL_I2C_EV_IRQHandler+0x7b4>
 8003ac8:	2d00      	cmp	r5, #0
 8003aca:	f43f abd5 	beq.w	8003278 <HAL_I2C_EV_IRQHandler+0x38>
 8003ace:	0592      	lsls	r2, r2, #22
 8003ad0:	f57f abd2 	bpl.w	8003278 <HAL_I2C_EV_IRQHandler+0x38>
 8003ad4:	8d62      	ldrh	r2, [r4, #42]	@ 0x2a
 8003ad6:	b292      	uxth	r2, r2
 8003ad8:	2a00      	cmp	r2, #0
 8003ada:	f43f abcd 	beq.w	8003278 <HAL_I2C_EV_IRQHandler+0x38>
 8003ade:	691a      	ldr	r2, [r3, #16]
 8003ae0:	6a63      	ldr	r3, [r4, #36]	@ 0x24
 8003ae2:	701a      	strb	r2, [r3, #0]
 8003ae4:	e64b      	b.n	800377e <HAL_I2C_EV_IRQHandler+0x53e>
 8003ae6:	bf00      	nop
 8003ae8:	08003031 	.word	0x08003031
 8003aec:	ffff0000 	.word	0xffff0000

08003af0 <HAL_I2C_ER_IRQHandler>:
 8003af0:	b5f8      	push	{r3, r4, r5, r6, r7, lr}
 8003af2:	6803      	ldr	r3, [r0, #0]
 8003af4:	4604      	mov	r4, r0
 8003af6:	695f      	ldr	r7, [r3, #20]
 8003af8:	685e      	ldr	r6, [r3, #4]
 8003afa:	f890 203e 	ldrb.w	r2, [r0, #62]	@ 0x3e
 8003afe:	f417 7580 	ands.w	r5, r7, #256	@ 0x100
 8003b02:	b2d2      	uxtb	r2, r2
 8003b04:	d00a      	beq.n	8003b1c <HAL_I2C_ER_IRQHandler+0x2c>
 8003b06:	f416 7580 	ands.w	r5, r6, #256	@ 0x100
 8003b0a:	d007      	beq.n	8003b1c <HAL_I2C_ER_IRQHandler+0x2c>
 8003b0c:	f46f 7180 	mvn.w	r1, #256	@ 0x100
 8003b10:	2501      	movs	r5, #1
 8003b12:	6159      	str	r1, [r3, #20]
 8003b14:	6819      	ldr	r1, [r3, #0]
 8003b16:	f441 4100 	orr.w	r1, r1, #32768	@ 0x8000
 8003b1a:	6019      	str	r1, [r3, #0]
 8003b1c:	05b8      	lsls	r0, r7, #22
 8003b1e:	d506      	bpl.n	8003b2e <HAL_I2C_ER_IRQHandler+0x3e>
 8003b20:	05f1      	lsls	r1, r6, #23
 8003b22:	bf42      	ittt	mi
 8003b24:	f46f 7100 	mvnmi.w	r1, #512	@ 0x200
 8003b28:	f045 0502 	orrmi.w	r5, r5, #2
 8003b2c:	6159      	strmi	r1, [r3, #20]
 8003b2e:	0578      	lsls	r0, r7, #21
 8003b30:	d536      	bpl.n	8003ba0 <HAL_I2C_ER_IRQHandler+0xb0>
 8003b32:	05f1      	lsls	r1, r6, #23
 8003b34:	d534      	bpl.n	8003ba0 <HAL_I2C_ER_IRQHandler+0xb0>
 8003b36:	8d60      	ldrh	r0, [r4, #42]	@ 0x2a
 8003b38:	f894 103d 	ldrb.w	r1, [r4, #61]	@ 0x3d
 8003b3c:	2a20      	cmp	r2, #32
 8003b3e:	f8d4 c030 	ldr.w	ip, [r4, #48]	@ 0x30
 8003b42:	b280      	uxth	r0, r0
 8003b44:	b2c9      	uxtb	r1, r1
 8003b46:	d15f      	bne.n	8003c08 <HAL_I2C_ER_IRQHandler+0x118>
 8003b48:	2800      	cmp	r0, #0
 8003b4a:	d15d      	bne.n	8003c08 <HAL_I2C_ER_IRQHandler+0x118>
 8003b4c:	f001 00f7 	and.w	r0, r1, #247	@ 0xf7
 8003b50:	2821      	cmp	r0, #33	@ 0x21
 8003b52:	d004      	beq.n	8003b5e <HAL_I2C_ER_IRQHandler+0x6e>
 8003b54:	2928      	cmp	r1, #40	@ 0x28
 8003b56:	d157      	bne.n	8003c08 <HAL_I2C_ER_IRQHandler+0x118>
 8003b58:	f1bc 0f21 	cmp.w	ip, #33	@ 0x21
 8003b5c:	d154      	bne.n	8003c08 <HAL_I2C_ER_IRQHandler+0x118>
 8003b5e:	f894 203d 	ldrb.w	r2, [r4, #61]	@ 0x3d
 8003b62:	6ae1      	ldr	r1, [r4, #44]	@ 0x2c
 8003b64:	b2d2      	uxtb	r2, r2
 8003b66:	2908      	cmp	r1, #8
 8003b68:	d001      	beq.n	8003b6e <HAL_I2C_ER_IRQHandler+0x7e>
 8003b6a:	2920      	cmp	r1, #32
 8003b6c:	d12a      	bne.n	8003bc4 <HAL_I2C_ER_IRQHandler+0xd4>
 8003b6e:	2a28      	cmp	r2, #40	@ 0x28
 8003b70:	d128      	bne.n	8003bc4 <HAL_I2C_ER_IRQHandler+0xd4>
 8003b72:	4a2e      	ldr	r2, [pc, #184]	@ (8003c2c <HAL_I2C_ER_IRQHandler+0x13c>)
 8003b74:	4620      	mov	r0, r4
 8003b76:	62e2      	str	r2, [r4, #44]	@ 0x2c
 8003b78:	685a      	ldr	r2, [r3, #4]
 8003b7a:	f422 62e0 	bic.w	r2, r2, #1792	@ 0x700
 8003b7e:	605a      	str	r2, [r3, #4]
 8003b80:	f46f 6280 	mvn.w	r2, #1024	@ 0x400
 8003b84:	615a      	str	r2, [r3, #20]
 8003b86:	681a      	ldr	r2, [r3, #0]
 8003b88:	f422 6280 	bic.w	r2, r2, #1024	@ 0x400
 8003b8c:	601a      	str	r2, [r3, #0]
 8003b8e:	2300      	movs	r3, #0
 8003b90:	2220      	movs	r2, #32
 8003b92:	6323      	str	r3, [r4, #48]	@ 0x30
 8003b94:	f884 203d 	strb.w	r2, [r4, #61]	@ 0x3d
 8003b98:	f884 303e 	strb.w	r3, [r4, #62]	@ 0x3e
 8003b9c:	f7ff f9eb 	bl	8002f76 <HAL_I2C_ListenCpltCallback>
 8003ba0:	053a      	lsls	r2, r7, #20
 8003ba2:	d53f      	bpl.n	8003c24 <HAL_I2C_ER_IRQHandler+0x134>
 8003ba4:	05f3      	lsls	r3, r6, #23
 8003ba6:	d53d      	bpl.n	8003c24 <HAL_I2C_ER_IRQHandler+0x134>
 8003ba8:	f46f 6200 	mvn.w	r2, #2048	@ 0x800
 8003bac:	6823      	ldr	r3, [r4, #0]
 8003bae:	f045 0508 	orr.w	r5, r5, #8
 8003bb2:	615a      	str	r2, [r3, #20]
 8003bb4:	6c23      	ldr	r3, [r4, #64]	@ 0x40
 8003bb6:	4620      	mov	r0, r4
 8003bb8:	432b      	orrs	r3, r5
 8003bba:	6423      	str	r3, [r4, #64]	@ 0x40
 8003bbc:	e8bd 40f8 	ldmia.w	sp!, {r3, r4, r5, r6, r7, lr}
 8003bc0:	f7ff ba96 	b.w	80030f0 <I2C_ITError>
 8003bc4:	2a21      	cmp	r2, #33	@ 0x21
 8003bc6:	d11b      	bne.n	8003c00 <HAL_I2C_ER_IRQHandler+0x110>
 8003bc8:	4918      	ldr	r1, [pc, #96]	@ (8003c2c <HAL_I2C_ER_IRQHandler+0x13c>)
 8003bca:	62e1      	str	r1, [r4, #44]	@ 0x2c
 8003bcc:	6322      	str	r2, [r4, #48]	@ 0x30
 8003bce:	2100      	movs	r1, #0
 8003bd0:	2220      	movs	r2, #32
 8003bd2:	f884 203d 	strb.w	r2, [r4, #61]	@ 0x3d
 8003bd6:	f884 103e 	strb.w	r1, [r4, #62]	@ 0x3e
 8003bda:	685a      	ldr	r2, [r3, #4]
 8003bdc:	f422 62e0 	bic.w	r2, r2, #1792	@ 0x700
 8003be0:	605a      	str	r2, [r3, #4]
 8003be2:	f46f 6280 	mvn.w	r2, #1024	@ 0x400
 8003be6:	615a      	str	r2, [r3, #20]
 8003be8:	681a      	ldr	r2, [r3, #0]
 8003bea:	f422 6280 	bic.w	r2, r2, #1024	@ 0x400
 8003bee:	601a      	str	r2, [r3, #0]
 8003bf0:	695a      	ldr	r2, [r3, #20]
 8003bf2:	0610      	lsls	r0, r2, #24
 8003bf4:	bf48      	it	mi
 8003bf6:	6119      	strmi	r1, [r3, #16]
 8003bf8:	4620      	mov	r0, r4
 8003bfa:	f7ff f9b9 	bl	8002f70 <HAL_I2C_SlaveTxCpltCallback>
 8003bfe:	e7cf      	b.n	8003ba0 <HAL_I2C_ER_IRQHandler+0xb0>
 8003c00:	f46f 6280 	mvn.w	r2, #1024	@ 0x400
 8003c04:	615a      	str	r2, [r3, #20]
 8003c06:	e7cb      	b.n	8003ba0 <HAL_I2C_ER_IRQHandler+0xb0>
 8003c08:	f46f 6180 	mvn.w	r1, #1024	@ 0x400
 8003c0c:	2a10      	cmp	r2, #16
 8003c0e:	6159      	str	r1, [r3, #20]
 8003c10:	f045 0504 	orr.w	r5, r5, #4
 8003c14:	d001      	beq.n	8003c1a <HAL_I2C_ER_IRQHandler+0x12a>
 8003c16:	2a40      	cmp	r2, #64	@ 0x40
 8003c18:	d1c2      	bne.n	8003ba0 <HAL_I2C_ER_IRQHandler+0xb0>
 8003c1a:	681a      	ldr	r2, [r3, #0]
 8003c1c:	f442 7200 	orr.w	r2, r2, #512	@ 0x200
 8003c20:	601a      	str	r2, [r3, #0]
 8003c22:	e7bd      	b.n	8003ba0 <HAL_I2C_ER_IRQHandler+0xb0>
 8003c24:	2d00      	cmp	r5, #0
 8003c26:	d1c5      	bne.n	8003bb4 <HAL_I2C_ER_IRQHandler+0xc4>
 8003c28:	bdf8      	pop	{r3, r4, r5, r6, r7, pc}
 8003c2a:	bf00      	nop
 8003c2c:	ffff0000 	.word	0xffff0000

08003c30 <HAL_RCC_OscConfig>:
 8003c30:	e92d 41f3 	stmdb	sp!, {r0, r1, r4, r5, r6, r7, r8, lr}
 8003c34:	4605      	mov	r5, r0
 8003c36:	b338      	cbz	r0, 8003c88 <HAL_RCC_OscConfig+0x58>
 8003c38:	6803      	ldr	r3, [r0, #0]
 8003c3a:	07db      	lsls	r3, r3, #31
 8003c3c:	d410      	bmi.n	8003c60 <HAL_RCC_OscConfig+0x30>
 8003c3e:	682b      	ldr	r3, [r5, #0]
 8003c40:	079f      	lsls	r7, r3, #30
 8003c42:	d45e      	bmi.n	8003d02 <HAL_RCC_OscConfig+0xd2>
 8003c44:	682b      	ldr	r3, [r5, #0]
 8003c46:	0719      	lsls	r1, r3, #28
 8003c48:	f100 8095 	bmi.w	8003d76 <HAL_RCC_OscConfig+0x146>
 8003c4c:	682b      	ldr	r3, [r5, #0]
 8003c4e:	075a      	lsls	r2, r3, #29
 8003c50:	f100 80c1 	bmi.w	8003dd6 <HAL_RCC_OscConfig+0x1a6>
 8003c54:	69eb      	ldr	r3, [r5, #28]
 8003c56:	2b00      	cmp	r3, #0
 8003c58:	f040 812c 	bne.w	8003eb4 <HAL_RCC_OscConfig+0x284>
 8003c5c:	2000      	movs	r0, #0
 8003c5e:	e029      	b.n	8003cb4 <HAL_RCC_OscConfig+0x84>
 8003c60:	4c90      	ldr	r4, [pc, #576]	@ (8003ea4 <HAL_RCC_OscConfig+0x274>)
 8003c62:	6863      	ldr	r3, [r4, #4]
 8003c64:	f003 030c 	and.w	r3, r3, #12
 8003c68:	2b04      	cmp	r3, #4
 8003c6a:	d007      	beq.n	8003c7c <HAL_RCC_OscConfig+0x4c>
 8003c6c:	6863      	ldr	r3, [r4, #4]
 8003c6e:	f003 030c 	and.w	r3, r3, #12
 8003c72:	2b08      	cmp	r3, #8
 8003c74:	d10a      	bne.n	8003c8c <HAL_RCC_OscConfig+0x5c>
 8003c76:	6863      	ldr	r3, [r4, #4]
 8003c78:	03de      	lsls	r6, r3, #15
 8003c7a:	d507      	bpl.n	8003c8c <HAL_RCC_OscConfig+0x5c>
 8003c7c:	6823      	ldr	r3, [r4, #0]
 8003c7e:	039c      	lsls	r4, r3, #14
 8003c80:	d5dd      	bpl.n	8003c3e <HAL_RCC_OscConfig+0xe>
 8003c82:	686b      	ldr	r3, [r5, #4]
 8003c84:	2b00      	cmp	r3, #0
 8003c86:	d1da      	bne.n	8003c3e <HAL_RCC_OscConfig+0xe>
 8003c88:	2001      	movs	r0, #1
 8003c8a:	e013      	b.n	8003cb4 <HAL_RCC_OscConfig+0x84>
 8003c8c:	686b      	ldr	r3, [r5, #4]
 8003c8e:	f5b3 3f80 	cmp.w	r3, #65536	@ 0x10000
 8003c92:	d112      	bne.n	8003cba <HAL_RCC_OscConfig+0x8a>
 8003c94:	6823      	ldr	r3, [r4, #0]
 8003c96:	f443 3380 	orr.w	r3, r3, #65536	@ 0x10000
 8003c9a:	6023      	str	r3, [r4, #0]
 8003c9c:	f7fe fc04 	bl	80024a8 <HAL_GetTick>
 8003ca0:	4606      	mov	r6, r0
 8003ca2:	6823      	ldr	r3, [r4, #0]
 8003ca4:	0398      	lsls	r0, r3, #14
 8003ca6:	d4ca      	bmi.n	8003c3e <HAL_RCC_OscConfig+0xe>
 8003ca8:	f7fe fbfe 	bl	80024a8 <HAL_GetTick>
 8003cac:	1b80      	subs	r0, r0, r6
 8003cae:	2864      	cmp	r0, #100	@ 0x64
 8003cb0:	d9f7      	bls.n	8003ca2 <HAL_RCC_OscConfig+0x72>
 8003cb2:	2003      	movs	r0, #3
 8003cb4:	b002      	add	sp, #8
 8003cb6:	e8bd 81f0 	ldmia.w	sp!, {r4, r5, r6, r7, r8, pc}
 8003cba:	b99b      	cbnz	r3, 8003ce4 <HAL_RCC_OscConfig+0xb4>
 8003cbc:	6823      	ldr	r3, [r4, #0]
 8003cbe:	f423 3380 	bic.w	r3, r3, #65536	@ 0x10000
 8003cc2:	6023      	str	r3, [r4, #0]
 8003cc4:	6823      	ldr	r3, [r4, #0]
 8003cc6:	f423 2380 	bic.w	r3, r3, #262144	@ 0x40000
 8003cca:	6023      	str	r3, [r4, #0]
 8003ccc:	f7fe fbec 	bl	80024a8 <HAL_GetTick>
 8003cd0:	4606      	mov	r6, r0
 8003cd2:	6823      	ldr	r3, [r4, #0]
 8003cd4:	0399      	lsls	r1, r3, #14
 8003cd6:	d5b2      	bpl.n	8003c3e <HAL_RCC_OscConfig+0xe>
 8003cd8:	f7fe fbe6 	bl	80024a8 <HAL_GetTick>
 8003cdc:	1b80      	subs	r0, r0, r6
 8003cde:	2864      	cmp	r0, #100	@ 0x64
 8003ce0:	d9f7      	bls.n	8003cd2 <HAL_RCC_OscConfig+0xa2>
 8003ce2:	e7e6      	b.n	8003cb2 <HAL_RCC_OscConfig+0x82>
 8003ce4:	f5b3 2fa0 	cmp.w	r3, #327680	@ 0x50000
 8003ce8:	6823      	ldr	r3, [r4, #0]
 8003cea:	d103      	bne.n	8003cf4 <HAL_RCC_OscConfig+0xc4>
 8003cec:	f443 2380 	orr.w	r3, r3, #262144	@ 0x40000
 8003cf0:	6023      	str	r3, [r4, #0]
 8003cf2:	e7cf      	b.n	8003c94 <HAL_RCC_OscConfig+0x64>
 8003cf4:	f423 3380 	bic.w	r3, r3, #65536	@ 0x10000
 8003cf8:	6023      	str	r3, [r4, #0]
 8003cfa:	6823      	ldr	r3, [r4, #0]
 8003cfc:	f423 2380 	bic.w	r3, r3, #262144	@ 0x40000
 8003d00:	e7cb      	b.n	8003c9a <HAL_RCC_OscConfig+0x6a>
 8003d02:	4c68      	ldr	r4, [pc, #416]	@ (8003ea4 <HAL_RCC_OscConfig+0x274>)
 8003d04:	6863      	ldr	r3, [r4, #4]
 8003d06:	f013 0f0c 	tst.w	r3, #12
 8003d0a:	d007      	beq.n	8003d1c <HAL_RCC_OscConfig+0xec>
 8003d0c:	6863      	ldr	r3, [r4, #4]
 8003d0e:	f003 030c 	and.w	r3, r3, #12
 8003d12:	2b08      	cmp	r3, #8
 8003d14:	d110      	bne.n	8003d38 <HAL_RCC_OscConfig+0x108>
 8003d16:	6863      	ldr	r3, [r4, #4]
 8003d18:	03da      	lsls	r2, r3, #15
 8003d1a:	d40d      	bmi.n	8003d38 <HAL_RCC_OscConfig+0x108>
 8003d1c:	6823      	ldr	r3, [r4, #0]
 8003d1e:	079b      	lsls	r3, r3, #30
 8003d20:	d502      	bpl.n	8003d28 <HAL_RCC_OscConfig+0xf8>
 8003d22:	692b      	ldr	r3, [r5, #16]
 8003d24:	2b01      	cmp	r3, #1
 8003d26:	d1af      	bne.n	8003c88 <HAL_RCC_OscConfig+0x58>
 8003d28:	6823      	ldr	r3, [r4, #0]
 8003d2a:	696a      	ldr	r2, [r5, #20]
 8003d2c:	f023 03f8 	bic.w	r3, r3, #248	@ 0xf8
 8003d30:	ea43 03c2 	orr.w	r3, r3, r2, lsl #3
 8003d34:	6023      	str	r3, [r4, #0]
 8003d36:	e785      	b.n	8003c44 <HAL_RCC_OscConfig+0x14>
 8003d38:	692a      	ldr	r2, [r5, #16]
 8003d3a:	4b5b      	ldr	r3, [pc, #364]	@ (8003ea8 <HAL_RCC_OscConfig+0x278>)
 8003d3c:	b16a      	cbz	r2, 8003d5a <HAL_RCC_OscConfig+0x12a>
 8003d3e:	2201      	movs	r2, #1
 8003d40:	601a      	str	r2, [r3, #0]
 8003d42:	f7fe fbb1 	bl	80024a8 <HAL_GetTick>
 8003d46:	4606      	mov	r6, r0
 8003d48:	6823      	ldr	r3, [r4, #0]
 8003d4a:	079f      	lsls	r7, r3, #30
 8003d4c:	d4ec      	bmi.n	8003d28 <HAL_RCC_OscConfig+0xf8>
 8003d4e:	f7fe fbab 	bl	80024a8 <HAL_GetTick>
 8003d52:	1b80      	subs	r0, r0, r6
 8003d54:	2802      	cmp	r0, #2
 8003d56:	d9f7      	bls.n	8003d48 <HAL_RCC_OscConfig+0x118>
 8003d58:	e7ab      	b.n	8003cb2 <HAL_RCC_OscConfig+0x82>
 8003d5a:	601a      	str	r2, [r3, #0]
 8003d5c:	f7fe fba4 	bl	80024a8 <HAL_GetTick>
 8003d60:	4606      	mov	r6, r0
 8003d62:	6823      	ldr	r3, [r4, #0]
 8003d64:	0798      	lsls	r0, r3, #30
 8003d66:	f57f af6d 	bpl.w	8003c44 <HAL_RCC_OscConfig+0x14>
 8003d6a:	f7fe fb9d 	bl	80024a8 <HAL_GetTick>
 8003d6e:	1b80      	subs	r0, r0, r6
 8003d70:	2802      	cmp	r0, #2
 8003d72:	d9f6      	bls.n	8003d62 <HAL_RCC_OscConfig+0x132>
 8003d74:	e79d      	b.n	8003cb2 <HAL_RCC_OscConfig+0x82>
 8003d76:	69aa      	ldr	r2, [r5, #24]
 8003d78:	4e4a      	ldr	r6, [pc, #296]	@ (8003ea4 <HAL_RCC_OscConfig+0x274>)
 8003d7a:	4b4b      	ldr	r3, [pc, #300]	@ (8003ea8 <HAL_RCC_OscConfig+0x278>)
 8003d7c:	b1e2      	cbz	r2, 8003db8 <HAL_RCC_OscConfig+0x188>
 8003d7e:	2201      	movs	r2, #1
 8003d80:	f8c3 2480 	str.w	r2, [r3, #1152]	@ 0x480
 8003d84:	f7fe fb90 	bl	80024a8 <HAL_GetTick>
 8003d88:	4604      	mov	r4, r0
 8003d8a:	6a73      	ldr	r3, [r6, #36]	@ 0x24
 8003d8c:	079b      	lsls	r3, r3, #30
 8003d8e:	d50d      	bpl.n	8003dac <HAL_RCC_OscConfig+0x17c>
 8003d90:	f44f 52fa 	mov.w	r2, #8000	@ 0x1f40
 8003d94:	4b45      	ldr	r3, [pc, #276]	@ (8003eac <HAL_RCC_OscConfig+0x27c>)
 8003d96:	681b      	ldr	r3, [r3, #0]
 8003d98:	fbb3 f3f2 	udiv	r3, r3, r2
 8003d9c:	9301      	str	r3, [sp, #4]
 8003d9e:	bf00      	nop
 8003da0:	9b01      	ldr	r3, [sp, #4]
 8003da2:	1e5a      	subs	r2, r3, #1
 8003da4:	9201      	str	r2, [sp, #4]
 8003da6:	2b00      	cmp	r3, #0
 8003da8:	d1f9      	bne.n	8003d9e <HAL_RCC_OscConfig+0x16e>
 8003daa:	e74f      	b.n	8003c4c <HAL_RCC_OscConfig+0x1c>
 8003dac:	f7fe fb7c 	bl	80024a8 <HAL_GetTick>
 8003db0:	1b00      	subs	r0, r0, r4
 8003db2:	2802      	cmp	r0, #2
 8003db4:	d9e9      	bls.n	8003d8a <HAL_RCC_OscConfig+0x15a>
 8003db6:	e77c      	b.n	8003cb2 <HAL_RCC_OscConfig+0x82>
 8003db8:	f8c3 2480 	str.w	r2, [r3, #1152]	@ 0x480
 8003dbc:	f7fe fb74 	bl	80024a8 <HAL_GetTick>
 8003dc0:	4604      	mov	r4, r0
 8003dc2:	6a73      	ldr	r3, [r6, #36]	@ 0x24
 8003dc4:	079f      	lsls	r7, r3, #30
 8003dc6:	f57f af41 	bpl.w	8003c4c <HAL_RCC_OscConfig+0x1c>
 8003dca:	f7fe fb6d 	bl	80024a8 <HAL_GetTick>
 8003dce:	1b00      	subs	r0, r0, r4
 8003dd0:	2802      	cmp	r0, #2
 8003dd2:	d9f6      	bls.n	8003dc2 <HAL_RCC_OscConfig+0x192>
 8003dd4:	e76d      	b.n	8003cb2 <HAL_RCC_OscConfig+0x82>
 8003dd6:	4c33      	ldr	r4, [pc, #204]	@ (8003ea4 <HAL_RCC_OscConfig+0x274>)
 8003dd8:	69e3      	ldr	r3, [r4, #28]
 8003dda:	00d8      	lsls	r0, r3, #3
 8003ddc:	d424      	bmi.n	8003e28 <HAL_RCC_OscConfig+0x1f8>
 8003dde:	2701      	movs	r7, #1
 8003de0:	69e3      	ldr	r3, [r4, #28]
 8003de2:	f043 5380 	orr.w	r3, r3, #268435456	@ 0x10000000
 8003de6:	61e3      	str	r3, [r4, #28]
 8003de8:	69e3      	ldr	r3, [r4, #28]
 8003dea:	f003 5380 	and.w	r3, r3, #268435456	@ 0x10000000
 8003dee:	9300      	str	r3, [sp, #0]
 8003df0:	9b00      	ldr	r3, [sp, #0]
 8003df2:	4e2f      	ldr	r6, [pc, #188]	@ (8003eb0 <HAL_RCC_OscConfig+0x280>)
 8003df4:	6833      	ldr	r3, [r6, #0]
 8003df6:	05d9      	lsls	r1, r3, #23
 8003df8:	d518      	bpl.n	8003e2c <HAL_RCC_OscConfig+0x1fc>
 8003dfa:	68eb      	ldr	r3, [r5, #12]
 8003dfc:	2b01      	cmp	r3, #1
 8003dfe:	d126      	bne.n	8003e4e <HAL_RCC_OscConfig+0x21e>
 8003e00:	6a23      	ldr	r3, [r4, #32]
 8003e02:	f043 0301 	orr.w	r3, r3, #1
 8003e06:	6223      	str	r3, [r4, #32]
 8003e08:	f7fe fb4e 	bl	80024a8 <HAL_GetTick>
 8003e0c:	f241 3888 	movw	r8, #5000	@ 0x1388
 8003e10:	4606      	mov	r6, r0
 8003e12:	6a23      	ldr	r3, [r4, #32]
 8003e14:	079b      	lsls	r3, r3, #30
 8003e16:	d53f      	bpl.n	8003e98 <HAL_RCC_OscConfig+0x268>
 8003e18:	2f00      	cmp	r7, #0
 8003e1a:	f43f af1b 	beq.w	8003c54 <HAL_RCC_OscConfig+0x24>
 8003e1e:	69e3      	ldr	r3, [r4, #28]
 8003e20:	f023 5380 	bic.w	r3, r3, #268435456	@ 0x10000000
 8003e24:	61e3      	str	r3, [r4, #28]
 8003e26:	e715      	b.n	8003c54 <HAL_RCC_OscConfig+0x24>
 8003e28:	2700      	movs	r7, #0
 8003e2a:	e7e2      	b.n	8003df2 <HAL_RCC_OscConfig+0x1c2>
 8003e2c:	6833      	ldr	r3, [r6, #0]
 8003e2e:	f443 7380 	orr.w	r3, r3, #256	@ 0x100
 8003e32:	6033      	str	r3, [r6, #0]
 8003e34:	f7fe fb38 	bl	80024a8 <HAL_GetTick>
 8003e38:	4680      	mov	r8, r0
 8003e3a:	6833      	ldr	r3, [r6, #0]
 8003e3c:	05da      	lsls	r2, r3, #23
 8003e3e:	d4dc      	bmi.n	8003dfa <HAL_RCC_OscConfig+0x1ca>
 8003e40:	f7fe fb32 	bl	80024a8 <HAL_GetTick>
 8003e44:	eba0 0008 	sub.w	r0, r0, r8
 8003e48:	2864      	cmp	r0, #100	@ 0x64
 8003e4a:	d9f6      	bls.n	8003e3a <HAL_RCC_OscConfig+0x20a>
 8003e4c:	e731      	b.n	8003cb2 <HAL_RCC_OscConfig+0x82>
 8003e4e:	b9ab      	cbnz	r3, 8003e7c <HAL_RCC_OscConfig+0x24c>
 8003e50:	6a23      	ldr	r3, [r4, #32]
 8003e52:	f241 3888 	movw	r8, #5000	@ 0x1388
 8003e56:	f023 0301 	bic.w	r3, r3, #1
 8003e5a:	6223      	str	r3, [r4, #32]
 8003e5c:	6a23      	ldr	r3, [r4, #32]
 8003e5e:	f023 0304 	bic.w	r3, r3, #4
 8003e62:	6223      	str	r3, [r4, #32]
 8003e64:	f7fe fb20 	bl	80024a8 <HAL_GetTick>
 8003e68:	4606      	mov	r6, r0
 8003e6a:	6a23      	ldr	r3, [r4, #32]
 8003e6c:	0798      	lsls	r0, r3, #30
 8003e6e:	d5d3      	bpl.n	8003e18 <HAL_RCC_OscConfig+0x1e8>
 8003e70:	f7fe fb1a 	bl	80024a8 <HAL_GetTick>
 8003e74:	1b80      	subs	r0, r0, r6
 8003e76:	4540      	cmp	r0, r8
 8003e78:	d9f7      	bls.n	8003e6a <HAL_RCC_OscConfig+0x23a>
 8003e7a:	e71a      	b.n	8003cb2 <HAL_RCC_OscConfig+0x82>
 8003e7c:	2b05      	cmp	r3, #5
 8003e7e:	6a23      	ldr	r3, [r4, #32]
 8003e80:	d103      	bne.n	8003e8a <HAL_RCC_OscConfig+0x25a>
 8003e82:	f043 0304 	orr.w	r3, r3, #4
 8003e86:	6223      	str	r3, [r4, #32]
 8003e88:	e7ba      	b.n	8003e00 <HAL_RCC_OscConfig+0x1d0>
 8003e8a:	f023 0301 	bic.w	r3, r3, #1
 8003e8e:	6223      	str	r3, [r4, #32]
 8003e90:	6a23      	ldr	r3, [r4, #32]
 8003e92:	f023 0304 	bic.w	r3, r3, #4
 8003e96:	e7b6      	b.n	8003e06 <HAL_RCC_OscConfig+0x1d6>
 8003e98:	f7fe fb06 	bl	80024a8 <HAL_GetTick>
 8003e9c:	1b80      	subs	r0, r0, r6
 8003e9e:	4540      	cmp	r0, r8
 8003ea0:	d9b7      	bls.n	8003e12 <HAL_RCC_OscConfig+0x1e2>
 8003ea2:	e706      	b.n	8003cb2 <HAL_RCC_OscConfig+0x82>
 8003ea4:	40021000 	.word	0x40021000
 8003ea8:	42420000 	.word	0x42420000
 8003eac:	20000004 	.word	0x20000004
 8003eb0:	40007000 	.word	0x40007000
 8003eb4:	4c2a      	ldr	r4, [pc, #168]	@ (8003f60 <HAL_RCC_OscConfig+0x330>)
 8003eb6:	6862      	ldr	r2, [r4, #4]
 8003eb8:	f002 020c 	and.w	r2, r2, #12
 8003ebc:	2a08      	cmp	r2, #8
 8003ebe:	d03e      	beq.n	8003f3e <HAL_RCC_OscConfig+0x30e>
 8003ec0:	2200      	movs	r2, #0
 8003ec2:	2b02      	cmp	r3, #2
 8003ec4:	4b27      	ldr	r3, [pc, #156]	@ (8003f64 <HAL_RCC_OscConfig+0x334>)
 8003ec6:	661a      	str	r2, [r3, #96]	@ 0x60
 8003ec8:	d12c      	bne.n	8003f24 <HAL_RCC_OscConfig+0x2f4>
 8003eca:	f7fe faed 	bl	80024a8 <HAL_GetTick>
 8003ece:	4606      	mov	r6, r0
 8003ed0:	6823      	ldr	r3, [r4, #0]
 8003ed2:	0199      	lsls	r1, r3, #6
 8003ed4:	d420      	bmi.n	8003f18 <HAL_RCC_OscConfig+0x2e8>
 8003ed6:	6a2b      	ldr	r3, [r5, #32]
 8003ed8:	f5b3 3f80 	cmp.w	r3, #65536	@ 0x10000
 8003edc:	d105      	bne.n	8003eea <HAL_RCC_OscConfig+0x2ba>
 8003ede:	6862      	ldr	r2, [r4, #4]
 8003ee0:	68a9      	ldr	r1, [r5, #8]
 8003ee2:	f422 3200 	bic.w	r2, r2, #131072	@ 0x20000
 8003ee6:	430a      	orrs	r2, r1
 8003ee8:	6062      	str	r2, [r4, #4]
 8003eea:	6a69      	ldr	r1, [r5, #36]	@ 0x24
 8003eec:	6862      	ldr	r2, [r4, #4]
 8003eee:	430b      	orrs	r3, r1
 8003ef0:	f422 1274 	bic.w	r2, r2, #3997696	@ 0x3d0000
 8003ef4:	4313      	orrs	r3, r2
 8003ef6:	2201      	movs	r2, #1
 8003ef8:	6063      	str	r3, [r4, #4]
 8003efa:	4b1a      	ldr	r3, [pc, #104]	@ (8003f64 <HAL_RCC_OscConfig+0x334>)
 8003efc:	661a      	str	r2, [r3, #96]	@ 0x60
 8003efe:	f7fe fad3 	bl	80024a8 <HAL_GetTick>
 8003f02:	4605      	mov	r5, r0
 8003f04:	6823      	ldr	r3, [r4, #0]
 8003f06:	019a      	lsls	r2, r3, #6
 8003f08:	f53f aea8 	bmi.w	8003c5c <HAL_RCC_OscConfig+0x2c>
 8003f0c:	f7fe facc 	bl	80024a8 <HAL_GetTick>
 8003f10:	1b40      	subs	r0, r0, r5
 8003f12:	2802      	cmp	r0, #2
 8003f14:	d9f6      	bls.n	8003f04 <HAL_RCC_OscConfig+0x2d4>
 8003f16:	e6cc      	b.n	8003cb2 <HAL_RCC_OscConfig+0x82>
 8003f18:	f7fe fac6 	bl	80024a8 <HAL_GetTick>
 8003f1c:	1b80      	subs	r0, r0, r6
 8003f1e:	2802      	cmp	r0, #2
 8003f20:	d9d6      	bls.n	8003ed0 <HAL_RCC_OscConfig+0x2a0>
 8003f22:	e6c6      	b.n	8003cb2 <HAL_RCC_OscConfig+0x82>
 8003f24:	f7fe fac0 	bl	80024a8 <HAL_GetTick>
 8003f28:	4605      	mov	r5, r0
 8003f2a:	6823      	ldr	r3, [r4, #0]
 8003f2c:	019b      	lsls	r3, r3, #6
 8003f2e:	f57f ae95 	bpl.w	8003c5c <HAL_RCC_OscConfig+0x2c>
 8003f32:	f7fe fab9 	bl	80024a8 <HAL_GetTick>
 8003f36:	1b40      	subs	r0, r0, r5
 8003f38:	2802      	cmp	r0, #2
 8003f3a:	d9f6      	bls.n	8003f2a <HAL_RCC_OscConfig+0x2fa>
 8003f3c:	e6b9      	b.n	8003cb2 <HAL_RCC_OscConfig+0x82>
 8003f3e:	2b01      	cmp	r3, #1
 8003f40:	f43f aea2 	beq.w	8003c88 <HAL_RCC_OscConfig+0x58>
 8003f44:	6860      	ldr	r0, [r4, #4]
 8003f46:	6a2b      	ldr	r3, [r5, #32]
 8003f48:	f400 3280 	and.w	r2, r0, #65536	@ 0x10000
 8003f4c:	429a      	cmp	r2, r3
 8003f4e:	f47f ae9b 	bne.w	8003c88 <HAL_RCC_OscConfig+0x58>
 8003f52:	6a6b      	ldr	r3, [r5, #36]	@ 0x24
 8003f54:	f400 1070 	and.w	r0, r0, #3932160	@ 0x3c0000
 8003f58:	1ac0      	subs	r0, r0, r3
 8003f5a:	bf18      	it	ne
 8003f5c:	2001      	movne	r0, #1
 8003f5e:	e6a9      	b.n	8003cb4 <HAL_RCC_OscConfig+0x84>
 8003f60:	40021000 	.word	0x40021000
 8003f64:	42420000 	.word	0x42420000

08003f68 <HAL_RCC_GetSysClockFreq>:
 8003f68:	4a0d      	ldr	r2, [pc, #52]	@ (8003fa0 <HAL_RCC_GetSysClockFreq+0x38>)
 8003f6a:	6853      	ldr	r3, [r2, #4]
 8003f6c:	f003 010c 	and.w	r1, r3, #12
 8003f70:	2908      	cmp	r1, #8
 8003f72:	d112      	bne.n	8003f9a <HAL_RCC_GetSysClockFreq+0x32>
 8003f74:	480b      	ldr	r0, [pc, #44]	@ (8003fa4 <HAL_RCC_GetSysClockFreq+0x3c>)
 8003f76:	f3c3 4183 	ubfx	r1, r3, #18, #4
 8003f7a:	03db      	lsls	r3, r3, #15
 8003f7c:	5c40      	ldrb	r0, [r0, r1]
 8003f7e:	d509      	bpl.n	8003f94 <HAL_RCC_GetSysClockFreq+0x2c>
 8003f80:	6853      	ldr	r3, [r2, #4]
 8003f82:	4a09      	ldr	r2, [pc, #36]	@ (8003fa8 <HAL_RCC_GetSysClockFreq+0x40>)
 8003f84:	f3c3 4340 	ubfx	r3, r3, #17, #1
 8003f88:	4350      	muls	r0, r2
 8003f8a:	4a08      	ldr	r2, [pc, #32]	@ (8003fac <HAL_RCC_GetSysClockFreq+0x44>)
 8003f8c:	5cd3      	ldrb	r3, [r2, r3]
 8003f8e:	fbb0 f0f3 	udiv	r0, r0, r3
 8003f92:	4770      	bx	lr
 8003f94:	4b06      	ldr	r3, [pc, #24]	@ (8003fb0 <HAL_RCC_GetSysClockFreq+0x48>)
 8003f96:	4358      	muls	r0, r3
 8003f98:	4770      	bx	lr
 8003f9a:	4803      	ldr	r0, [pc, #12]	@ (8003fa8 <HAL_RCC_GetSysClockFreq+0x40>)
 8003f9c:	4770      	bx	lr
 8003f9e:	bf00      	nop
 8003fa0:	40021000 	.word	0x40021000
 8003fa4:	08007176 	.word	0x08007176
 8003fa8:	007a1200 	.word	0x007a1200
 8003fac:	08007174 	.word	0x08007174
 8003fb0:	003d0900 	.word	0x003d0900

08003fb4 <HAL_RCC_ClockConfig>:
 8003fb4:	e92d 41f0 	stmdb	sp!, {r4, r5, r6, r7, r8, lr}
 8003fb8:	460d      	mov	r5, r1
 8003fba:	4604      	mov	r4, r0
 8003fbc:	b910      	cbnz	r0, 8003fc4 <HAL_RCC_ClockConfig+0x10>
 8003fbe:	2001      	movs	r0, #1
 8003fc0:	e8bd 81f0 	ldmia.w	sp!, {r4, r5, r6, r7, r8, pc}
 8003fc4:	4a44      	ldr	r2, [pc, #272]	@ (80040d8 <HAL_RCC_ClockConfig+0x124>)
 8003fc6:	6813      	ldr	r3, [r2, #0]
 8003fc8:	f003 0307 	and.w	r3, r3, #7
 8003fcc:	428b      	cmp	r3, r1
 8003fce:	d328      	bcc.n	8004022 <HAL_RCC_ClockConfig+0x6e>
 8003fd0:	6821      	ldr	r1, [r4, #0]
 8003fd2:	078e      	lsls	r6, r1, #30
 8003fd4:	d430      	bmi.n	8004038 <HAL_RCC_ClockConfig+0x84>
 8003fd6:	07ca      	lsls	r2, r1, #31
 8003fd8:	d443      	bmi.n	8004062 <HAL_RCC_ClockConfig+0xae>
 8003fda:	4a3f      	ldr	r2, [pc, #252]	@ (80040d8 <HAL_RCC_ClockConfig+0x124>)
 8003fdc:	6813      	ldr	r3, [r2, #0]
 8003fde:	f003 0307 	and.w	r3, r3, #7
 8003fe2:	42ab      	cmp	r3, r5
 8003fe4:	d865      	bhi.n	80040b2 <HAL_RCC_ClockConfig+0xfe>
 8003fe6:	6822      	ldr	r2, [r4, #0]
 8003fe8:	4d3c      	ldr	r5, [pc, #240]	@ (80040dc <HAL_RCC_ClockConfig+0x128>)
 8003fea:	f012 0f04 	tst.w	r2, #4
 8003fee:	d16c      	bne.n	80040ca <HAL_RCC_ClockConfig+0x116>
 8003ff0:	0713      	lsls	r3, r2, #28
 8003ff2:	d506      	bpl.n	8004002 <HAL_RCC_ClockConfig+0x4e>
 8003ff4:	686b      	ldr	r3, [r5, #4]
 8003ff6:	6922      	ldr	r2, [r4, #16]
 8003ff8:	f423 5360 	bic.w	r3, r3, #14336	@ 0x3800
 8003ffc:	ea43 03c2 	orr.w	r3, r3, r2, lsl #3
 8004000:	606b      	str	r3, [r5, #4]
 8004002:	f7ff ffb1 	bl	8003f68 <HAL_RCC_GetSysClockFreq>
 8004006:	686b      	ldr	r3, [r5, #4]
 8004008:	4a35      	ldr	r2, [pc, #212]	@ (80040e0 <HAL_RCC_ClockConfig+0x12c>)
 800400a:	f3c3 1303 	ubfx	r3, r3, #4, #4
 800400e:	5cd3      	ldrb	r3, [r2, r3]
 8004010:	40d8      	lsrs	r0, r3
 8004012:	4b34      	ldr	r3, [pc, #208]	@ (80040e4 <HAL_RCC_ClockConfig+0x130>)
 8004014:	6018      	str	r0, [r3, #0]
 8004016:	4b34      	ldr	r3, [pc, #208]	@ (80040e8 <HAL_RCC_ClockConfig+0x134>)
 8004018:	6818      	ldr	r0, [r3, #0]
 800401a:	f7fe fa03 	bl	8002424 <HAL_InitTick>
 800401e:	2000      	movs	r0, #0
 8004020:	e7ce      	b.n	8003fc0 <HAL_RCC_ClockConfig+0xc>
 8004022:	6813      	ldr	r3, [r2, #0]
 8004024:	f023 0307 	bic.w	r3, r3, #7
 8004028:	430b      	orrs	r3, r1
 800402a:	6013      	str	r3, [r2, #0]
 800402c:	6813      	ldr	r3, [r2, #0]
 800402e:	f003 0307 	and.w	r3, r3, #7
 8004032:	428b      	cmp	r3, r1
 8004034:	d1c3      	bne.n	8003fbe <HAL_RCC_ClockConfig+0xa>
 8004036:	e7cb      	b.n	8003fd0 <HAL_RCC_ClockConfig+0x1c>
 8004038:	4b28      	ldr	r3, [pc, #160]	@ (80040dc <HAL_RCC_ClockConfig+0x128>)
 800403a:	f011 0f04 	tst.w	r1, #4
 800403e:	bf1e      	ittt	ne
 8004040:	685a      	ldrne	r2, [r3, #4]
 8004042:	f442 62e0 	orrne.w	r2, r2, #1792	@ 0x700
 8004046:	605a      	strne	r2, [r3, #4]
 8004048:	0708      	lsls	r0, r1, #28
 800404a:	bf42      	ittt	mi
 800404c:	685a      	ldrmi	r2, [r3, #4]
 800404e:	f442 5260 	orrmi.w	r2, r2, #14336	@ 0x3800
 8004052:	605a      	strmi	r2, [r3, #4]
 8004054:	685a      	ldr	r2, [r3, #4]
 8004056:	68a0      	ldr	r0, [r4, #8]
 8004058:	f022 02f0 	bic.w	r2, r2, #240	@ 0xf0
 800405c:	4302      	orrs	r2, r0
 800405e:	605a      	str	r2, [r3, #4]
 8004060:	e7b9      	b.n	8003fd6 <HAL_RCC_ClockConfig+0x22>
 8004062:	6862      	ldr	r2, [r4, #4]
 8004064:	4e1d      	ldr	r6, [pc, #116]	@ (80040dc <HAL_RCC_ClockConfig+0x128>)
 8004066:	2a01      	cmp	r2, #1
 8004068:	6833      	ldr	r3, [r6, #0]
 800406a:	d11a      	bne.n	80040a2 <HAL_RCC_ClockConfig+0xee>
 800406c:	f413 3f00 	tst.w	r3, #131072	@ 0x20000
 8004070:	d0a5      	beq.n	8003fbe <HAL_RCC_ClockConfig+0xa>
 8004072:	6873      	ldr	r3, [r6, #4]
 8004074:	f241 3888 	movw	r8, #5000	@ 0x1388
 8004078:	f023 0303 	bic.w	r3, r3, #3
 800407c:	4313      	orrs	r3, r2
 800407e:	6073      	str	r3, [r6, #4]
 8004080:	f7fe fa12 	bl	80024a8 <HAL_GetTick>
 8004084:	4607      	mov	r7, r0
 8004086:	6873      	ldr	r3, [r6, #4]
 8004088:	6862      	ldr	r2, [r4, #4]
 800408a:	f003 030c 	and.w	r3, r3, #12
 800408e:	ebb3 0f82 	cmp.w	r3, r2, lsl #2
 8004092:	d0a2      	beq.n	8003fda <HAL_RCC_ClockConfig+0x26>
 8004094:	f7fe fa08 	bl	80024a8 <HAL_GetTick>
 8004098:	1bc0      	subs	r0, r0, r7
 800409a:	4540      	cmp	r0, r8
 800409c:	d9f3      	bls.n	8004086 <HAL_RCC_ClockConfig+0xd2>
 800409e:	2003      	movs	r0, #3
 80040a0:	e78e      	b.n	8003fc0 <HAL_RCC_ClockConfig+0xc>
 80040a2:	2a02      	cmp	r2, #2
 80040a4:	d102      	bne.n	80040ac <HAL_RCC_ClockConfig+0xf8>
 80040a6:	f013 7f00 	tst.w	r3, #33554432	@ 0x2000000
 80040aa:	e7e1      	b.n	8004070 <HAL_RCC_ClockConfig+0xbc>
 80040ac:	f013 0f02 	tst.w	r3, #2
 80040b0:	e7de      	b.n	8004070 <HAL_RCC_ClockConfig+0xbc>
 80040b2:	6813      	ldr	r3, [r2, #0]
 80040b4:	f023 0307 	bic.w	r3, r3, #7
 80040b8:	432b      	orrs	r3, r5
 80040ba:	6013      	str	r3, [r2, #0]
 80040bc:	6813      	ldr	r3, [r2, #0]
 80040be:	f003 0307 	and.w	r3, r3, #7
 80040c2:	42ab      	cmp	r3, r5
 80040c4:	f47f af7b 	bne.w	8003fbe <HAL_RCC_ClockConfig+0xa>
 80040c8:	e78d      	b.n	8003fe6 <HAL_RCC_ClockConfig+0x32>
 80040ca:	686b      	ldr	r3, [r5, #4]
 80040cc:	68e1      	ldr	r1, [r4, #12]
 80040ce:	f423 63e0 	bic.w	r3, r3, #1792	@ 0x700
 80040d2:	430b      	orrs	r3, r1
 80040d4:	606b      	str	r3, [r5, #4]
 80040d6:	e78b      	b.n	8003ff0 <HAL_RCC_ClockConfig+0x3c>
 80040d8:	40022000 	.word	0x40022000
 80040dc:	40021000 	.word	0x40021000
 80040e0:	08007164 	.word	0x08007164
 80040e4:	20000004 	.word	0x20000004
 80040e8:	2000000c 	.word	0x2000000c

080040ec <HAL_RCC_GetPCLK1Freq>:
 80040ec:	4b04      	ldr	r3, [pc, #16]	@ (8004100 <HAL_RCC_GetPCLK1Freq+0x14>)
 80040ee:	4a05      	ldr	r2, [pc, #20]	@ (8004104 <HAL_RCC_GetPCLK1Freq+0x18>)
 80040f0:	685b      	ldr	r3, [r3, #4]
 80040f2:	f3c3 2302 	ubfx	r3, r3, #8, #3
 80040f6:	5cd3      	ldrb	r3, [r2, r3]
 80040f8:	4a03      	ldr	r2, [pc, #12]	@ (8004108 <HAL_RCC_GetPCLK1Freq+0x1c>)
 80040fa:	6810      	ldr	r0, [r2, #0]
 80040fc:	40d8      	lsrs	r0, r3
 80040fe:	4770      	bx	lr
 8004100:	40021000 	.word	0x40021000
 8004104:	0800715c 	.word	0x0800715c
 8004108:	20000004 	.word	0x20000004

0800410c <HAL_RCC_GetPCLK2Freq>:
 800410c:	4b04      	ldr	r3, [pc, #16]	@ (8004120 <HAL_RCC_GetPCLK2Freq+0x14>)
 800410e:	4a05      	ldr	r2, [pc, #20]	@ (8004124 <HAL_RCC_GetPCLK2Freq+0x18>)
 8004110:	685b      	ldr	r3, [r3, #4]
 8004112:	f3c3 23c2 	ubfx	r3, r3, #11, #3
 8004116:	5cd3      	ldrb	r3, [r2, r3]
 8004118:	4a03      	ldr	r2, [pc, #12]	@ (8004128 <HAL_RCC_GetPCLK2Freq+0x1c>)
 800411a:	6810      	ldr	r0, [r2, #0]
 800411c:	40d8      	lsrs	r0, r3
 800411e:	4770      	bx	lr
 8004120:	40021000 	.word	0x40021000
 8004124:	0800715c 	.word	0x0800715c
 8004128:	20000004 	.word	0x20000004

0800412c <HAL_RCCEx_PeriphCLKConfig>:
 800412c:	6803      	ldr	r3, [r0, #0]
 800412e:	e92d 41f3 	stmdb	sp!, {r0, r1, r4, r5, r6, r7, r8, lr}
 8004132:	4605      	mov	r5, r0
 8004134:	07d8      	lsls	r0, r3, #31
 8004136:	d521      	bpl.n	800417c <HAL_RCCEx_PeriphCLKConfig+0x50>
 8004138:	4c36      	ldr	r4, [pc, #216]	@ (8004214 <HAL_RCCEx_PeriphCLKConfig+0xe8>)
 800413a:	69e3      	ldr	r3, [r4, #28]
 800413c:	00d9      	lsls	r1, r3, #3
 800413e:	d42b      	bmi.n	8004198 <HAL_RCCEx_PeriphCLKConfig+0x6c>
 8004140:	2601      	movs	r6, #1
 8004142:	69e3      	ldr	r3, [r4, #28]
 8004144:	f043 5380 	orr.w	r3, r3, #268435456	@ 0x10000000
 8004148:	61e3      	str	r3, [r4, #28]
 800414a:	69e3      	ldr	r3, [r4, #28]
 800414c:	f003 5380 	and.w	r3, r3, #268435456	@ 0x10000000
 8004150:	9301      	str	r3, [sp, #4]
 8004152:	9b01      	ldr	r3, [sp, #4]
 8004154:	4f30      	ldr	r7, [pc, #192]	@ (8004218 <HAL_RCCEx_PeriphCLKConfig+0xec>)
 8004156:	683b      	ldr	r3, [r7, #0]
 8004158:	05da      	lsls	r2, r3, #23
 800415a:	d51f      	bpl.n	800419c <HAL_RCCEx_PeriphCLKConfig+0x70>
 800415c:	6a23      	ldr	r3, [r4, #32]
 800415e:	686a      	ldr	r2, [r5, #4]
 8004160:	f413 7340 	ands.w	r3, r3, #768	@ 0x300
 8004164:	d12e      	bne.n	80041c4 <HAL_RCCEx_PeriphCLKConfig+0x98>
 8004166:	6a23      	ldr	r3, [r4, #32]
 8004168:	686a      	ldr	r2, [r5, #4]
 800416a:	f423 7340 	bic.w	r3, r3, #768	@ 0x300
 800416e:	4313      	orrs	r3, r2
 8004170:	6223      	str	r3, [r4, #32]
 8004172:	b11e      	cbz	r6, 800417c <HAL_RCCEx_PeriphCLKConfig+0x50>
 8004174:	69e3      	ldr	r3, [r4, #28]
 8004176:	f023 5380 	bic.w	r3, r3, #268435456	@ 0x10000000
 800417a:	61e3      	str	r3, [r4, #28]
 800417c:	682a      	ldr	r2, [r5, #0]
 800417e:	0791      	lsls	r1, r2, #30
 8004180:	d506      	bpl.n	8004190 <HAL_RCCEx_PeriphCLKConfig+0x64>
 8004182:	4924      	ldr	r1, [pc, #144]	@ (8004214 <HAL_RCCEx_PeriphCLKConfig+0xe8>)
 8004184:	68a8      	ldr	r0, [r5, #8]
 8004186:	684b      	ldr	r3, [r1, #4]
 8004188:	f423 4340 	bic.w	r3, r3, #49152	@ 0xc000
 800418c:	4303      	orrs	r3, r0
 800418e:	604b      	str	r3, [r1, #4]
 8004190:	06d3      	lsls	r3, r2, #27
 8004192:	d436      	bmi.n	8004202 <HAL_RCCEx_PeriphCLKConfig+0xd6>
 8004194:	2000      	movs	r0, #0
 8004196:	e012      	b.n	80041be <HAL_RCCEx_PeriphCLKConfig+0x92>
 8004198:	2600      	movs	r6, #0
 800419a:	e7db      	b.n	8004154 <HAL_RCCEx_PeriphCLKConfig+0x28>
 800419c:	683b      	ldr	r3, [r7, #0]
 800419e:	f443 7380 	orr.w	r3, r3, #256	@ 0x100
 80041a2:	603b      	str	r3, [r7, #0]
 80041a4:	f7fe f980 	bl	80024a8 <HAL_GetTick>
 80041a8:	4680      	mov	r8, r0
 80041aa:	683b      	ldr	r3, [r7, #0]
 80041ac:	05db      	lsls	r3, r3, #23
 80041ae:	d4d5      	bmi.n	800415c <HAL_RCCEx_PeriphCLKConfig+0x30>
 80041b0:	f7fe f97a 	bl	80024a8 <HAL_GetTick>
 80041b4:	eba0 0008 	sub.w	r0, r0, r8
 80041b8:	2864      	cmp	r0, #100	@ 0x64
 80041ba:	d9f6      	bls.n	80041aa <HAL_RCCEx_PeriphCLKConfig+0x7e>
 80041bc:	2003      	movs	r0, #3
 80041be:	b002      	add	sp, #8
 80041c0:	e8bd 81f0 	ldmia.w	sp!, {r4, r5, r6, r7, r8, pc}
 80041c4:	f402 7240 	and.w	r2, r2, #768	@ 0x300
 80041c8:	429a      	cmp	r2, r3
 80041ca:	d0cc      	beq.n	8004166 <HAL_RCCEx_PeriphCLKConfig+0x3a>
 80041cc:	2001      	movs	r0, #1
 80041ce:	4a13      	ldr	r2, [pc, #76]	@ (800421c <HAL_RCCEx_PeriphCLKConfig+0xf0>)
 80041d0:	6a23      	ldr	r3, [r4, #32]
 80041d2:	f8c2 0440 	str.w	r0, [r2, #1088]	@ 0x440
 80041d6:	2000      	movs	r0, #0
 80041d8:	f423 7140 	bic.w	r1, r3, #768	@ 0x300
 80041dc:	07df      	lsls	r7, r3, #31
 80041de:	f8c2 0440 	str.w	r0, [r2, #1088]	@ 0x440
 80041e2:	6221      	str	r1, [r4, #32]
 80041e4:	d5bf      	bpl.n	8004166 <HAL_RCCEx_PeriphCLKConfig+0x3a>
 80041e6:	f7fe f95f 	bl	80024a8 <HAL_GetTick>
 80041ea:	f241 3888 	movw	r8, #5000	@ 0x1388
 80041ee:	4607      	mov	r7, r0
 80041f0:	6a23      	ldr	r3, [r4, #32]
 80041f2:	0798      	lsls	r0, r3, #30
 80041f4:	d4b7      	bmi.n	8004166 <HAL_RCCEx_PeriphCLKConfig+0x3a>
 80041f6:	f7fe f957 	bl	80024a8 <HAL_GetTick>
 80041fa:	1bc0      	subs	r0, r0, r7
 80041fc:	4540      	cmp	r0, r8
 80041fe:	d9f7      	bls.n	80041f0 <HAL_RCCEx_PeriphCLKConfig+0xc4>
 8004200:	e7dc      	b.n	80041bc <HAL_RCCEx_PeriphCLKConfig+0x90>
 8004202:	4a04      	ldr	r2, [pc, #16]	@ (8004214 <HAL_RCCEx_PeriphCLKConfig+0xe8>)
 8004204:	68e9      	ldr	r1, [r5, #12]
 8004206:	6853      	ldr	r3, [r2, #4]
 8004208:	f423 0380 	bic.w	r3, r3, #4194304	@ 0x400000
 800420c:	430b      	orrs	r3, r1
 800420e:	6053      	str	r3, [r2, #4]
 8004210:	e7c0      	b.n	8004194 <HAL_RCCEx_PeriphCLKConfig+0x68>
 8004212:	bf00      	nop
 8004214:	40021000 	.word	0x40021000
 8004218:	40007000 	.word	0x40007000
 800421c:	42420000 	.word	0x42420000

08004220 <HAL_RCCEx_GetPeriphCLKFreq>:
 8004220:	2802      	cmp	r0, #2
 8004222:	b508      	push	{r3, lr}
 8004224:	d044      	beq.n	80042b0 <HAL_RCCEx_GetPeriphCLKFreq+0x90>
 8004226:	2810      	cmp	r0, #16
 8004228:	d003      	beq.n	8004232 <HAL_RCCEx_GetPeriphCLKFreq+0x12>
 800422a:	2801      	cmp	r0, #1
 800422c:	d022      	beq.n	8004274 <HAL_RCCEx_GetPeriphCLKFreq+0x54>
 800422e:	2000      	movs	r0, #0
 8004230:	e034      	b.n	800429c <HAL_RCCEx_GetPeriphCLKFreq+0x7c>
 8004232:	4b25      	ldr	r3, [pc, #148]	@ (80042c8 <HAL_RCCEx_GetPeriphCLKFreq+0xa8>)
 8004234:	685a      	ldr	r2, [r3, #4]
 8004236:	6818      	ldr	r0, [r3, #0]
 8004238:	f010 7080 	ands.w	r0, r0, #16777216	@ 0x1000000
 800423c:	d02e      	beq.n	800429c <HAL_RCCEx_GetPeriphCLKFreq+0x7c>
 800423e:	f3c2 4183 	ubfx	r1, r2, #18, #4
 8004242:	4822      	ldr	r0, [pc, #136]	@ (80042cc <HAL_RCCEx_GetPeriphCLKFreq+0xac>)
 8004244:	03d2      	lsls	r2, r2, #15
 8004246:	bf48      	it	mi
 8004248:	685a      	ldrmi	r2, [r3, #4]
 800424a:	5c40      	ldrb	r0, [r0, r1]
 800424c:	bf41      	itttt	mi
 800424e:	4920      	ldrmi	r1, [pc, #128]	@ (80042d0 <HAL_RCCEx_GetPeriphCLKFreq+0xb0>)
 8004250:	f3c2 4240 	ubfxmi	r2, r2, #17, #1
 8004254:	5c89      	ldrbmi	r1, [r1, r2]
 8004256:	4a1f      	ldrmi	r2, [pc, #124]	@ (80042d4 <HAL_RCCEx_GetPeriphCLKFreq+0xb4>)
 8004258:	685b      	ldr	r3, [r3, #4]
 800425a:	bf4c      	ite	mi
 800425c:	fbb2 f2f1 	udivmi	r2, r2, r1
 8004260:	4a1d      	ldrpl	r2, [pc, #116]	@ (80042d8 <HAL_RCCEx_GetPeriphCLKFreq+0xb8>)
 8004262:	025b      	lsls	r3, r3, #9
 8004264:	fb02 f000 	mul.w	r0, r2, r0
 8004268:	d418      	bmi.n	800429c <HAL_RCCEx_GetPeriphCLKFreq+0x7c>
 800426a:	2303      	movs	r3, #3
 800426c:	0040      	lsls	r0, r0, #1
 800426e:	fbb0 f0f3 	udiv	r0, r0, r3
 8004272:	e013      	b.n	800429c <HAL_RCCEx_GetPeriphCLKFreq+0x7c>
 8004274:	f240 3102 	movw	r1, #770	@ 0x302
 8004278:	4a13      	ldr	r2, [pc, #76]	@ (80042c8 <HAL_RCCEx_GetPeriphCLKFreq+0xa8>)
 800427a:	6a13      	ldr	r3, [r2, #32]
 800427c:	4019      	ands	r1, r3
 800427e:	f5b1 7f81 	cmp.w	r1, #258	@ 0x102
 8004282:	d01e      	beq.n	80042c2 <HAL_RCCEx_GetPeriphCLKFreq+0xa2>
 8004284:	f403 7340 	and.w	r3, r3, #768	@ 0x300
 8004288:	f5b3 7f00 	cmp.w	r3, #512	@ 0x200
 800428c:	d107      	bne.n	800429e <HAL_RCCEx_GetPeriphCLKFreq+0x7e>
 800428e:	f649 4040 	movw	r0, #40000	@ 0x9c40
 8004292:	6a53      	ldr	r3, [r2, #36]	@ 0x24
 8004294:	f013 0f02 	tst.w	r3, #2
 8004298:	bf08      	it	eq
 800429a:	2000      	moveq	r0, #0
 800429c:	bd08      	pop	{r3, pc}
 800429e:	f5b3 7f40 	cmp.w	r3, #768	@ 0x300
 80042a2:	d1c4      	bne.n	800422e <HAL_RCCEx_GetPeriphCLKFreq+0xe>
 80042a4:	6813      	ldr	r3, [r2, #0]
 80042a6:	f24f 4024 	movw	r0, #62500	@ 0xf424
 80042aa:	f413 3f00 	tst.w	r3, #131072	@ 0x20000
 80042ae:	e7f3      	b.n	8004298 <HAL_RCCEx_GetPeriphCLKFreq+0x78>
 80042b0:	f7ff ff2c 	bl	800410c <HAL_RCC_GetPCLK2Freq>
 80042b4:	4b04      	ldr	r3, [pc, #16]	@ (80042c8 <HAL_RCCEx_GetPeriphCLKFreq+0xa8>)
 80042b6:	685b      	ldr	r3, [r3, #4]
 80042b8:	f3c3 3381 	ubfx	r3, r3, #14, #2
 80042bc:	3301      	adds	r3, #1
 80042be:	005b      	lsls	r3, r3, #1
 80042c0:	e7d5      	b.n	800426e <HAL_RCCEx_GetPeriphCLKFreq+0x4e>
 80042c2:	f44f 4000 	mov.w	r0, #32768	@ 0x8000
 80042c6:	e7e9      	b.n	800429c <HAL_RCCEx_GetPeriphCLKFreq+0x7c>
 80042c8:	40021000 	.word	0x40021000
 80042cc:	08007188 	.word	0x08007188
 80042d0:	08007186 	.word	0x08007186
 80042d4:	007a1200 	.word	0x007a1200
 80042d8:	003d0900 	.word	0x003d0900

080042dc <TIM_OC1_SetConfig>:
 80042dc:	6a03      	ldr	r3, [r0, #32]
 80042de:	6a02      	ldr	r2, [r0, #32]
 80042e0:	b570      	push	{r4, r5, r6, lr}
 80042e2:	f022 0201 	bic.w	r2, r2, #1
 80042e6:	6202      	str	r2, [r0, #32]
 80042e8:	6844      	ldr	r4, [r0, #4]
 80042ea:	6982      	ldr	r2, [r0, #24]
 80042ec:	680d      	ldr	r5, [r1, #0]
 80042ee:	f022 0273 	bic.w	r2, r2, #115	@ 0x73
 80042f2:	432a      	orrs	r2, r5
 80042f4:	688d      	ldr	r5, [r1, #8]
 80042f6:	f023 0302 	bic.w	r3, r3, #2
 80042fa:	432b      	orrs	r3, r5
 80042fc:	4d0a      	ldr	r5, [pc, #40]	@ (8004328 <TIM_OC1_SetConfig+0x4c>)
 80042fe:	42a8      	cmp	r0, r5
 8004300:	d10b      	bne.n	800431a <TIM_OC1_SetConfig+0x3e>
 8004302:	68cd      	ldr	r5, [r1, #12]
 8004304:	f023 0308 	bic.w	r3, r3, #8
 8004308:	432b      	orrs	r3, r5
 800430a:	f424 7440 	bic.w	r4, r4, #768	@ 0x300
 800430e:	e9d1 5605 	ldrd	r5, r6, [r1, #20]
 8004312:	4335      	orrs	r5, r6
 8004314:	f023 0304 	bic.w	r3, r3, #4
 8004318:	432c      	orrs	r4, r5
 800431a:	6044      	str	r4, [r0, #4]
 800431c:	6182      	str	r2, [r0, #24]
 800431e:	684a      	ldr	r2, [r1, #4]
 8004320:	6342      	str	r2, [r0, #52]	@ 0x34
 8004322:	6203      	str	r3, [r0, #32]
 8004324:	bd70      	pop	{r4, r5, r6, pc}
 8004326:	bf00      	nop
 8004328:	40012c00 	.word	0x40012c00

0800432c <TIM_OC3_SetConfig>:
 800432c:	6a03      	ldr	r3, [r0, #32]
 800432e:	6a02      	ldr	r2, [r0, #32]
 8004330:	b570      	push	{r4, r5, r6, lr}
 8004332:	f422 7280 	bic.w	r2, r2, #256	@ 0x100
 8004336:	6202      	str	r2, [r0, #32]
 8004338:	6844      	ldr	r4, [r0, #4]
 800433a:	69c2      	ldr	r2, [r0, #28]
 800433c:	680d      	ldr	r5, [r1, #0]
 800433e:	f022 0273 	bic.w	r2, r2, #115	@ 0x73
 8004342:	432a      	orrs	r2, r5
 8004344:	688d      	ldr	r5, [r1, #8]
 8004346:	f423 7300 	bic.w	r3, r3, #512	@ 0x200
 800434a:	ea43 2305 	orr.w	r3, r3, r5, lsl #8
 800434e:	4d0b      	ldr	r5, [pc, #44]	@ (800437c <TIM_OC3_SetConfig+0x50>)
 8004350:	42a8      	cmp	r0, r5
 8004352:	d10d      	bne.n	8004370 <TIM_OC3_SetConfig+0x44>
 8004354:	68cd      	ldr	r5, [r1, #12]
 8004356:	f423 6300 	bic.w	r3, r3, #2048	@ 0x800
 800435a:	ea43 2305 	orr.w	r3, r3, r5, lsl #8
 800435e:	f424 5440 	bic.w	r4, r4, #12288	@ 0x3000
 8004362:	e9d1 5605 	ldrd	r5, r6, [r1, #20]
 8004366:	4335      	orrs	r5, r6
 8004368:	f423 6380 	bic.w	r3, r3, #1024	@ 0x400
 800436c:	ea44 1405 	orr.w	r4, r4, r5, lsl #4
 8004370:	6044      	str	r4, [r0, #4]
 8004372:	61c2      	str	r2, [r0, #28]
 8004374:	684a      	ldr	r2, [r1, #4]
 8004376:	63c2      	str	r2, [r0, #60]	@ 0x3c
 8004378:	6203      	str	r3, [r0, #32]
 800437a:	bd70      	pop	{r4, r5, r6, pc}
 800437c:	40012c00 	.word	0x40012c00

08004380 <TIM_OC4_SetConfig>:
 8004380:	6a03      	ldr	r3, [r0, #32]
 8004382:	6a02      	ldr	r2, [r0, #32]
 8004384:	b530      	push	{r4, r5, lr}
 8004386:	f422 5280 	bic.w	r2, r2, #4096	@ 0x1000
 800438a:	6202      	str	r2, [r0, #32]
 800438c:	6844      	ldr	r4, [r0, #4]
 800438e:	69c2      	ldr	r2, [r0, #28]
 8004390:	680d      	ldr	r5, [r1, #0]
 8004392:	f422 42e6 	bic.w	r2, r2, #29440	@ 0x7300
 8004396:	ea42 2205 	orr.w	r2, r2, r5, lsl #8
 800439a:	688d      	ldr	r5, [r1, #8]
 800439c:	f423 5300 	bic.w	r3, r3, #8192	@ 0x2000
 80043a0:	ea43 3305 	orr.w	r3, r3, r5, lsl #12
 80043a4:	4d06      	ldr	r5, [pc, #24]	@ (80043c0 <TIM_OC4_SetConfig+0x40>)
 80043a6:	42a8      	cmp	r0, r5
 80043a8:	bf02      	ittt	eq
 80043aa:	694d      	ldreq	r5, [r1, #20]
 80043ac:	f424 4480 	biceq.w	r4, r4, #16384	@ 0x4000
 80043b0:	ea44 1485 	orreq.w	r4, r4, r5, lsl #6
 80043b4:	6044      	str	r4, [r0, #4]
 80043b6:	61c2      	str	r2, [r0, #28]
 80043b8:	684a      	ldr	r2, [r1, #4]
 80043ba:	6402      	str	r2, [r0, #64]	@ 0x40
 80043bc:	6203      	str	r3, [r0, #32]
 80043be:	bd30      	pop	{r4, r5, pc}
 80043c0:	40012c00 	.word	0x40012c00

080043c4 <HAL_TIM_PWM_MspInit>:
 80043c4:	4770      	bx	lr

080043c6 <HAL_TIM_PeriodElapsedCallback>:
 80043c6:	4770      	bx	lr

080043c8 <HAL_TIM_OC_DelayElapsedCallback>:
 80043c8:	4770      	bx	lr

080043ca <HAL_TIM_IC_CaptureCallback>:
 80043ca:	4770      	bx	lr

080043cc <HAL_TIM_PWM_PulseFinishedCallback>:
 80043cc:	4770      	bx	lr

080043ce <HAL_TIM_TriggerCallback>:
 80043ce:	4770      	bx	lr

080043d0 <HAL_TIM_IRQHandler>:
 80043d0:	6803      	ldr	r3, [r0, #0]
 80043d2:	b570      	push	{r4, r5, r6, lr}
 80043d4:	68dd      	ldr	r5, [r3, #12]
 80043d6:	691e      	ldr	r6, [r3, #16]
 80043d8:	4604      	mov	r4, r0
 80043da:	07b1      	lsls	r1, r6, #30
 80043dc:	d50d      	bpl.n	80043fa <HAL_TIM_IRQHandler+0x2a>
 80043de:	07aa      	lsls	r2, r5, #30
 80043e0:	d50b      	bpl.n	80043fa <HAL_TIM_IRQHandler+0x2a>
 80043e2:	f06f 0202 	mvn.w	r2, #2
 80043e6:	611a      	str	r2, [r3, #16]
 80043e8:	2201      	movs	r2, #1
 80043ea:	7702      	strb	r2, [r0, #28]
 80043ec:	699b      	ldr	r3, [r3, #24]
 80043ee:	079b      	lsls	r3, r3, #30
 80043f0:	d069      	beq.n	80044c6 <HAL_TIM_IRQHandler+0xf6>
 80043f2:	f7ff ffea 	bl	80043ca <HAL_TIM_IC_CaptureCallback>
 80043f6:	2300      	movs	r3, #0
 80043f8:	7723      	strb	r3, [r4, #28]
 80043fa:	0771      	lsls	r1, r6, #29
 80043fc:	d510      	bpl.n	8004420 <HAL_TIM_IRQHandler+0x50>
 80043fe:	076a      	lsls	r2, r5, #29
 8004400:	d50e      	bpl.n	8004420 <HAL_TIM_IRQHandler+0x50>
 8004402:	f06f 0204 	mvn.w	r2, #4
 8004406:	6823      	ldr	r3, [r4, #0]
 8004408:	4620      	mov	r0, r4
 800440a:	611a      	str	r2, [r3, #16]
 800440c:	2202      	movs	r2, #2
 800440e:	7722      	strb	r2, [r4, #28]
 8004410:	699b      	ldr	r3, [r3, #24]
 8004412:	f413 7f40 	tst.w	r3, #768	@ 0x300
 8004416:	d05c      	beq.n	80044d2 <HAL_TIM_IRQHandler+0x102>
 8004418:	f7ff ffd7 	bl	80043ca <HAL_TIM_IC_CaptureCallback>
 800441c:	2300      	movs	r3, #0
 800441e:	7723      	strb	r3, [r4, #28]
 8004420:	0733      	lsls	r3, r6, #28
 8004422:	d50f      	bpl.n	8004444 <HAL_TIM_IRQHandler+0x74>
 8004424:	0728      	lsls	r0, r5, #28
 8004426:	d50d      	bpl.n	8004444 <HAL_TIM_IRQHandler+0x74>
 8004428:	f06f 0208 	mvn.w	r2, #8
 800442c:	6823      	ldr	r3, [r4, #0]
 800442e:	4620      	mov	r0, r4
 8004430:	611a      	str	r2, [r3, #16]
 8004432:	2204      	movs	r2, #4
 8004434:	7722      	strb	r2, [r4, #28]
 8004436:	69db      	ldr	r3, [r3, #28]
 8004438:	0799      	lsls	r1, r3, #30
 800443a:	d050      	beq.n	80044de <HAL_TIM_IRQHandler+0x10e>
 800443c:	f7ff ffc5 	bl	80043ca <HAL_TIM_IC_CaptureCallback>
 8004440:	2300      	movs	r3, #0
 8004442:	7723      	strb	r3, [r4, #28]
 8004444:	06f2      	lsls	r2, r6, #27
 8004446:	d510      	bpl.n	800446a <HAL_TIM_IRQHandler+0x9a>
 8004448:	06eb      	lsls	r3, r5, #27
 800444a:	d50e      	bpl.n	800446a <HAL_TIM_IRQHandler+0x9a>
 800444c:	f06f 0210 	mvn.w	r2, #16
 8004450:	6823      	ldr	r3, [r4, #0]
 8004452:	4620      	mov	r0, r4
 8004454:	611a      	str	r2, [r3, #16]
 8004456:	2208      	movs	r2, #8
 8004458:	7722      	strb	r2, [r4, #28]
 800445a:	69db      	ldr	r3, [r3, #28]
 800445c:	f413 7f40 	tst.w	r3, #768	@ 0x300
 8004460:	d043      	beq.n	80044ea <HAL_TIM_IRQHandler+0x11a>
 8004462:	f7ff ffb2 	bl	80043ca <HAL_TIM_IC_CaptureCallback>
 8004466:	2300      	movs	r3, #0
 8004468:	7723      	strb	r3, [r4, #28]
 800446a:	07f0      	lsls	r0, r6, #31
 800446c:	d508      	bpl.n	8004480 <HAL_TIM_IRQHandler+0xb0>
 800446e:	07e9      	lsls	r1, r5, #31
 8004470:	d506      	bpl.n	8004480 <HAL_TIM_IRQHandler+0xb0>
 8004472:	f06f 0201 	mvn.w	r2, #1
 8004476:	6823      	ldr	r3, [r4, #0]
 8004478:	4620      	mov	r0, r4
 800447a:	611a      	str	r2, [r3, #16]
 800447c:	f7ff ffa3 	bl	80043c6 <HAL_TIM_PeriodElapsedCallback>
 8004480:	0632      	lsls	r2, r6, #24
 8004482:	d508      	bpl.n	8004496 <HAL_TIM_IRQHandler+0xc6>
 8004484:	062b      	lsls	r3, r5, #24
 8004486:	d506      	bpl.n	8004496 <HAL_TIM_IRQHandler+0xc6>
 8004488:	f06f 0280 	mvn.w	r2, #128	@ 0x80
 800448c:	6823      	ldr	r3, [r4, #0]
 800448e:	4620      	mov	r0, r4
 8004490:	611a      	str	r2, [r3, #16]
 8004492:	f000 fad2 	bl	8004a3a <HAL_TIMEx_BreakCallback>
 8004496:	0670      	lsls	r0, r6, #25
 8004498:	d508      	bpl.n	80044ac <HAL_TIM_IRQHandler+0xdc>
 800449a:	0669      	lsls	r1, r5, #25
 800449c:	d506      	bpl.n	80044ac <HAL_TIM_IRQHandler+0xdc>
 800449e:	f06f 0240 	mvn.w	r2, #64	@ 0x40
 80044a2:	6823      	ldr	r3, [r4, #0]
 80044a4:	4620      	mov	r0, r4
 80044a6:	611a      	str	r2, [r3, #16]
 80044a8:	f7ff ff91 	bl	80043ce <HAL_TIM_TriggerCallback>
 80044ac:	06b2      	lsls	r2, r6, #26
 80044ae:	d522      	bpl.n	80044f6 <HAL_TIM_IRQHandler+0x126>
 80044b0:	06ab      	lsls	r3, r5, #26
 80044b2:	d520      	bpl.n	80044f6 <HAL_TIM_IRQHandler+0x126>
 80044b4:	f06f 0220 	mvn.w	r2, #32
 80044b8:	6823      	ldr	r3, [r4, #0]
 80044ba:	4620      	mov	r0, r4
 80044bc:	e8bd 4070 	ldmia.w	sp!, {r4, r5, r6, lr}
 80044c0:	611a      	str	r2, [r3, #16]
 80044c2:	f000 bab9 	b.w	8004a38 <HAL_TIMEx_CommutCallback>
 80044c6:	f7ff ff7f 	bl	80043c8 <HAL_TIM_OC_DelayElapsedCallback>
 80044ca:	4620      	mov	r0, r4
 80044cc:	f7ff ff7e 	bl	80043cc <HAL_TIM_PWM_PulseFinishedCallback>
 80044d0:	e791      	b.n	80043f6 <HAL_TIM_IRQHandler+0x26>
 80044d2:	f7ff ff79 	bl	80043c8 <HAL_TIM_OC_DelayElapsedCallback>
 80044d6:	4620      	mov	r0, r4
 80044d8:	f7ff ff78 	bl	80043cc <HAL_TIM_PWM_PulseFinishedCallback>
 80044dc:	e79e      	b.n	800441c <HAL_TIM_IRQHandler+0x4c>
 80044de:	f7ff ff73 	bl	80043c8 <HAL_TIM_OC_DelayElapsedCallback>
 80044e2:	4620      	mov	r0, r4
 80044e4:	f7ff ff72 	bl	80043cc <HAL_TIM_PWM_PulseFinishedCallback>
 80044e8:	e7aa      	b.n	8004440 <HAL_TIM_IRQHandler+0x70>
 80044ea:	f7ff ff6d 	bl	80043c8 <HAL_TIM_OC_DelayElapsedCallback>
 80044ee:	4620      	mov	r0, r4
 80044f0:	f7ff ff6c 	bl	80043cc <HAL_TIM_PWM_PulseFinishedCallback>
 80044f4:	e7b7      	b.n	8004466 <HAL_TIM_IRQHandler+0x96>
 80044f6:	bd70      	pop	{r4, r5, r6, pc}

080044f8 <TIM_Base_SetConfig>:
 80044f8:	4a17      	ldr	r2, [pc, #92]	@ (8004558 <TIM_Base_SetConfig+0x60>)
 80044fa:	6803      	ldr	r3, [r0, #0]
 80044fc:	4290      	cmp	r0, r2
 80044fe:	d00a      	beq.n	8004516 <TIM_Base_SetConfig+0x1e>
 8004500:	f1b0 4f80 	cmp.w	r0, #1073741824	@ 0x40000000
 8004504:	d007      	beq.n	8004516 <TIM_Base_SetConfig+0x1e>
 8004506:	f5a2 3294 	sub.w	r2, r2, #75776	@ 0x12800
 800450a:	4290      	cmp	r0, r2
 800450c:	d003      	beq.n	8004516 <TIM_Base_SetConfig+0x1e>
 800450e:	f502 6280 	add.w	r2, r2, #1024	@ 0x400
 8004512:	4290      	cmp	r0, r2
 8004514:	d107      	bne.n	8004526 <TIM_Base_SetConfig+0x2e>
 8004516:	684a      	ldr	r2, [r1, #4]
 8004518:	f023 0370 	bic.w	r3, r3, #112	@ 0x70
 800451c:	4313      	orrs	r3, r2
 800451e:	68ca      	ldr	r2, [r1, #12]
 8004520:	f423 7340 	bic.w	r3, r3, #768	@ 0x300
 8004524:	4313      	orrs	r3, r2
 8004526:	694a      	ldr	r2, [r1, #20]
 8004528:	f023 0380 	bic.w	r3, r3, #128	@ 0x80
 800452c:	4313      	orrs	r3, r2
 800452e:	6003      	str	r3, [r0, #0]
 8004530:	688b      	ldr	r3, [r1, #8]
 8004532:	62c3      	str	r3, [r0, #44]	@ 0x2c
 8004534:	680b      	ldr	r3, [r1, #0]
 8004536:	6283      	str	r3, [r0, #40]	@ 0x28
 8004538:	4b07      	ldr	r3, [pc, #28]	@ (8004558 <TIM_Base_SetConfig+0x60>)
 800453a:	4298      	cmp	r0, r3
 800453c:	bf04      	itt	eq
 800453e:	690b      	ldreq	r3, [r1, #16]
 8004540:	6303      	streq	r3, [r0, #48]	@ 0x30
 8004542:	2301      	movs	r3, #1
 8004544:	6143      	str	r3, [r0, #20]
 8004546:	6903      	ldr	r3, [r0, #16]
 8004548:	07db      	lsls	r3, r3, #31
 800454a:	bf42      	ittt	mi
 800454c:	6903      	ldrmi	r3, [r0, #16]
 800454e:	f023 0301 	bicmi.w	r3, r3, #1
 8004552:	6103      	strmi	r3, [r0, #16]
 8004554:	4770      	bx	lr
 8004556:	bf00      	nop
 8004558:	40012c00 	.word	0x40012c00

0800455c <HAL_TIM_Base_Init>:
 800455c:	b510      	push	{r4, lr}
 800455e:	4604      	mov	r4, r0
 8004560:	b330      	cbz	r0, 80045b0 <HAL_TIM_Base_Init+0x54>
 8004562:	f890 303d 	ldrb.w	r3, [r0, #61]	@ 0x3d
 8004566:	f003 02ff 	and.w	r2, r3, #255	@ 0xff
 800456a:	b91b      	cbnz	r3, 8004574 <HAL_TIM_Base_Init+0x18>
 800456c:	f880 203c 	strb.w	r2, [r0, #60]	@ 0x3c
 8004570:	f7fd fe02 	bl	8002178 <HAL_TIM_Base_MspInit>
 8004574:	2302      	movs	r3, #2
 8004576:	6820      	ldr	r0, [r4, #0]
 8004578:	f884 303d 	strb.w	r3, [r4, #61]	@ 0x3d
 800457c:	1d21      	adds	r1, r4, #4
 800457e:	f7ff ffbb 	bl	80044f8 <TIM_Base_SetConfig>
 8004582:	2301      	movs	r3, #1
 8004584:	2000      	movs	r0, #0
 8004586:	f884 3046 	strb.w	r3, [r4, #70]	@ 0x46
 800458a:	f884 303e 	strb.w	r3, [r4, #62]	@ 0x3e
 800458e:	f884 303f 	strb.w	r3, [r4, #63]	@ 0x3f
 8004592:	f884 3040 	strb.w	r3, [r4, #64]	@ 0x40
 8004596:	f884 3041 	strb.w	r3, [r4, #65]	@ 0x41
 800459a:	f884 3042 	strb.w	r3, [r4, #66]	@ 0x42
 800459e:	f884 3043 	strb.w	r3, [r4, #67]	@ 0x43
 80045a2:	f884 3044 	strb.w	r3, [r4, #68]	@ 0x44
 80045a6:	f884 3045 	strb.w	r3, [r4, #69]	@ 0x45
 80045aa:	f884 303d 	strb.w	r3, [r4, #61]	@ 0x3d
 80045ae:	bd10      	pop	{r4, pc}
 80045b0:	2001      	movs	r0, #1
 80045b2:	e7fc      	b.n	80045ae <HAL_TIM_Base_Init+0x52>

080045b4 <HAL_TIM_PWM_Init>:
 80045b4:	b510      	push	{r4, lr}
 80045b6:	4604      	mov	r4, r0
 80045b8:	b330      	cbz	r0, 8004608 <HAL_TIM_PWM_Init+0x54>
 80045ba:	f890 303d 	ldrb.w	r3, [r0, #61]	@ 0x3d
 80045be:	f003 02ff 	and.w	r2, r3, #255	@ 0xff
 80045c2:	b91b      	cbnz	r3, 80045cc <HAL_TIM_PWM_Init+0x18>
 80045c4:	f880 203c 	strb.w	r2, [r0, #60]	@ 0x3c
 80045c8:	f7ff fefc 	bl	80043c4 <HAL_TIM_PWM_MspInit>
 80045cc:	2302      	movs	r3, #2
 80045ce:	6820      	ldr	r0, [r4, #0]
 80045d0:	f884 303d 	strb.w	r3, [r4, #61]	@ 0x3d
 80045d4:	1d21      	adds	r1, r4, #4
 80045d6:	f7ff ff8f 	bl	80044f8 <TIM_Base_SetConfig>
 80045da:	2301      	movs	r3, #1
 80045dc:	2000      	movs	r0, #0
 80045de:	f884 3046 	strb.w	r3, [r4, #70]	@ 0x46
 80045e2:	f884 303e 	strb.w	r3, [r4, #62]	@ 0x3e
 80045e6:	f884 303f 	strb.w	r3, [r4, #63]	@ 0x3f
 80045ea:	f884 3040 	strb.w	r3, [r4, #64]	@ 0x40
 80045ee:	f884 3041 	strb.w	r3, [r4, #65]	@ 0x41
 80045f2:	f884 3042 	strb.w	r3, [r4, #66]	@ 0x42
 80045f6:	f884 3043 	strb.w	r3, [r4, #67]	@ 0x43
 80045fa:	f884 3044 	strb.w	r3, [r4, #68]	@ 0x44
 80045fe:	f884 3045 	strb.w	r3, [r4, #69]	@ 0x45
 8004602:	f884 303d 	strb.w	r3, [r4, #61]	@ 0x3d
 8004606:	bd10      	pop	{r4, pc}
 8004608:	2001      	movs	r0, #1
 800460a:	e7fc      	b.n	8004606 <HAL_TIM_PWM_Init+0x52>

0800460c <TIM_OC2_SetConfig>:
 800460c:	6a03      	ldr	r3, [r0, #32]
 800460e:	6a02      	ldr	r2, [r0, #32]
 8004610:	b570      	push	{r4, r5, r6, lr}
 8004612:	f022 0210 	bic.w	r2, r2, #16
 8004616:	6202      	str	r2, [r0, #32]
 8004618:	6844      	ldr	r4, [r0, #4]
 800461a:	6982      	ldr	r2, [r0, #24]
 800461c:	680d      	ldr	r5, [r1, #0]
 800461e:	f422 42e6 	bic.w	r2, r2, #29440	@ 0x7300
 8004622:	ea42 2205 	orr.w	r2, r2, r5, lsl #8
 8004626:	688d      	ldr	r5, [r1, #8]
 8004628:	f023 0320 	bic.w	r3, r3, #32
 800462c:	ea43 1305 	orr.w	r3, r3, r5, lsl #4
 8004630:	4d0b      	ldr	r5, [pc, #44]	@ (8004660 <TIM_OC2_SetConfig+0x54>)
 8004632:	42a8      	cmp	r0, r5
 8004634:	d10d      	bne.n	8004652 <TIM_OC2_SetConfig+0x46>
 8004636:	68cd      	ldr	r5, [r1, #12]
 8004638:	f023 0380 	bic.w	r3, r3, #128	@ 0x80
 800463c:	ea43 1305 	orr.w	r3, r3, r5, lsl #4
 8004640:	f424 6440 	bic.w	r4, r4, #3072	@ 0xc00
 8004644:	e9d1 5605 	ldrd	r5, r6, [r1, #20]
 8004648:	4335      	orrs	r5, r6
 800464a:	f023 0340 	bic.w	r3, r3, #64	@ 0x40
 800464e:	ea44 0485 	orr.w	r4, r4, r5, lsl #2
 8004652:	6044      	str	r4, [r0, #4]
 8004654:	6182      	str	r2, [r0, #24]
 8004656:	684a      	ldr	r2, [r1, #4]
 8004658:	6382      	str	r2, [r0, #56]	@ 0x38
 800465a:	6203      	str	r3, [r0, #32]
 800465c:	bd70      	pop	{r4, r5, r6, pc}
 800465e:	bf00      	nop
 8004660:	40012c00 	.word	0x40012c00

08004664 <HAL_TIM_PWM_ConfigChannel>:
 8004664:	b538      	push	{r3, r4, r5, lr}
 8004666:	f890 303c 	ldrb.w	r3, [r0, #60]	@ 0x3c
 800466a:	4604      	mov	r4, r0
 800466c:	2b01      	cmp	r3, #1
 800466e:	d04f      	beq.n	8004710 <HAL_TIM_PWM_ConfigChannel+0xac>
 8004670:	2001      	movs	r0, #1
 8004672:	2a08      	cmp	r2, #8
 8004674:	f884 003c 	strb.w	r0, [r4, #60]	@ 0x3c
 8004678:	d03a      	beq.n	80046f0 <HAL_TIM_PWM_ConfigChannel+0x8c>
 800467a:	d806      	bhi.n	800468a <HAL_TIM_PWM_ConfigChannel+0x26>
 800467c:	b1ba      	cbz	r2, 80046ae <HAL_TIM_PWM_ConfigChannel+0x4a>
 800467e:	2a04      	cmp	r2, #4
 8004680:	d026      	beq.n	80046d0 <HAL_TIM_PWM_ConfigChannel+0x6c>
 8004682:	2300      	movs	r3, #0
 8004684:	f884 303c 	strb.w	r3, [r4, #60]	@ 0x3c
 8004688:	bd38      	pop	{r3, r4, r5, pc}
 800468a:	2a0c      	cmp	r2, #12
 800468c:	d1f9      	bne.n	8004682 <HAL_TIM_PWM_ConfigChannel+0x1e>
 800468e:	6820      	ldr	r0, [r4, #0]
 8004690:	f7ff fe76 	bl	8004380 <TIM_OC4_SetConfig>
 8004694:	69c3      	ldr	r3, [r0, #28]
 8004696:	690a      	ldr	r2, [r1, #16]
 8004698:	f443 6300 	orr.w	r3, r3, #2048	@ 0x800
 800469c:	61c3      	str	r3, [r0, #28]
 800469e:	69c3      	ldr	r3, [r0, #28]
 80046a0:	f423 6380 	bic.w	r3, r3, #1024	@ 0x400
 80046a4:	61c3      	str	r3, [r0, #28]
 80046a6:	69c3      	ldr	r3, [r0, #28]
 80046a8:	ea43 2302 	orr.w	r3, r3, r2, lsl #8
 80046ac:	e02e      	b.n	800470c <HAL_TIM_PWM_ConfigChannel+0xa8>
 80046ae:	6820      	ldr	r0, [r4, #0]
 80046b0:	f7ff fe14 	bl	80042dc <TIM_OC1_SetConfig>
 80046b4:	6983      	ldr	r3, [r0, #24]
 80046b6:	690a      	ldr	r2, [r1, #16]
 80046b8:	f043 0308 	orr.w	r3, r3, #8
 80046bc:	6183      	str	r3, [r0, #24]
 80046be:	6983      	ldr	r3, [r0, #24]
 80046c0:	f023 0304 	bic.w	r3, r3, #4
 80046c4:	6183      	str	r3, [r0, #24]
 80046c6:	6983      	ldr	r3, [r0, #24]
 80046c8:	4313      	orrs	r3, r2
 80046ca:	6183      	str	r3, [r0, #24]
 80046cc:	2000      	movs	r0, #0
 80046ce:	e7d8      	b.n	8004682 <HAL_TIM_PWM_ConfigChannel+0x1e>
 80046d0:	6820      	ldr	r0, [r4, #0]
 80046d2:	f7ff ff9b 	bl	800460c <TIM_OC2_SetConfig>
 80046d6:	6983      	ldr	r3, [r0, #24]
 80046d8:	690a      	ldr	r2, [r1, #16]
 80046da:	f443 6300 	orr.w	r3, r3, #2048	@ 0x800
 80046de:	6183      	str	r3, [r0, #24]
 80046e0:	6983      	ldr	r3, [r0, #24]
 80046e2:	f423 6380 	bic.w	r3, r3, #1024	@ 0x400
 80046e6:	6183      	str	r3, [r0, #24]
 80046e8:	6983      	ldr	r3, [r0, #24]
 80046ea:	ea43 2302 	orr.w	r3, r3, r2, lsl #8
 80046ee:	e7ec      	b.n	80046ca <HAL_TIM_PWM_ConfigChannel+0x66>
 80046f0:	6820      	ldr	r0, [r4, #0]
 80046f2:	f7ff fe1b 	bl	800432c <TIM_OC3_SetConfig>
 80046f6:	69c3      	ldr	r3, [r0, #28]
 80046f8:	690a      	ldr	r2, [r1, #16]
 80046fa:	f043 0308 	orr.w	r3, r3, #8
 80046fe:	61c3      	str	r3, [r0, #28]
 8004700:	69c3      	ldr	r3, [r0, #28]
 8004702:	f023 0304 	bic.w	r3, r3, #4
 8004706:	61c3      	str	r3, [r0, #28]
 8004708:	69c3      	ldr	r3, [r0, #28]
 800470a:	4313      	orrs	r3, r2
 800470c:	61c3      	str	r3, [r0, #28]
 800470e:	e7dd      	b.n	80046cc <HAL_TIM_PWM_ConfigChannel+0x68>
 8004710:	2002      	movs	r0, #2
 8004712:	e7b9      	b.n	8004688 <HAL_TIM_PWM_ConfigChannel+0x24>

08004714 <TIM_ETR_SetConfig>:
 8004714:	b510      	push	{r4, lr}
 8004716:	6884      	ldr	r4, [r0, #8]
 8004718:	430a      	orrs	r2, r1
 800471a:	f424 447f 	bic.w	r4, r4, #65280	@ 0xff00
 800471e:	ea42 2203 	orr.w	r2, r2, r3, lsl #8
 8004722:	4322      	orrs	r2, r4
 8004724:	6082      	str	r2, [r0, #8]
 8004726:	bd10      	pop	{r4, pc}

08004728 <HAL_TIM_ConfigClockSource>:
 8004728:	b538      	push	{r3, r4, r5, lr}
 800472a:	f890 303c 	ldrb.w	r3, [r0, #60]	@ 0x3c
 800472e:	4604      	mov	r4, r0
 8004730:	2b01      	cmp	r3, #1
 8004732:	f04f 0002 	mov.w	r0, #2
 8004736:	f000 808e 	beq.w	8004856 <HAL_TIM_ConfigClockSource+0x12e>
 800473a:	2201      	movs	r2, #1
 800473c:	f884 003d 	strb.w	r0, [r4, #61]	@ 0x3d
 8004740:	6820      	ldr	r0, [r4, #0]
 8004742:	f884 203c 	strb.w	r2, [r4, #60]	@ 0x3c
 8004746:	6883      	ldr	r3, [r0, #8]
 8004748:	f423 437f 	bic.w	r3, r3, #65280	@ 0xff00
 800474c:	f023 0377 	bic.w	r3, r3, #119	@ 0x77
 8004750:	6083      	str	r3, [r0, #8]
 8004752:	680b      	ldr	r3, [r1, #0]
 8004754:	2b60      	cmp	r3, #96	@ 0x60
 8004756:	d04f      	beq.n	80047f8 <HAL_TIM_ConfigClockSource+0xd0>
 8004758:	d832      	bhi.n	80047c0 <HAL_TIM_ConfigClockSource+0x98>
 800475a:	2b40      	cmp	r3, #64	@ 0x40
 800475c:	d064      	beq.n	8004828 <HAL_TIM_ConfigClockSource+0x100>
 800475e:	d816      	bhi.n	800478e <HAL_TIM_ConfigClockSource+0x66>
 8004760:	2b20      	cmp	r3, #32
 8004762:	d00d      	beq.n	8004780 <HAL_TIM_ConfigClockSource+0x58>
 8004764:	d80a      	bhi.n	800477c <HAL_TIM_ConfigClockSource+0x54>
 8004766:	f033 0110 	bics.w	r1, r3, #16
 800476a:	d009      	beq.n	8004780 <HAL_TIM_ConfigClockSource+0x58>
 800476c:	2301      	movs	r3, #1
 800476e:	f884 303d 	strb.w	r3, [r4, #61]	@ 0x3d
 8004772:	2300      	movs	r3, #0
 8004774:	f884 303c 	strb.w	r3, [r4, #60]	@ 0x3c
 8004778:	4610      	mov	r0, r2
 800477a:	bd38      	pop	{r3, r4, r5, pc}
 800477c:	2b30      	cmp	r3, #48	@ 0x30
 800477e:	d1f5      	bne.n	800476c <HAL_TIM_ConfigClockSource+0x44>
 8004780:	6882      	ldr	r2, [r0, #8]
 8004782:	f022 0270 	bic.w	r2, r2, #112	@ 0x70
 8004786:	4313      	orrs	r3, r2
 8004788:	f043 0307 	orr.w	r3, r3, #7
 800478c:	e028      	b.n	80047e0 <HAL_TIM_ConfigClockSource+0xb8>
 800478e:	2b50      	cmp	r3, #80	@ 0x50
 8004790:	d1ec      	bne.n	800476c <HAL_TIM_ConfigClockSource+0x44>
 8004792:	684a      	ldr	r2, [r1, #4]
 8004794:	68cd      	ldr	r5, [r1, #12]
 8004796:	6a01      	ldr	r1, [r0, #32]
 8004798:	6a03      	ldr	r3, [r0, #32]
 800479a:	f021 010a 	bic.w	r1, r1, #10
 800479e:	f023 0301 	bic.w	r3, r3, #1
 80047a2:	6203      	str	r3, [r0, #32]
 80047a4:	6983      	ldr	r3, [r0, #24]
 80047a6:	430a      	orrs	r2, r1
 80047a8:	f023 03f0 	bic.w	r3, r3, #240	@ 0xf0
 80047ac:	ea43 1305 	orr.w	r3, r3, r5, lsl #4
 80047b0:	6183      	str	r3, [r0, #24]
 80047b2:	6202      	str	r2, [r0, #32]
 80047b4:	6883      	ldr	r3, [r0, #8]
 80047b6:	f023 0370 	bic.w	r3, r3, #112	@ 0x70
 80047ba:	f043 0357 	orr.w	r3, r3, #87	@ 0x57
 80047be:	e00f      	b.n	80047e0 <HAL_TIM_ConfigClockSource+0xb8>
 80047c0:	f5b3 5f80 	cmp.w	r3, #4096	@ 0x1000
 80047c4:	d00d      	beq.n	80047e2 <HAL_TIM_ConfigClockSource+0xba>
 80047c6:	f5b3 5f00 	cmp.w	r3, #8192	@ 0x2000
 80047ca:	d00c      	beq.n	80047e6 <HAL_TIM_ConfigClockSource+0xbe>
 80047cc:	2b70      	cmp	r3, #112	@ 0x70
 80047ce:	d1cd      	bne.n	800476c <HAL_TIM_ConfigClockSource+0x44>
 80047d0:	68cb      	ldr	r3, [r1, #12]
 80047d2:	e9d1 2101 	ldrd	r2, r1, [r1, #4]
 80047d6:	f7ff ff9d 	bl	8004714 <TIM_ETR_SetConfig>
 80047da:	6883      	ldr	r3, [r0, #8]
 80047dc:	f043 0377 	orr.w	r3, r3, #119	@ 0x77
 80047e0:	6083      	str	r3, [r0, #8]
 80047e2:	2200      	movs	r2, #0
 80047e4:	e7c2      	b.n	800476c <HAL_TIM_ConfigClockSource+0x44>
 80047e6:	68cb      	ldr	r3, [r1, #12]
 80047e8:	e9d1 2101 	ldrd	r2, r1, [r1, #4]
 80047ec:	f7ff ff92 	bl	8004714 <TIM_ETR_SetConfig>
 80047f0:	6883      	ldr	r3, [r0, #8]
 80047f2:	f443 4380 	orr.w	r3, r3, #16384	@ 0x4000
 80047f6:	e7f3      	b.n	80047e0 <HAL_TIM_ConfigClockSource+0xb8>
 80047f8:	6a03      	ldr	r3, [r0, #32]
 80047fa:	6a02      	ldr	r2, [r0, #32]
 80047fc:	684d      	ldr	r5, [r1, #4]
 80047fe:	f022 0210 	bic.w	r2, r2, #16
 8004802:	68c9      	ldr	r1, [r1, #12]
 8004804:	6202      	str	r2, [r0, #32]
 8004806:	6982      	ldr	r2, [r0, #24]
 8004808:	f023 03a0 	bic.w	r3, r3, #160	@ 0xa0
 800480c:	f422 4270 	bic.w	r2, r2, #61440	@ 0xf000
 8004810:	ea43 1305 	orr.w	r3, r3, r5, lsl #4
 8004814:	ea42 3201 	orr.w	r2, r2, r1, lsl #12
 8004818:	6182      	str	r2, [r0, #24]
 800481a:	6203      	str	r3, [r0, #32]
 800481c:	6883      	ldr	r3, [r0, #8]
 800481e:	f023 0370 	bic.w	r3, r3, #112	@ 0x70
 8004822:	f043 0367 	orr.w	r3, r3, #103	@ 0x67
 8004826:	e7db      	b.n	80047e0 <HAL_TIM_ConfigClockSource+0xb8>
 8004828:	684a      	ldr	r2, [r1, #4]
 800482a:	68cd      	ldr	r5, [r1, #12]
 800482c:	6a01      	ldr	r1, [r0, #32]
 800482e:	6a03      	ldr	r3, [r0, #32]
 8004830:	f021 010a 	bic.w	r1, r1, #10
 8004834:	f023 0301 	bic.w	r3, r3, #1
 8004838:	6203      	str	r3, [r0, #32]
 800483a:	6983      	ldr	r3, [r0, #24]
 800483c:	430a      	orrs	r2, r1
 800483e:	f023 03f0 	bic.w	r3, r3, #240	@ 0xf0
 8004842:	ea43 1305 	orr.w	r3, r3, r5, lsl #4
 8004846:	6183      	str	r3, [r0, #24]
 8004848:	6202      	str	r2, [r0, #32]
 800484a:	6883      	ldr	r3, [r0, #8]
 800484c:	f023 0370 	bic.w	r3, r3, #112	@ 0x70
 8004850:	f043 0347 	orr.w	r3, r3, #71	@ 0x47
 8004854:	e7c4      	b.n	80047e0 <HAL_TIM_ConfigClockSource+0xb8>
 8004856:	4602      	mov	r2, r0
 8004858:	e78e      	b.n	8004778 <HAL_TIM_ConfigClockSource+0x50>

0800485a <TIM_CCxChannelCmd>:
 800485a:	b510      	push	{r4, lr}
 800485c:	2401      	movs	r4, #1
 800485e:	6a03      	ldr	r3, [r0, #32]
 8004860:	f001 011f 	and.w	r1, r1, #31
 8004864:	408c      	lsls	r4, r1
 8004866:	ea23 0304 	bic.w	r3, r3, r4
 800486a:	6203      	str	r3, [r0, #32]
 800486c:	6a03      	ldr	r3, [r0, #32]
 800486e:	408a      	lsls	r2, r1
 8004870:	431a      	orrs	r2, r3
 8004872:	6202      	str	r2, [r0, #32]
 8004874:	bd10      	pop	{r4, pc}
	...

08004878 <HAL_TIM_OC_Start>:
 8004878:	b508      	push	{r3, lr}
 800487a:	b929      	cbnz	r1, 8004888 <HAL_TIM_OC_Start+0x10>
 800487c:	f890 303e 	ldrb.w	r3, [r0, #62]	@ 0x3e
 8004880:	2b01      	cmp	r3, #1
 8004882:	d01d      	beq.n	80048c0 <HAL_TIM_OC_Start+0x48>
 8004884:	2001      	movs	r0, #1
 8004886:	e02e      	b.n	80048e6 <HAL_TIM_OC_Start+0x6e>
 8004888:	2904      	cmp	r1, #4
 800488a:	d107      	bne.n	800489c <HAL_TIM_OC_Start+0x24>
 800488c:	f890 303f 	ldrb.w	r3, [r0, #63]	@ 0x3f
 8004890:	2b01      	cmp	r3, #1
 8004892:	d1f7      	bne.n	8004884 <HAL_TIM_OC_Start+0xc>
 8004894:	2302      	movs	r3, #2
 8004896:	f880 303f 	strb.w	r3, [r0, #63]	@ 0x3f
 800489a:	e014      	b.n	80048c6 <HAL_TIM_OC_Start+0x4e>
 800489c:	2908      	cmp	r1, #8
 800489e:	d107      	bne.n	80048b0 <HAL_TIM_OC_Start+0x38>
 80048a0:	f890 3040 	ldrb.w	r3, [r0, #64]	@ 0x40
 80048a4:	2b01      	cmp	r3, #1
 80048a6:	d1ed      	bne.n	8004884 <HAL_TIM_OC_Start+0xc>
 80048a8:	2302      	movs	r3, #2
 80048aa:	f880 3040 	strb.w	r3, [r0, #64]	@ 0x40
 80048ae:	e00a      	b.n	80048c6 <HAL_TIM_OC_Start+0x4e>
 80048b0:	f890 3041 	ldrb.w	r3, [r0, #65]	@ 0x41
 80048b4:	2b01      	cmp	r3, #1
 80048b6:	d1e5      	bne.n	8004884 <HAL_TIM_OC_Start+0xc>
 80048b8:	2302      	movs	r3, #2
 80048ba:	f880 3041 	strb.w	r3, [r0, #65]	@ 0x41
 80048be:	e002      	b.n	80048c6 <HAL_TIM_OC_Start+0x4e>
 80048c0:	2302      	movs	r3, #2
 80048c2:	f880 303e 	strb.w	r3, [r0, #62]	@ 0x3e
 80048c6:	6800      	ldr	r0, [r0, #0]
 80048c8:	2201      	movs	r2, #1
 80048ca:	f7ff ffc6 	bl	800485a <TIM_CCxChannelCmd>
 80048ce:	4b0f      	ldr	r3, [pc, #60]	@ (800490c <HAL_TIM_OC_Start+0x94>)
 80048d0:	4298      	cmp	r0, r3
 80048d2:	d009      	beq.n	80048e8 <HAL_TIM_OC_Start+0x70>
 80048d4:	f1b0 4f80 	cmp.w	r0, #1073741824	@ 0x40000000
 80048d8:	d10b      	bne.n	80048f2 <HAL_TIM_OC_Start+0x7a>
 80048da:	6883      	ldr	r3, [r0, #8]
 80048dc:	f003 0307 	and.w	r3, r3, #7
 80048e0:	2b06      	cmp	r3, #6
 80048e2:	d10d      	bne.n	8004900 <HAL_TIM_OC_Start+0x88>
 80048e4:	2000      	movs	r0, #0
 80048e6:	bd08      	pop	{r3, pc}
 80048e8:	6c43      	ldr	r3, [r0, #68]	@ 0x44
 80048ea:	f443 4300 	orr.w	r3, r3, #32768	@ 0x8000
 80048ee:	6443      	str	r3, [r0, #68]	@ 0x44
 80048f0:	e7f3      	b.n	80048da <HAL_TIM_OC_Start+0x62>
 80048f2:	4b07      	ldr	r3, [pc, #28]	@ (8004910 <HAL_TIM_OC_Start+0x98>)
 80048f4:	4298      	cmp	r0, r3
 80048f6:	d0f0      	beq.n	80048da <HAL_TIM_OC_Start+0x62>
 80048f8:	f503 6380 	add.w	r3, r3, #1024	@ 0x400
 80048fc:	4298      	cmp	r0, r3
 80048fe:	d0ec      	beq.n	80048da <HAL_TIM_OC_Start+0x62>
 8004900:	6803      	ldr	r3, [r0, #0]
 8004902:	f043 0301 	orr.w	r3, r3, #1
 8004906:	6003      	str	r3, [r0, #0]
 8004908:	e7ec      	b.n	80048e4 <HAL_TIM_OC_Start+0x6c>
 800490a:	bf00      	nop
 800490c:	40012c00 	.word	0x40012c00
 8004910:	40000400 	.word	0x40000400

08004914 <HAL_TIM_PWM_Start>:
 8004914:	f7ff bfb0 	b.w	8004878 <HAL_TIM_OC_Start>

08004918 <HAL_TIM_OC_Stop>:
 8004918:	b538      	push	{r3, r4, r5, lr}
 800491a:	2200      	movs	r2, #0
 800491c:	4604      	mov	r4, r0
 800491e:	6800      	ldr	r0, [r0, #0]
 8004920:	460d      	mov	r5, r1
 8004922:	f7ff ff9a 	bl	800485a <TIM_CCxChannelCmd>
 8004926:	4b18      	ldr	r3, [pc, #96]	@ (8004988 <HAL_TIM_OC_Stop+0x70>)
 8004928:	4298      	cmp	r0, r3
 800492a:	d10d      	bne.n	8004948 <HAL_TIM_OC_Stop+0x30>
 800492c:	f241 1311 	movw	r3, #4369	@ 0x1111
 8004930:	6a02      	ldr	r2, [r0, #32]
 8004932:	421a      	tst	r2, r3
 8004934:	d108      	bne.n	8004948 <HAL_TIM_OC_Stop+0x30>
 8004936:	f240 4344 	movw	r3, #1092	@ 0x444
 800493a:	6a02      	ldr	r2, [r0, #32]
 800493c:	421a      	tst	r2, r3
 800493e:	bf02      	ittt	eq
 8004940:	6c43      	ldreq	r3, [r0, #68]	@ 0x44
 8004942:	f423 4300 	biceq.w	r3, r3, #32768	@ 0x8000
 8004946:	6443      	streq	r3, [r0, #68]	@ 0x44
 8004948:	f241 1311 	movw	r3, #4369	@ 0x1111
 800494c:	6a02      	ldr	r2, [r0, #32]
 800494e:	421a      	tst	r2, r3
 8004950:	d108      	bne.n	8004964 <HAL_TIM_OC_Stop+0x4c>
 8004952:	f240 4344 	movw	r3, #1092	@ 0x444
 8004956:	6a02      	ldr	r2, [r0, #32]
 8004958:	421a      	tst	r2, r3
 800495a:	bf02      	ittt	eq
 800495c:	6803      	ldreq	r3, [r0, #0]
 800495e:	f023 0301 	biceq.w	r3, r3, #1
 8004962:	6003      	streq	r3, [r0, #0]
 8004964:	2301      	movs	r3, #1
 8004966:	b91d      	cbnz	r5, 8004970 <HAL_TIM_OC_Stop+0x58>
 8004968:	f884 303e 	strb.w	r3, [r4, #62]	@ 0x3e
 800496c:	2000      	movs	r0, #0
 800496e:	bd38      	pop	{r3, r4, r5, pc}
 8004970:	2d04      	cmp	r5, #4
 8004972:	d102      	bne.n	800497a <HAL_TIM_OC_Stop+0x62>
 8004974:	f884 303f 	strb.w	r3, [r4, #63]	@ 0x3f
 8004978:	e7f8      	b.n	800496c <HAL_TIM_OC_Stop+0x54>
 800497a:	2d08      	cmp	r5, #8
 800497c:	bf0c      	ite	eq
 800497e:	f884 3040 	strbeq.w	r3, [r4, #64]	@ 0x40
 8004982:	f884 3041 	strbne.w	r3, [r4, #65]	@ 0x41
 8004986:	e7f1      	b.n	800496c <HAL_TIM_OC_Stop+0x54>
 8004988:	40012c00 	.word	0x40012c00

0800498c <HAL_TIM_PWM_Stop>:
 800498c:	f7ff bfc4 	b.w	8004918 <HAL_TIM_OC_Stop>

08004990 <HAL_TIMEx_MasterConfigSynchronization>:
 8004990:	b530      	push	{r4, r5, lr}
 8004992:	f890 303c 	ldrb.w	r3, [r0, #60]	@ 0x3c
 8004996:	4602      	mov	r2, r0
 8004998:	2b01      	cmp	r3, #1
 800499a:	f04f 0002 	mov.w	r0, #2
 800499e:	d022      	beq.n	80049e6 <HAL_TIMEx_MasterConfigSynchronization+0x56>
 80049a0:	6813      	ldr	r3, [r2, #0]
 80049a2:	f882 003d 	strb.w	r0, [r2, #61]	@ 0x3d
 80049a6:	685c      	ldr	r4, [r3, #4]
 80049a8:	680d      	ldr	r5, [r1, #0]
 80049aa:	f024 0470 	bic.w	r4, r4, #112	@ 0x70
 80049ae:	432c      	orrs	r4, r5
 80049b0:	6898      	ldr	r0, [r3, #8]
 80049b2:	605c      	str	r4, [r3, #4]
 80049b4:	4c0c      	ldr	r4, [pc, #48]	@ (80049e8 <HAL_TIMEx_MasterConfigSynchronization+0x58>)
 80049b6:	42a3      	cmp	r3, r4
 80049b8:	d00a      	beq.n	80049d0 <HAL_TIMEx_MasterConfigSynchronization+0x40>
 80049ba:	f1b3 4f80 	cmp.w	r3, #1073741824	@ 0x40000000
 80049be:	d007      	beq.n	80049d0 <HAL_TIMEx_MasterConfigSynchronization+0x40>
 80049c0:	f5a4 3494 	sub.w	r4, r4, #75776	@ 0x12800
 80049c4:	42a3      	cmp	r3, r4
 80049c6:	d003      	beq.n	80049d0 <HAL_TIMEx_MasterConfigSynchronization+0x40>
 80049c8:	f504 6480 	add.w	r4, r4, #1024	@ 0x400
 80049cc:	42a3      	cmp	r3, r4
 80049ce:	d104      	bne.n	80049da <HAL_TIMEx_MasterConfigSynchronization+0x4a>
 80049d0:	6849      	ldr	r1, [r1, #4]
 80049d2:	f020 0080 	bic.w	r0, r0, #128	@ 0x80
 80049d6:	4301      	orrs	r1, r0
 80049d8:	6099      	str	r1, [r3, #8]
 80049da:	2301      	movs	r3, #1
 80049dc:	2000      	movs	r0, #0
 80049de:	f882 303d 	strb.w	r3, [r2, #61]	@ 0x3d
 80049e2:	f882 003c 	strb.w	r0, [r2, #60]	@ 0x3c
 80049e6:	bd30      	pop	{r4, r5, pc}
 80049e8:	40012c00 	.word	0x40012c00

080049ec <HAL_TIMEx_ConfigBreakDeadTime>:
 80049ec:	f890 303c 	ldrb.w	r3, [r0, #60]	@ 0x3c
 80049f0:	4602      	mov	r2, r0
 80049f2:	2b01      	cmp	r3, #1
 80049f4:	d01e      	beq.n	8004a34 <HAL_TIMEx_ConfigBreakDeadTime+0x48>
 80049f6:	68cb      	ldr	r3, [r1, #12]
 80049f8:	6888      	ldr	r0, [r1, #8]
 80049fa:	f423 7340 	bic.w	r3, r3, #768	@ 0x300
 80049fe:	4303      	orrs	r3, r0
 8004a00:	6848      	ldr	r0, [r1, #4]
 8004a02:	f423 6380 	bic.w	r3, r3, #1024	@ 0x400
 8004a06:	4303      	orrs	r3, r0
 8004a08:	6808      	ldr	r0, [r1, #0]
 8004a0a:	f423 6300 	bic.w	r3, r3, #2048	@ 0x800
 8004a0e:	4303      	orrs	r3, r0
 8004a10:	6908      	ldr	r0, [r1, #16]
 8004a12:	f423 5380 	bic.w	r3, r3, #4096	@ 0x1000
 8004a16:	4303      	orrs	r3, r0
 8004a18:	6948      	ldr	r0, [r1, #20]
 8004a1a:	f423 5300 	bic.w	r3, r3, #8192	@ 0x2000
 8004a1e:	4303      	orrs	r3, r0
 8004a20:	2000      	movs	r0, #0
 8004a22:	69c9      	ldr	r1, [r1, #28]
 8004a24:	f423 4380 	bic.w	r3, r3, #16384	@ 0x4000
 8004a28:	430b      	orrs	r3, r1
 8004a2a:	6811      	ldr	r1, [r2, #0]
 8004a2c:	644b      	str	r3, [r1, #68]	@ 0x44
 8004a2e:	f882 003c 	strb.w	r0, [r2, #60]	@ 0x3c
 8004a32:	4770      	bx	lr
 8004a34:	2002      	movs	r0, #2
 8004a36:	4770      	bx	lr

08004a38 <HAL_TIMEx_CommutCallback>:
 8004a38:	4770      	bx	lr

08004a3a <HAL_TIMEx_BreakCallback>:
 8004a3a:	4770      	bx	lr

08004a3c <UART_EndRxTransfer>:
 8004a3c:	6802      	ldr	r2, [r0, #0]
 8004a3e:	f102 030c 	add.w	r3, r2, #12
 8004a42:	e853 3f00 	ldrex	r3, [r3]
 8004a46:	f423 7390 	bic.w	r3, r3, #288	@ 0x120
 8004a4a:	320c      	adds	r2, #12
 8004a4c:	e842 3100 	strex	r1, r3, [r2]
 8004a50:	6802      	ldr	r2, [r0, #0]
 8004a52:	2900      	cmp	r1, #0
 8004a54:	d1f2      	bne.n	8004a3c <UART_EndRxTransfer>
 8004a56:	f102 0314 	add.w	r3, r2, #20
 8004a5a:	e853 3f00 	ldrex	r3, [r3]
 8004a5e:	f023 0301 	bic.w	r3, r3, #1
 8004a62:	f102 0c14 	add.w	ip, r2, #20
 8004a66:	e84c 3100 	strex	r1, r3, [ip]
 8004a6a:	2900      	cmp	r1, #0
 8004a6c:	d1f3      	bne.n	8004a56 <UART_EndRxTransfer+0x1a>
 8004a6e:	6b03      	ldr	r3, [r0, #48]	@ 0x30
 8004a70:	2b01      	cmp	r3, #1
 8004a72:	d10b      	bne.n	8004a8c <UART_EndRxTransfer+0x50>
 8004a74:	f102 030c 	add.w	r3, r2, #12
 8004a78:	e853 3f00 	ldrex	r3, [r3]
 8004a7c:	f023 0310 	bic.w	r3, r3, #16
 8004a80:	f102 0c0c 	add.w	ip, r2, #12
 8004a84:	e84c 3100 	strex	r1, r3, [ip]
 8004a88:	2900      	cmp	r1, #0
 8004a8a:	d1f3      	bne.n	8004a74 <UART_EndRxTransfer+0x38>
 8004a8c:	2320      	movs	r3, #32
 8004a8e:	f880 3042 	strb.w	r3, [r0, #66]	@ 0x42
 8004a92:	2300      	movs	r3, #0
 8004a94:	6303      	str	r3, [r0, #48]	@ 0x30
 8004a96:	4770      	bx	lr

08004a98 <UART_SetConfig>:
 8004a98:	b510      	push	{r4, lr}
 8004a9a:	4604      	mov	r4, r0
 8004a9c:	6803      	ldr	r3, [r0, #0]
 8004a9e:	68c1      	ldr	r1, [r0, #12]
 8004aa0:	691a      	ldr	r2, [r3, #16]
 8004aa2:	f422 5240 	bic.w	r2, r2, #12288	@ 0x3000
 8004aa6:	430a      	orrs	r2, r1
 8004aa8:	611a      	str	r2, [r3, #16]
 8004aaa:	6882      	ldr	r2, [r0, #8]
 8004aac:	6900      	ldr	r0, [r0, #16]
 8004aae:	68d9      	ldr	r1, [r3, #12]
 8004ab0:	4302      	orrs	r2, r0
 8004ab2:	6960      	ldr	r0, [r4, #20]
 8004ab4:	f421 51b0 	bic.w	r1, r1, #5632	@ 0x1600
 8004ab8:	f021 010c 	bic.w	r1, r1, #12
 8004abc:	4302      	orrs	r2, r0
 8004abe:	430a      	orrs	r2, r1
 8004ac0:	60da      	str	r2, [r3, #12]
 8004ac2:	695a      	ldr	r2, [r3, #20]
 8004ac4:	69a1      	ldr	r1, [r4, #24]
 8004ac6:	f422 7240 	bic.w	r2, r2, #768	@ 0x300
 8004aca:	430a      	orrs	r2, r1
 8004acc:	615a      	str	r2, [r3, #20]
 8004ace:	4a0e      	ldr	r2, [pc, #56]	@ (8004b08 <UART_SetConfig+0x70>)
 8004ad0:	4293      	cmp	r3, r2
 8004ad2:	d115      	bne.n	8004b00 <UART_SetConfig+0x68>
 8004ad4:	f7ff fb1a 	bl	800410c <HAL_RCC_GetPCLK2Freq>
 8004ad8:	2319      	movs	r3, #25
 8004ada:	4343      	muls	r3, r0
 8004adc:	6862      	ldr	r2, [r4, #4]
 8004ade:	6820      	ldr	r0, [r4, #0]
 8004ae0:	0092      	lsls	r2, r2, #2
 8004ae2:	fbb3 f3f2 	udiv	r3, r3, r2
 8004ae6:	2264      	movs	r2, #100	@ 0x64
 8004ae8:	fbb3 f1f2 	udiv	r1, r3, r2
 8004aec:	fb02 3311 	mls	r3, r2, r1, r3
 8004af0:	011b      	lsls	r3, r3, #4
 8004af2:	3332      	adds	r3, #50	@ 0x32
 8004af4:	fbb3 f3f2 	udiv	r3, r3, r2
 8004af8:	eb03 1301 	add.w	r3, r3, r1, lsl #4
 8004afc:	6083      	str	r3, [r0, #8]
 8004afe:	bd10      	pop	{r4, pc}
 8004b00:	f7ff faf4 	bl	80040ec <HAL_RCC_GetPCLK1Freq>
 8004b04:	e7e8      	b.n	8004ad8 <UART_SetConfig+0x40>
 8004b06:	bf00      	nop
 8004b08:	40013800 	.word	0x40013800

08004b0c <UART_WaitOnFlagUntilTimeout.constprop.0>:
 8004b0c:	b5f7      	push	{r0, r1, r2, r4, r5, r6, r7, lr}
 8004b0e:	4605      	mov	r5, r0
 8004b10:	460c      	mov	r4, r1
 8004b12:	4617      	mov	r7, r2
 8004b14:	461e      	mov	r6, r3
 8004b16:	682a      	ldr	r2, [r5, #0]
 8004b18:	6813      	ldr	r3, [r2, #0]
 8004b1a:	ea34 0303 	bics.w	r3, r4, r3
 8004b1e:	d101      	bne.n	8004b24 <UART_WaitOnFlagUntilTimeout.constprop.0+0x18>
 8004b20:	2000      	movs	r0, #0
 8004b22:	e021      	b.n	8004b68 <UART_WaitOnFlagUntilTimeout.constprop.0+0x5c>
 8004b24:	1c70      	adds	r0, r6, #1
 8004b26:	d0f7      	beq.n	8004b18 <UART_WaitOnFlagUntilTimeout.constprop.0+0xc>
 8004b28:	f7fd fcbe 	bl	80024a8 <HAL_GetTick>
 8004b2c:	1bc0      	subs	r0, r0, r7
 8004b2e:	4286      	cmp	r6, r0
 8004b30:	d31c      	bcc.n	8004b6c <UART_WaitOnFlagUntilTimeout.constprop.0+0x60>
 8004b32:	b1de      	cbz	r6, 8004b6c <UART_WaitOnFlagUntilTimeout.constprop.0+0x60>
 8004b34:	682b      	ldr	r3, [r5, #0]
 8004b36:	68da      	ldr	r2, [r3, #12]
 8004b38:	0751      	lsls	r1, r2, #29
 8004b3a:	d5ec      	bpl.n	8004b16 <UART_WaitOnFlagUntilTimeout.constprop.0+0xa>
 8004b3c:	2c80      	cmp	r4, #128	@ 0x80
 8004b3e:	d0ea      	beq.n	8004b16 <UART_WaitOnFlagUntilTimeout.constprop.0+0xa>
 8004b40:	2c40      	cmp	r4, #64	@ 0x40
 8004b42:	d0e8      	beq.n	8004b16 <UART_WaitOnFlagUntilTimeout.constprop.0+0xa>
 8004b44:	681a      	ldr	r2, [r3, #0]
 8004b46:	0712      	lsls	r2, r2, #28
 8004b48:	d5e5      	bpl.n	8004b16 <UART_WaitOnFlagUntilTimeout.constprop.0+0xa>
 8004b4a:	2400      	movs	r4, #0
 8004b4c:	9401      	str	r4, [sp, #4]
 8004b4e:	681a      	ldr	r2, [r3, #0]
 8004b50:	4628      	mov	r0, r5
 8004b52:	9201      	str	r2, [sp, #4]
 8004b54:	685b      	ldr	r3, [r3, #4]
 8004b56:	9301      	str	r3, [sp, #4]
 8004b58:	9b01      	ldr	r3, [sp, #4]
 8004b5a:	f7ff ff6f 	bl	8004a3c <UART_EndRxTransfer>
 8004b5e:	2308      	movs	r3, #8
 8004b60:	2001      	movs	r0, #1
 8004b62:	646b      	str	r3, [r5, #68]	@ 0x44
 8004b64:	f885 4040 	strb.w	r4, [r5, #64]	@ 0x40
 8004b68:	b003      	add	sp, #12
 8004b6a:	bdf0      	pop	{r4, r5, r6, r7, pc}
 8004b6c:	2003      	movs	r0, #3
 8004b6e:	e7fb      	b.n	8004b68 <UART_WaitOnFlagUntilTimeout.constprop.0+0x5c>

08004b70 <HAL_UART_Init>:
 8004b70:	b510      	push	{r4, lr}
 8004b72:	4604      	mov	r4, r0
 8004b74:	b348      	cbz	r0, 8004bca <HAL_UART_Init+0x5a>
 8004b76:	f890 3041 	ldrb.w	r3, [r0, #65]	@ 0x41
 8004b7a:	f003 02ff 	and.w	r2, r3, #255	@ 0xff
 8004b7e:	b91b      	cbnz	r3, 8004b88 <HAL_UART_Init+0x18>
 8004b80:	f880 2040 	strb.w	r2, [r0, #64]	@ 0x40
 8004b84:	f7fd fb8e 	bl	80022a4 <HAL_UART_MspInit>
 8004b88:	2324      	movs	r3, #36	@ 0x24
 8004b8a:	6822      	ldr	r2, [r4, #0]
 8004b8c:	f884 3041 	strb.w	r3, [r4, #65]	@ 0x41
 8004b90:	68d3      	ldr	r3, [r2, #12]
 8004b92:	4620      	mov	r0, r4
 8004b94:	f423 5300 	bic.w	r3, r3, #8192	@ 0x2000
 8004b98:	60d3      	str	r3, [r2, #12]
 8004b9a:	f7ff ff7d 	bl	8004a98 <UART_SetConfig>
 8004b9e:	6823      	ldr	r3, [r4, #0]
 8004ba0:	2000      	movs	r0, #0
 8004ba2:	691a      	ldr	r2, [r3, #16]
 8004ba4:	f422 4290 	bic.w	r2, r2, #18432	@ 0x4800
 8004ba8:	611a      	str	r2, [r3, #16]
 8004baa:	695a      	ldr	r2, [r3, #20]
 8004bac:	f022 022a 	bic.w	r2, r2, #42	@ 0x2a
 8004bb0:	615a      	str	r2, [r3, #20]
 8004bb2:	68da      	ldr	r2, [r3, #12]
 8004bb4:	f442 5200 	orr.w	r2, r2, #8192	@ 0x2000
 8004bb8:	60da      	str	r2, [r3, #12]
 8004bba:	2320      	movs	r3, #32
 8004bbc:	6460      	str	r0, [r4, #68]	@ 0x44
 8004bbe:	f884 3041 	strb.w	r3, [r4, #65]	@ 0x41
 8004bc2:	f884 3042 	strb.w	r3, [r4, #66]	@ 0x42
 8004bc6:	6360      	str	r0, [r4, #52]	@ 0x34
 8004bc8:	bd10      	pop	{r4, pc}
 8004bca:	2001      	movs	r0, #1
 8004bcc:	e7fc      	b.n	8004bc8 <HAL_UART_Init+0x58>

08004bce <HAL_UART_DeInit>:
 8004bce:	b510      	push	{r4, lr}
 8004bd0:	4604      	mov	r4, r0
 8004bd2:	b1a0      	cbz	r0, 8004bfe <HAL_UART_DeInit+0x30>
 8004bd4:	2324      	movs	r3, #36	@ 0x24
 8004bd6:	6802      	ldr	r2, [r0, #0]
 8004bd8:	f880 3041 	strb.w	r3, [r0, #65]	@ 0x41
 8004bdc:	68d3      	ldr	r3, [r2, #12]
 8004bde:	f423 5300 	bic.w	r3, r3, #8192	@ 0x2000
 8004be2:	60d3      	str	r3, [r2, #12]
 8004be4:	f7fd fba0 	bl	8002328 <HAL_UART_MspDeInit>
 8004be8:	2000      	movs	r0, #0
 8004bea:	6460      	str	r0, [r4, #68]	@ 0x44
 8004bec:	f884 0040 	strb.w	r0, [r4, #64]	@ 0x40
 8004bf0:	f884 0041 	strb.w	r0, [r4, #65]	@ 0x41
 8004bf4:	f884 0042 	strb.w	r0, [r4, #66]	@ 0x42
 8004bf8:	6320      	str	r0, [r4, #48]	@ 0x30
 8004bfa:	6360      	str	r0, [r4, #52]	@ 0x34
 8004bfc:	bd10      	pop	{r4, pc}
 8004bfe:	2001      	movs	r0, #1
 8004c00:	e7fc      	b.n	8004bfc <HAL_UART_DeInit+0x2e>

08004c02 <HAL_UART_Transmit>:
 8004c02:	e92d 43f8 	stmdb	sp!, {r3, r4, r5, r6, r7, r8, r9, lr}
 8004c06:	4698      	mov	r8, r3
 8004c08:	f890 3041 	ldrb.w	r3, [r0, #65]	@ 0x41
 8004c0c:	4604      	mov	r4, r0
 8004c0e:	2b20      	cmp	r3, #32
 8004c10:	460e      	mov	r6, r1
 8004c12:	4617      	mov	r7, r2
 8004c14:	d13f      	bne.n	8004c96 <HAL_UART_Transmit+0x94>
 8004c16:	2900      	cmp	r1, #0
 8004c18:	d03f      	beq.n	8004c9a <HAL_UART_Transmit+0x98>
 8004c1a:	2a00      	cmp	r2, #0
 8004c1c:	d03d      	beq.n	8004c9a <HAL_UART_Transmit+0x98>
 8004c1e:	2321      	movs	r3, #33	@ 0x21
 8004c20:	2500      	movs	r5, #0
 8004c22:	6445      	str	r5, [r0, #68]	@ 0x44
 8004c24:	f880 3041 	strb.w	r3, [r0, #65]	@ 0x41
 8004c28:	f7fd fc3e 	bl	80024a8 <HAL_GetTick>
 8004c2c:	68a3      	ldr	r3, [r4, #8]
 8004c2e:	4681      	mov	r9, r0
 8004c30:	f5b3 5f80 	cmp.w	r3, #4096	@ 0x1000
 8004c34:	84a7      	strh	r7, [r4, #36]	@ 0x24
 8004c36:	84e7      	strh	r7, [r4, #38]	@ 0x26
 8004c38:	d103      	bne.n	8004c42 <HAL_UART_Transmit+0x40>
 8004c3a:	6923      	ldr	r3, [r4, #16]
 8004c3c:	b90b      	cbnz	r3, 8004c42 <HAL_UART_Transmit+0x40>
 8004c3e:	4635      	mov	r5, r6
 8004c40:	461e      	mov	r6, r3
 8004c42:	8ce3      	ldrh	r3, [r4, #38]	@ 0x26
 8004c44:	b29b      	uxth	r3, r3
 8004c46:	b953      	cbnz	r3, 8004c5e <HAL_UART_Transmit+0x5c>
 8004c48:	4643      	mov	r3, r8
 8004c4a:	464a      	mov	r2, r9
 8004c4c:	2140      	movs	r1, #64	@ 0x40
 8004c4e:	4620      	mov	r0, r4
 8004c50:	f7ff ff5c 	bl	8004b0c <UART_WaitOnFlagUntilTimeout.constprop.0>
 8004c54:	2320      	movs	r3, #32
 8004c56:	b950      	cbnz	r0, 8004c6e <HAL_UART_Transmit+0x6c>
 8004c58:	f884 3041 	strb.w	r3, [r4, #65]	@ 0x41
 8004c5c:	e00a      	b.n	8004c74 <HAL_UART_Transmit+0x72>
 8004c5e:	4643      	mov	r3, r8
 8004c60:	464a      	mov	r2, r9
 8004c62:	2180      	movs	r1, #128	@ 0x80
 8004c64:	4620      	mov	r0, r4
 8004c66:	f7ff ff51 	bl	8004b0c <UART_WaitOnFlagUntilTimeout.constprop.0>
 8004c6a:	b128      	cbz	r0, 8004c78 <HAL_UART_Transmit+0x76>
 8004c6c:	2320      	movs	r3, #32
 8004c6e:	2003      	movs	r0, #3
 8004c70:	f884 3041 	strb.w	r3, [r4, #65]	@ 0x41
 8004c74:	e8bd 83f8 	ldmia.w	sp!, {r3, r4, r5, r6, r7, r8, r9, pc}
 8004c78:	6822      	ldr	r2, [r4, #0]
 8004c7a:	b94e      	cbnz	r6, 8004c90 <HAL_UART_Transmit+0x8e>
 8004c7c:	f835 3b02 	ldrh.w	r3, [r5], #2
 8004c80:	f3c3 0308 	ubfx	r3, r3, #0, #9
 8004c84:	6053      	str	r3, [r2, #4]
 8004c86:	8ce1      	ldrh	r1, [r4, #38]	@ 0x26
 8004c88:	3901      	subs	r1, #1
 8004c8a:	b289      	uxth	r1, r1
 8004c8c:	84e1      	strh	r1, [r4, #38]	@ 0x26
 8004c8e:	e7d8      	b.n	8004c42 <HAL_UART_Transmit+0x40>
 8004c90:	f816 3b01 	ldrb.w	r3, [r6], #1
 8004c94:	e7f6      	b.n	8004c84 <HAL_UART_Transmit+0x82>
 8004c96:	2002      	movs	r0, #2
 8004c98:	e7ec      	b.n	8004c74 <HAL_UART_Transmit+0x72>
 8004c9a:	2001      	movs	r0, #1
 8004c9c:	e7ea      	b.n	8004c74 <HAL_UART_Transmit+0x72>

08004c9e <HAL_UART_Abort>:
 8004c9e:	b510      	push	{r4, lr}
 8004ca0:	4604      	mov	r4, r0
 8004ca2:	6822      	ldr	r2, [r4, #0]
 8004ca4:	f102 030c 	add.w	r3, r2, #12
 8004ca8:	e853 3f00 	ldrex	r3, [r3]
 8004cac:	f423 73f0 	bic.w	r3, r3, #480	@ 0x1e0
 8004cb0:	320c      	adds	r2, #12
 8004cb2:	e842 3100 	strex	r1, r3, [r2]
 8004cb6:	6823      	ldr	r3, [r4, #0]
 8004cb8:	2900      	cmp	r1, #0
 8004cba:	d1f2      	bne.n	8004ca2 <HAL_UART_Abort+0x4>
 8004cbc:	f103 0214 	add.w	r2, r3, #20
 8004cc0:	e852 2f00 	ldrex	r2, [r2]
 8004cc4:	f022 0201 	bic.w	r2, r2, #1
 8004cc8:	f103 0014 	add.w	r0, r3, #20
 8004ccc:	e840 2100 	strex	r1, r2, [r0]
 8004cd0:	2900      	cmp	r1, #0
 8004cd2:	d1f3      	bne.n	8004cbc <HAL_UART_Abort+0x1e>
 8004cd4:	6b22      	ldr	r2, [r4, #48]	@ 0x30
 8004cd6:	2a01      	cmp	r2, #1
 8004cd8:	d10b      	bne.n	8004cf2 <HAL_UART_Abort+0x54>
 8004cda:	f103 020c 	add.w	r2, r3, #12
 8004cde:	e852 2f00 	ldrex	r2, [r2]
 8004ce2:	f022 0210 	bic.w	r2, r2, #16
 8004ce6:	f103 000c 	add.w	r0, r3, #12
 8004cea:	e840 2100 	strex	r1, r2, [r0]
 8004cee:	2900      	cmp	r1, #0
 8004cf0:	d1f3      	bne.n	8004cda <HAL_UART_Abort+0x3c>
 8004cf2:	695a      	ldr	r2, [r3, #20]
 8004cf4:	0612      	lsls	r2, r2, #24
 8004cf6:	d51a      	bpl.n	8004d2e <HAL_UART_Abort+0x90>
 8004cf8:	f103 0214 	add.w	r2, r3, #20
 8004cfc:	e852 2f00 	ldrex	r2, [r2]
 8004d00:	f022 0280 	bic.w	r2, r2, #128	@ 0x80
 8004d04:	f103 0014 	add.w	r0, r3, #20
 8004d08:	e840 2100 	strex	r1, r2, [r0]
 8004d0c:	2900      	cmp	r1, #0
 8004d0e:	d1f3      	bne.n	8004cf8 <HAL_UART_Abort+0x5a>
 8004d10:	6ba0      	ldr	r0, [r4, #56]	@ 0x38
 8004d12:	b160      	cbz	r0, 8004d2e <HAL_UART_Abort+0x90>
 8004d14:	6341      	str	r1, [r0, #52]	@ 0x34
 8004d16:	f7fd fec5 	bl	8002aa4 <HAL_DMA_Abort>
 8004d1a:	b140      	cbz	r0, 8004d2e <HAL_UART_Abort+0x90>
 8004d1c:	6ba0      	ldr	r0, [r4, #56]	@ 0x38
 8004d1e:	f7fd ff2a 	bl	8002b76 <HAL_DMA_GetError>
 8004d22:	2820      	cmp	r0, #32
 8004d24:	d103      	bne.n	8004d2e <HAL_UART_Abort+0x90>
 8004d26:	2310      	movs	r3, #16
 8004d28:	2003      	movs	r0, #3
 8004d2a:	6463      	str	r3, [r4, #68]	@ 0x44
 8004d2c:	bd10      	pop	{r4, pc}
 8004d2e:	6822      	ldr	r2, [r4, #0]
 8004d30:	6953      	ldr	r3, [r2, #20]
 8004d32:	065b      	lsls	r3, r3, #25
 8004d34:	d516      	bpl.n	8004d64 <HAL_UART_Abort+0xc6>
 8004d36:	f102 0314 	add.w	r3, r2, #20
 8004d3a:	e853 3f00 	ldrex	r3, [r3]
 8004d3e:	f023 0340 	bic.w	r3, r3, #64	@ 0x40
 8004d42:	f102 0014 	add.w	r0, r2, #20
 8004d46:	e840 3100 	strex	r1, r3, [r0]
 8004d4a:	2900      	cmp	r1, #0
 8004d4c:	d1f3      	bne.n	8004d36 <HAL_UART_Abort+0x98>
 8004d4e:	6be0      	ldr	r0, [r4, #60]	@ 0x3c
 8004d50:	b140      	cbz	r0, 8004d64 <HAL_UART_Abort+0xc6>
 8004d52:	6341      	str	r1, [r0, #52]	@ 0x34
 8004d54:	f7fd fea6 	bl	8002aa4 <HAL_DMA_Abort>
 8004d58:	b120      	cbz	r0, 8004d64 <HAL_UART_Abort+0xc6>
 8004d5a:	6be0      	ldr	r0, [r4, #60]	@ 0x3c
 8004d5c:	f7fd ff0b 	bl	8002b76 <HAL_DMA_GetError>
 8004d60:	2820      	cmp	r0, #32
 8004d62:	d0e0      	beq.n	8004d26 <HAL_UART_Abort+0x88>
 8004d64:	2000      	movs	r0, #0
 8004d66:	2320      	movs	r3, #32
 8004d68:	84e0      	strh	r0, [r4, #38]	@ 0x26
 8004d6a:	85e0      	strh	r0, [r4, #46]	@ 0x2e
 8004d6c:	6460      	str	r0, [r4, #68]	@ 0x44
 8004d6e:	f884 3042 	strb.w	r3, [r4, #66]	@ 0x42
 8004d72:	f884 3041 	strb.w	r3, [r4, #65]	@ 0x41
 8004d76:	6320      	str	r0, [r4, #48]	@ 0x30
 8004d78:	e7d8      	b.n	8004d2c <HAL_UART_Abort+0x8e>

08004d7a <HAL_UART_TxCpltCallback>:
 8004d7a:	4770      	bx	lr

08004d7c <UART_DMAAbortOnError>:
 8004d7c:	b508      	push	{r3, lr}
 8004d7e:	2300      	movs	r3, #0
 8004d80:	6a40      	ldr	r0, [r0, #36]	@ 0x24
 8004d82:	85c3      	strh	r3, [r0, #46]	@ 0x2e
 8004d84:	84c3      	strh	r3, [r0, #38]	@ 0x26
 8004d86:	f7fc fc85 	bl	8001694 <HAL_UART_ErrorCallback>
 8004d8a:	bd08      	pop	{r3, pc}

08004d8c <HAL_UARTEx_RxEventCallback>:
 8004d8c:	4770      	bx	lr

08004d8e <UART_Receive_IT.isra.0>:
 8004d8e:	f890 3042 	ldrb.w	r3, [r0, #66]	@ 0x42
 8004d92:	b507      	push	{r0, r1, r2, lr}
 8004d94:	2b22      	cmp	r3, #34	@ 0x22
 8004d96:	d142      	bne.n	8004e1e <UART_Receive_IT.isra.0+0x90>
 8004d98:	6881      	ldr	r1, [r0, #8]
 8004d9a:	6802      	ldr	r2, [r0, #0]
 8004d9c:	f5b1 5f80 	cmp.w	r1, #4096	@ 0x1000
 8004da0:	6a83      	ldr	r3, [r0, #40]	@ 0x28
 8004da2:	d13f      	bne.n	8004e24 <UART_Receive_IT.isra.0+0x96>
 8004da4:	6901      	ldr	r1, [r0, #16]
 8004da6:	2900      	cmp	r1, #0
 8004da8:	d13f      	bne.n	8004e2a <UART_Receive_IT.isra.0+0x9c>
 8004daa:	6852      	ldr	r2, [r2, #4]
 8004dac:	f3c2 0208 	ubfx	r2, r2, #0, #9
 8004db0:	f823 2b02 	strh.w	r2, [r3], #2
 8004db4:	6283      	str	r3, [r0, #40]	@ 0x28
 8004db6:	8dc3      	ldrh	r3, [r0, #46]	@ 0x2e
 8004db8:	3b01      	subs	r3, #1
 8004dba:	b29b      	uxth	r3, r3
 8004dbc:	85c3      	strh	r3, [r0, #46]	@ 0x2e
 8004dbe:	2b00      	cmp	r3, #0
 8004dc0:	d12d      	bne.n	8004e1e <UART_Receive_IT.isra.0+0x90>
 8004dc2:	6802      	ldr	r2, [r0, #0]
 8004dc4:	68d1      	ldr	r1, [r2, #12]
 8004dc6:	f021 0120 	bic.w	r1, r1, #32
 8004dca:	60d1      	str	r1, [r2, #12]
 8004dcc:	68d1      	ldr	r1, [r2, #12]
 8004dce:	f421 7180 	bic.w	r1, r1, #256	@ 0x100
 8004dd2:	60d1      	str	r1, [r2, #12]
 8004dd4:	6951      	ldr	r1, [r2, #20]
 8004dd6:	f021 0101 	bic.w	r1, r1, #1
 8004dda:	6151      	str	r1, [r2, #20]
 8004ddc:	2220      	movs	r2, #32
 8004dde:	f880 2042 	strb.w	r2, [r0, #66]	@ 0x42
 8004de2:	6343      	str	r3, [r0, #52]	@ 0x34
 8004de4:	6b02      	ldr	r2, [r0, #48]	@ 0x30
 8004de6:	2a01      	cmp	r2, #1
 8004de8:	6802      	ldr	r2, [r0, #0]
 8004dea:	d128      	bne.n	8004e3e <UART_Receive_IT.isra.0+0xb0>
 8004dec:	6303      	str	r3, [r0, #48]	@ 0x30
 8004dee:	f102 030c 	add.w	r3, r2, #12
 8004df2:	e853 3f00 	ldrex	r3, [r3]
 8004df6:	f023 0310 	bic.w	r3, r3, #16
 8004dfa:	f102 0c0c 	add.w	ip, r2, #12
 8004dfe:	e84c 3100 	strex	r1, r3, [ip]
 8004e02:	2900      	cmp	r1, #0
 8004e04:	d1f3      	bne.n	8004dee <UART_Receive_IT.isra.0+0x60>
 8004e06:	6813      	ldr	r3, [r2, #0]
 8004e08:	06db      	lsls	r3, r3, #27
 8004e0a:	d505      	bpl.n	8004e18 <UART_Receive_IT.isra.0+0x8a>
 8004e0c:	9101      	str	r1, [sp, #4]
 8004e0e:	6813      	ldr	r3, [r2, #0]
 8004e10:	9301      	str	r3, [sp, #4]
 8004e12:	6853      	ldr	r3, [r2, #4]
 8004e14:	9301      	str	r3, [sp, #4]
 8004e16:	9b01      	ldr	r3, [sp, #4]
 8004e18:	8d81      	ldrh	r1, [r0, #44]	@ 0x2c
 8004e1a:	f7ff ffb7 	bl	8004d8c <HAL_UARTEx_RxEventCallback>
 8004e1e:	b003      	add	sp, #12
 8004e20:	f85d fb04 	ldr.w	pc, [sp], #4
 8004e24:	b939      	cbnz	r1, 8004e36 <UART_Receive_IT.isra.0+0xa8>
 8004e26:	6901      	ldr	r1, [r0, #16]
 8004e28:	b929      	cbnz	r1, 8004e36 <UART_Receive_IT.isra.0+0xa8>
 8004e2a:	6852      	ldr	r2, [r2, #4]
 8004e2c:	b2d2      	uxtb	r2, r2
 8004e2e:	701a      	strb	r2, [r3, #0]
 8004e30:	6a83      	ldr	r3, [r0, #40]	@ 0x28
 8004e32:	3301      	adds	r3, #1
 8004e34:	e7be      	b.n	8004db4 <UART_Receive_IT.isra.0+0x26>
 8004e36:	6852      	ldr	r2, [r2, #4]
 8004e38:	f002 027f 	and.w	r2, r2, #127	@ 0x7f
 8004e3c:	e7f7      	b.n	8004e2e <UART_Receive_IT.isra.0+0xa0>
 8004e3e:	f7fc fbe1 	bl	8001604 <HAL_UART_RxCpltCallback>
 8004e42:	e7ec      	b.n	8004e1e <UART_Receive_IT.isra.0+0x90>

08004e44 <HAL_UART_IRQHandler>:
 8004e44:	6803      	ldr	r3, [r0, #0]
 8004e46:	b573      	push	{r0, r1, r4, r5, r6, lr}
 8004e48:	681a      	ldr	r2, [r3, #0]
 8004e4a:	4604      	mov	r4, r0
 8004e4c:	0716      	lsls	r6, r2, #28
 8004e4e:	68d9      	ldr	r1, [r3, #12]
 8004e50:	695d      	ldr	r5, [r3, #20]
 8004e52:	d108      	bne.n	8004e66 <HAL_UART_IRQHandler+0x22>
 8004e54:	0696      	lsls	r6, r2, #26
 8004e56:	d568      	bpl.n	8004f2a <HAL_UART_IRQHandler+0xe6>
 8004e58:	068d      	lsls	r5, r1, #26
 8004e5a:	d566      	bpl.n	8004f2a <HAL_UART_IRQHandler+0xe6>
 8004e5c:	b002      	add	sp, #8
 8004e5e:	e8bd 4070 	ldmia.w	sp!, {r4, r5, r6, lr}
 8004e62:	f7ff bf94 	b.w	8004d8e <UART_Receive_IT.isra.0>
 8004e66:	f005 0001 	and.w	r0, r5, #1
 8004e6a:	f401 7590 	and.w	r5, r1, #288	@ 0x120
 8004e6e:	4305      	orrs	r5, r0
 8004e70:	d05b      	beq.n	8004f2a <HAL_UART_IRQHandler+0xe6>
 8004e72:	07d6      	lsls	r6, r2, #31
 8004e74:	d505      	bpl.n	8004e82 <HAL_UART_IRQHandler+0x3e>
 8004e76:	05cd      	lsls	r5, r1, #23
 8004e78:	bf42      	ittt	mi
 8004e7a:	6c63      	ldrmi	r3, [r4, #68]	@ 0x44
 8004e7c:	f043 0301 	orrmi.w	r3, r3, #1
 8004e80:	6463      	strmi	r3, [r4, #68]	@ 0x44
 8004e82:	0753      	lsls	r3, r2, #29
 8004e84:	d504      	bpl.n	8004e90 <HAL_UART_IRQHandler+0x4c>
 8004e86:	b118      	cbz	r0, 8004e90 <HAL_UART_IRQHandler+0x4c>
 8004e88:	6c63      	ldr	r3, [r4, #68]	@ 0x44
 8004e8a:	f043 0302 	orr.w	r3, r3, #2
 8004e8e:	6463      	str	r3, [r4, #68]	@ 0x44
 8004e90:	0796      	lsls	r6, r2, #30
 8004e92:	d504      	bpl.n	8004e9e <HAL_UART_IRQHandler+0x5a>
 8004e94:	b118      	cbz	r0, 8004e9e <HAL_UART_IRQHandler+0x5a>
 8004e96:	6c63      	ldr	r3, [r4, #68]	@ 0x44
 8004e98:	f043 0304 	orr.w	r3, r3, #4
 8004e9c:	6463      	str	r3, [r4, #68]	@ 0x44
 8004e9e:	0715      	lsls	r5, r2, #28
 8004ea0:	d507      	bpl.n	8004eb2 <HAL_UART_IRQHandler+0x6e>
 8004ea2:	f001 0320 	and.w	r3, r1, #32
 8004ea6:	4303      	orrs	r3, r0
 8004ea8:	bf1e      	ittt	ne
 8004eaa:	6c63      	ldrne	r3, [r4, #68]	@ 0x44
 8004eac:	f043 0308 	orrne.w	r3, r3, #8
 8004eb0:	6463      	strne	r3, [r4, #68]	@ 0x44
 8004eb2:	6c63      	ldr	r3, [r4, #68]	@ 0x44
 8004eb4:	2b00      	cmp	r3, #0
 8004eb6:	d032      	beq.n	8004f1e <HAL_UART_IRQHandler+0xda>
 8004eb8:	0692      	lsls	r2, r2, #26
 8004eba:	d504      	bpl.n	8004ec6 <HAL_UART_IRQHandler+0x82>
 8004ebc:	068b      	lsls	r3, r1, #26
 8004ebe:	d502      	bpl.n	8004ec6 <HAL_UART_IRQHandler+0x82>
 8004ec0:	4620      	mov	r0, r4
 8004ec2:	f7ff ff64 	bl	8004d8e <UART_Receive_IT.isra.0>
 8004ec6:	6826      	ldr	r6, [r4, #0]
 8004ec8:	4620      	mov	r0, r4
 8004eca:	6973      	ldr	r3, [r6, #20]
 8004ecc:	6c62      	ldr	r2, [r4, #68]	@ 0x44
 8004ece:	f003 0340 	and.w	r3, r3, #64	@ 0x40
 8004ed2:	f002 0208 	and.w	r2, r2, #8
 8004ed6:	ea53 0502 	orrs.w	r5, r3, r2
 8004eda:	d022      	beq.n	8004f22 <HAL_UART_IRQHandler+0xde>
 8004edc:	f7ff fdae 	bl	8004a3c <UART_EndRxTransfer>
 8004ee0:	6973      	ldr	r3, [r6, #20]
 8004ee2:	065e      	lsls	r6, r3, #25
 8004ee4:	d518      	bpl.n	8004f18 <HAL_UART_IRQHandler+0xd4>
 8004ee6:	6822      	ldr	r2, [r4, #0]
 8004ee8:	f102 0314 	add.w	r3, r2, #20
 8004eec:	e853 3f00 	ldrex	r3, [r3]
 8004ef0:	f023 0340 	bic.w	r3, r3, #64	@ 0x40
 8004ef4:	3214      	adds	r2, #20
 8004ef6:	e842 3100 	strex	r1, r3, [r2]
 8004efa:	2900      	cmp	r1, #0
 8004efc:	d1f3      	bne.n	8004ee6 <HAL_UART_IRQHandler+0xa2>
 8004efe:	6be0      	ldr	r0, [r4, #60]	@ 0x3c
 8004f00:	b150      	cbz	r0, 8004f18 <HAL_UART_IRQHandler+0xd4>
 8004f02:	4b74      	ldr	r3, [pc, #464]	@ (80050d4 <HAL_UART_IRQHandler+0x290>)
 8004f04:	6343      	str	r3, [r0, #52]	@ 0x34
 8004f06:	f7fd fded 	bl	8002ae4 <HAL_DMA_Abort_IT>
 8004f0a:	b140      	cbz	r0, 8004f1e <HAL_UART_IRQHandler+0xda>
 8004f0c:	6be0      	ldr	r0, [r4, #60]	@ 0x3c
 8004f0e:	6b43      	ldr	r3, [r0, #52]	@ 0x34
 8004f10:	b002      	add	sp, #8
 8004f12:	e8bd 4070 	ldmia.w	sp!, {r4, r5, r6, lr}
 8004f16:	4718      	bx	r3
 8004f18:	4620      	mov	r0, r4
 8004f1a:	f7fc fbbb 	bl	8001694 <HAL_UART_ErrorCallback>
 8004f1e:	b002      	add	sp, #8
 8004f20:	bd70      	pop	{r4, r5, r6, pc}
 8004f22:	f7fc fbb7 	bl	8001694 <HAL_UART_ErrorCallback>
 8004f26:	6465      	str	r5, [r4, #68]	@ 0x44
 8004f28:	e7f9      	b.n	8004f1e <HAL_UART_IRQHandler+0xda>
 8004f2a:	6b20      	ldr	r0, [r4, #48]	@ 0x30
 8004f2c:	2801      	cmp	r0, #1
 8004f2e:	f040 8094 	bne.w	800505a <HAL_UART_IRQHandler+0x216>
 8004f32:	06d5      	lsls	r5, r2, #27
 8004f34:	f140 8091 	bpl.w	800505a <HAL_UART_IRQHandler+0x216>
 8004f38:	06c8      	lsls	r0, r1, #27
 8004f3a:	f140 808e 	bpl.w	800505a <HAL_UART_IRQHandler+0x216>
 8004f3e:	2200      	movs	r2, #0
 8004f40:	9201      	str	r2, [sp, #4]
 8004f42:	681a      	ldr	r2, [r3, #0]
 8004f44:	9201      	str	r2, [sp, #4]
 8004f46:	685a      	ldr	r2, [r3, #4]
 8004f48:	9201      	str	r2, [sp, #4]
 8004f4a:	9a01      	ldr	r2, [sp, #4]
 8004f4c:	695a      	ldr	r2, [r3, #20]
 8004f4e:	0652      	lsls	r2, r2, #25
 8004f50:	d54d      	bpl.n	8004fee <HAL_UART_IRQHandler+0x1aa>
 8004f52:	6be1      	ldr	r1, [r4, #60]	@ 0x3c
 8004f54:	680a      	ldr	r2, [r1, #0]
 8004f56:	6852      	ldr	r2, [r2, #4]
 8004f58:	b292      	uxth	r2, r2
 8004f5a:	2a00      	cmp	r2, #0
 8004f5c:	d0df      	beq.n	8004f1e <HAL_UART_IRQHandler+0xda>
 8004f5e:	8da0      	ldrh	r0, [r4, #44]	@ 0x2c
 8004f60:	4290      	cmp	r0, r2
 8004f62:	d9dc      	bls.n	8004f1e <HAL_UART_IRQHandler+0xda>
 8004f64:	85e2      	strh	r2, [r4, #46]	@ 0x2e
 8004f66:	698a      	ldr	r2, [r1, #24]
 8004f68:	2a20      	cmp	r2, #32
 8004f6a:	d036      	beq.n	8004fda <HAL_UART_IRQHandler+0x196>
 8004f6c:	f103 020c 	add.w	r2, r3, #12
 8004f70:	e852 2f00 	ldrex	r2, [r2]
 8004f74:	f422 7280 	bic.w	r2, r2, #256	@ 0x100
 8004f78:	f103 000c 	add.w	r0, r3, #12
 8004f7c:	e840 2100 	strex	r1, r2, [r0]
 8004f80:	2900      	cmp	r1, #0
 8004f82:	d1f3      	bne.n	8004f6c <HAL_UART_IRQHandler+0x128>
 8004f84:	f103 0214 	add.w	r2, r3, #20
 8004f88:	e852 2f00 	ldrex	r2, [r2]
 8004f8c:	f022 0201 	bic.w	r2, r2, #1
 8004f90:	f103 0014 	add.w	r0, r3, #20
 8004f94:	e840 2100 	strex	r1, r2, [r0]
 8004f98:	2900      	cmp	r1, #0
 8004f9a:	d1f3      	bne.n	8004f84 <HAL_UART_IRQHandler+0x140>
 8004f9c:	f103 0214 	add.w	r2, r3, #20
 8004fa0:	e852 2f00 	ldrex	r2, [r2]
 8004fa4:	f022 0240 	bic.w	r2, r2, #64	@ 0x40
 8004fa8:	f103 0014 	add.w	r0, r3, #20
 8004fac:	e840 2100 	strex	r1, r2, [r0]
 8004fb0:	2900      	cmp	r1, #0
 8004fb2:	d1f3      	bne.n	8004f9c <HAL_UART_IRQHandler+0x158>
 8004fb4:	2220      	movs	r2, #32
 8004fb6:	f884 2042 	strb.w	r2, [r4, #66]	@ 0x42
 8004fba:	6321      	str	r1, [r4, #48]	@ 0x30
 8004fbc:	f103 020c 	add.w	r2, r3, #12
 8004fc0:	e852 2f00 	ldrex	r2, [r2]
 8004fc4:	f022 0210 	bic.w	r2, r2, #16
 8004fc8:	f103 000c 	add.w	r0, r3, #12
 8004fcc:	e840 2100 	strex	r1, r2, [r0]
 8004fd0:	2900      	cmp	r1, #0
 8004fd2:	d1f3      	bne.n	8004fbc <HAL_UART_IRQHandler+0x178>
 8004fd4:	6be0      	ldr	r0, [r4, #60]	@ 0x3c
 8004fd6:	f7fd fd65 	bl	8002aa4 <HAL_DMA_Abort>
 8004fda:	2302      	movs	r3, #2
 8004fdc:	6363      	str	r3, [r4, #52]	@ 0x34
 8004fde:	8de3      	ldrh	r3, [r4, #46]	@ 0x2e
 8004fe0:	8da1      	ldrh	r1, [r4, #44]	@ 0x2c
 8004fe2:	1ac9      	subs	r1, r1, r3
 8004fe4:	b289      	uxth	r1, r1
 8004fe6:	4620      	mov	r0, r4
 8004fe8:	f7ff fed0 	bl	8004d8c <HAL_UARTEx_RxEventCallback>
 8004fec:	e797      	b.n	8004f1e <HAL_UART_IRQHandler+0xda>
 8004fee:	8de2      	ldrh	r2, [r4, #46]	@ 0x2e
 8004ff0:	8de0      	ldrh	r0, [r4, #46]	@ 0x2e
 8004ff2:	8da1      	ldrh	r1, [r4, #44]	@ 0x2c
 8004ff4:	b280      	uxth	r0, r0
 8004ff6:	b292      	uxth	r2, r2
 8004ff8:	2800      	cmp	r0, #0
 8004ffa:	d090      	beq.n	8004f1e <HAL_UART_IRQHandler+0xda>
 8004ffc:	1a89      	subs	r1, r1, r2
 8004ffe:	b289      	uxth	r1, r1
 8005000:	2900      	cmp	r1, #0
 8005002:	d08c      	beq.n	8004f1e <HAL_UART_IRQHandler+0xda>
 8005004:	f103 020c 	add.w	r2, r3, #12
 8005008:	e852 2f00 	ldrex	r2, [r2]
 800500c:	f422 7290 	bic.w	r2, r2, #288	@ 0x120
 8005010:	f103 050c 	add.w	r5, r3, #12
 8005014:	e845 2000 	strex	r0, r2, [r5]
 8005018:	2800      	cmp	r0, #0
 800501a:	d1f3      	bne.n	8005004 <HAL_UART_IRQHandler+0x1c0>
 800501c:	f103 0214 	add.w	r2, r3, #20
 8005020:	e852 2f00 	ldrex	r2, [r2]
 8005024:	f022 0201 	bic.w	r2, r2, #1
 8005028:	f103 0514 	add.w	r5, r3, #20
 800502c:	e845 2000 	strex	r0, r2, [r5]
 8005030:	2800      	cmp	r0, #0
 8005032:	d1f3      	bne.n	800501c <HAL_UART_IRQHandler+0x1d8>
 8005034:	2220      	movs	r2, #32
 8005036:	f884 2042 	strb.w	r2, [r4, #66]	@ 0x42
 800503a:	6320      	str	r0, [r4, #48]	@ 0x30
 800503c:	f103 020c 	add.w	r2, r3, #12
 8005040:	e852 2f00 	ldrex	r2, [r2]
 8005044:	f022 0210 	bic.w	r2, r2, #16
 8005048:	f103 050c 	add.w	r5, r3, #12
 800504c:	e845 2000 	strex	r0, r2, [r5]
 8005050:	2800      	cmp	r0, #0
 8005052:	d1f3      	bne.n	800503c <HAL_UART_IRQHandler+0x1f8>
 8005054:	2302      	movs	r3, #2
 8005056:	6363      	str	r3, [r4, #52]	@ 0x34
 8005058:	e7c5      	b.n	8004fe6 <HAL_UART_IRQHandler+0x1a2>
 800505a:	0616      	lsls	r6, r2, #24
 800505c:	d528      	bpl.n	80050b0 <HAL_UART_IRQHandler+0x26c>
 800505e:	060d      	lsls	r5, r1, #24
 8005060:	d526      	bpl.n	80050b0 <HAL_UART_IRQHandler+0x26c>
 8005062:	f894 2041 	ldrb.w	r2, [r4, #65]	@ 0x41
 8005066:	2a21      	cmp	r2, #33	@ 0x21
 8005068:	f47f af59 	bne.w	8004f1e <HAL_UART_IRQHandler+0xda>
 800506c:	68a1      	ldr	r1, [r4, #8]
 800506e:	6a22      	ldr	r2, [r4, #32]
 8005070:	f5b1 5f80 	cmp.w	r1, #4096	@ 0x1000
 8005074:	d117      	bne.n	80050a6 <HAL_UART_IRQHandler+0x262>
 8005076:	6921      	ldr	r1, [r4, #16]
 8005078:	b9a9      	cbnz	r1, 80050a6 <HAL_UART_IRQHandler+0x262>
 800507a:	f832 1b02 	ldrh.w	r1, [r2], #2
 800507e:	f3c1 0108 	ubfx	r1, r1, #0, #9
 8005082:	6059      	str	r1, [r3, #4]
 8005084:	6222      	str	r2, [r4, #32]
 8005086:	8ce2      	ldrh	r2, [r4, #38]	@ 0x26
 8005088:	3a01      	subs	r2, #1
 800508a:	b292      	uxth	r2, r2
 800508c:	84e2      	strh	r2, [r4, #38]	@ 0x26
 800508e:	2a00      	cmp	r2, #0
 8005090:	f47f af45 	bne.w	8004f1e <HAL_UART_IRQHandler+0xda>
 8005094:	68da      	ldr	r2, [r3, #12]
 8005096:	f022 0280 	bic.w	r2, r2, #128	@ 0x80
 800509a:	60da      	str	r2, [r3, #12]
 800509c:	68da      	ldr	r2, [r3, #12]
 800509e:	f042 0240 	orr.w	r2, r2, #64	@ 0x40
 80050a2:	60da      	str	r2, [r3, #12]
 80050a4:	e73b      	b.n	8004f1e <HAL_UART_IRQHandler+0xda>
 80050a6:	1c51      	adds	r1, r2, #1
 80050a8:	6221      	str	r1, [r4, #32]
 80050aa:	7812      	ldrb	r2, [r2, #0]
 80050ac:	605a      	str	r2, [r3, #4]
 80050ae:	e7ea      	b.n	8005086 <HAL_UART_IRQHandler+0x242>
 80050b0:	0650      	lsls	r0, r2, #25
 80050b2:	f57f af34 	bpl.w	8004f1e <HAL_UART_IRQHandler+0xda>
 80050b6:	064a      	lsls	r2, r1, #25
 80050b8:	f57f af31 	bpl.w	8004f1e <HAL_UART_IRQHandler+0xda>
 80050bc:	68da      	ldr	r2, [r3, #12]
 80050be:	4620      	mov	r0, r4
 80050c0:	f022 0240 	bic.w	r2, r2, #64	@ 0x40
 80050c4:	60da      	str	r2, [r3, #12]
 80050c6:	2320      	movs	r3, #32
 80050c8:	f884 3041 	strb.w	r3, [r4, #65]	@ 0x41
 80050cc:	f7ff fe55 	bl	8004d7a <HAL_UART_TxCpltCallback>
 80050d0:	e725      	b.n	8004f1e <HAL_UART_IRQHandler+0xda>
 80050d2:	bf00      	nop
 80050d4:	08004d7d 	.word	0x08004d7d

080050d8 <UART_Start_Receive_IT>:
 80050d8:	2300      	movs	r3, #0
 80050da:	85c2      	strh	r2, [r0, #46]	@ 0x2e
 80050dc:	6443      	str	r3, [r0, #68]	@ 0x44
 80050de:	2322      	movs	r3, #34	@ 0x22
 80050e0:	8582      	strh	r2, [r0, #44]	@ 0x2c
 80050e2:	6902      	ldr	r2, [r0, #16]
 80050e4:	f880 3042 	strb.w	r3, [r0, #66]	@ 0x42
 80050e8:	6281      	str	r1, [r0, #40]	@ 0x28
 80050ea:	6803      	ldr	r3, [r0, #0]
 80050ec:	b11a      	cbz	r2, 80050f6 <UART_Start_Receive_IT+0x1e>
 80050ee:	68da      	ldr	r2, [r3, #12]
 80050f0:	f442 7280 	orr.w	r2, r2, #256	@ 0x100
 80050f4:	60da      	str	r2, [r3, #12]
 80050f6:	695a      	ldr	r2, [r3, #20]
 80050f8:	2000      	movs	r0, #0
 80050fa:	f042 0201 	orr.w	r2, r2, #1
 80050fe:	615a      	str	r2, [r3, #20]
 8005100:	68da      	ldr	r2, [r3, #12]
 8005102:	f042 0220 	orr.w	r2, r2, #32
 8005106:	60da      	str	r2, [r3, #12]
 8005108:	4770      	bx	lr

0800510a <HAL_UART_Receive_IT>:
 800510a:	b470      	push	{r4, r5, r6}
 800510c:	f890 6042 	ldrb.w	r6, [r0, #66]	@ 0x42
 8005110:	2e20      	cmp	r6, #32
 8005112:	d106      	bne.n	8005122 <HAL_UART_Receive_IT+0x18>
 8005114:	b141      	cbz	r1, 8005128 <HAL_UART_Receive_IT+0x1e>
 8005116:	b13a      	cbz	r2, 8005128 <HAL_UART_Receive_IT+0x1e>
 8005118:	2400      	movs	r4, #0
 800511a:	6304      	str	r4, [r0, #48]	@ 0x30
 800511c:	bc70      	pop	{r4, r5, r6}
 800511e:	f7ff bfdb 	b.w	80050d8 <UART_Start_Receive_IT>
 8005122:	2002      	movs	r0, #2
 8005124:	bc70      	pop	{r4, r5, r6}
 8005126:	4770      	bx	lr
 8005128:	2001      	movs	r0, #1
 800512a:	e7fb      	b.n	8005124 <HAL_UART_Receive_IT+0x1a>

0800512c <osKernelInitialize>:
 800512c:	f3ef 8305 	mrs	r3, IPSR
 8005130:	b92b      	cbnz	r3, 800513e <osKernelInitialize+0x12>
 8005132:	4b06      	ldr	r3, [pc, #24]	@ (800514c <osKernelInitialize+0x20>)
 8005134:	6818      	ldr	r0, [r3, #0]
 8005136:	b928      	cbnz	r0, 8005144 <osKernelInitialize+0x18>
 8005138:	2201      	movs	r2, #1
 800513a:	601a      	str	r2, [r3, #0]
 800513c:	4770      	bx	lr
 800513e:	f06f 0005 	mvn.w	r0, #5
 8005142:	4770      	bx	lr
 8005144:	f04f 30ff 	mov.w	r0, #4294967295
 8005148:	4770      	bx	lr
 800514a:	bf00      	nop
 800514c:	20000ca0 	.word	0x20000ca0

08005150 <osKernelStart>:
 8005150:	b510      	push	{r4, lr}
 8005152:	f3ef 8405 	mrs	r4, IPSR
 8005156:	b95c      	cbnz	r4, 8005170 <osKernelStart+0x20>
 8005158:	4b08      	ldr	r3, [pc, #32]	@ (800517c <osKernelStart+0x2c>)
 800515a:	681a      	ldr	r2, [r3, #0]
 800515c:	2a01      	cmp	r2, #1
 800515e:	d10a      	bne.n	8005176 <osKernelStart+0x26>
 8005160:	4a07      	ldr	r2, [pc, #28]	@ (8005180 <osKernelStart+0x30>)
 8005162:	77d4      	strb	r4, [r2, #31]
 8005164:	2202      	movs	r2, #2
 8005166:	601a      	str	r2, [r3, #0]
 8005168:	f000 ff3c 	bl	8005fe4 <vTaskStartScheduler>
 800516c:	4620      	mov	r0, r4
 800516e:	bd10      	pop	{r4, pc}
 8005170:	f06f 0005 	mvn.w	r0, #5
 8005174:	e7fb      	b.n	800516e <osKernelStart+0x1e>
 8005176:	f04f 30ff 	mov.w	r0, #4294967295
 800517a:	e7f8      	b.n	800516e <osKernelStart+0x1e>
 800517c:	20000ca0 	.word	0x20000ca0
 8005180:	e000ed00 	.word	0xe000ed00

08005184 <osKernelGetTickCount>:
 8005184:	f3ef 8305 	mrs	r3, IPSR
 8005188:	b10b      	cbz	r3, 800518e <osKernelGetTickCount+0xa>
 800518a:	f000 bf7f 	b.w	800608c <xTaskGetTickCountFromISR>
 800518e:	f000 bf77 	b.w	8006080 <xTaskGetTickCount>

08005192 <osThreadNew>:
 8005192:	b5f0      	push	{r4, r5, r6, r7, lr}
 8005194:	4614      	mov	r4, r2
 8005196:	2200      	movs	r2, #0
 8005198:	b087      	sub	sp, #28
 800519a:	460b      	mov	r3, r1
 800519c:	9205      	str	r2, [sp, #20]
 800519e:	f3ef 8205 	mrs	r2, IPSR
 80051a2:	b9fa      	cbnz	r2, 80051e4 <osThreadNew+0x52>
 80051a4:	b1f0      	cbz	r0, 80051e4 <osThreadNew+0x52>
 80051a6:	b354      	cbz	r4, 80051fe <osThreadNew+0x6c>
 80051a8:	69a5      	ldr	r5, [r4, #24]
 80051aa:	b125      	cbz	r5, 80051b6 <osThreadNew+0x24>
 80051ac:	1e69      	subs	r1, r5, #1
 80051ae:	2937      	cmp	r1, #55	@ 0x37
 80051b0:	d902      	bls.n	80051b8 <osThreadNew+0x26>
 80051b2:	2000      	movs	r0, #0
 80051b4:	e017      	b.n	80051e6 <osThreadNew+0x54>
 80051b6:	2518      	movs	r5, #24
 80051b8:	6862      	ldr	r2, [r4, #4]
 80051ba:	07d2      	lsls	r2, r2, #31
 80051bc:	d4f9      	bmi.n	80051b2 <osThreadNew+0x20>
 80051be:	6966      	ldr	r6, [r4, #20]
 80051c0:	b19e      	cbz	r6, 80051ea <osThreadNew+0x58>
 80051c2:	08b2      	lsrs	r2, r6, #2
 80051c4:	6821      	ldr	r1, [r4, #0]
 80051c6:	e9d4 7c02 	ldrd	r7, ip, [r4, #8]
 80051ca:	b187      	cbz	r7, 80051ee <osThreadNew+0x5c>
 80051cc:	f1bc 0f5b 	cmp.w	ip, #91	@ 0x5b
 80051d0:	d908      	bls.n	80051e4 <osThreadNew+0x52>
 80051d2:	6924      	ldr	r4, [r4, #16]
 80051d4:	b134      	cbz	r4, 80051e4 <osThreadNew+0x52>
 80051d6:	b12e      	cbz	r6, 80051e4 <osThreadNew+0x52>
 80051d8:	e9cd 4701 	strd	r4, r7, [sp, #4]
 80051dc:	9500      	str	r5, [sp, #0]
 80051de:	f000 fe9a 	bl	8005f16 <xTaskCreateStatic>
 80051e2:	9005      	str	r0, [sp, #20]
 80051e4:	9805      	ldr	r0, [sp, #20]
 80051e6:	b007      	add	sp, #28
 80051e8:	bdf0      	pop	{r4, r5, r6, r7, pc}
 80051ea:	2280      	movs	r2, #128	@ 0x80
 80051ec:	e7ea      	b.n	80051c4 <osThreadNew+0x32>
 80051ee:	f1bc 0f00 	cmp.w	ip, #0
 80051f2:	d1f7      	bne.n	80051e4 <osThreadNew+0x52>
 80051f4:	6924      	ldr	r4, [r4, #16]
 80051f6:	2c00      	cmp	r4, #0
 80051f8:	d1f4      	bne.n	80051e4 <osThreadNew+0x52>
 80051fa:	460c      	mov	r4, r1
 80051fc:	e001      	b.n	8005202 <osThreadNew+0x70>
 80051fe:	2518      	movs	r5, #24
 8005200:	2280      	movs	r2, #128	@ 0x80
 8005202:	a905      	add	r1, sp, #20
 8005204:	e9cd 5100 	strd	r5, r1, [sp]
 8005208:	b292      	uxth	r2, r2
 800520a:	4621      	mov	r1, r4
 800520c:	f000 febb 	bl	8005f86 <xTaskCreate>
 8005210:	2801      	cmp	r0, #1
 8005212:	bf1c      	itt	ne
 8005214:	2300      	movne	r3, #0
 8005216:	9305      	strne	r3, [sp, #20]
 8005218:	e7e4      	b.n	80051e4 <osThreadNew+0x52>

0800521a <osDelay>:
 800521a:	b508      	push	{r3, lr}
 800521c:	f3ef 8205 	mrs	r2, IPSR
 8005220:	b922      	cbnz	r2, 800522c <osDelay+0x12>
 8005222:	b108      	cbz	r0, 8005228 <osDelay+0xe>
 8005224:	f001 f890 	bl	8006348 <vTaskDelay>
 8005228:	2000      	movs	r0, #0
 800522a:	bd08      	pop	{r3, pc}
 800522c:	f06f 0005 	mvn.w	r0, #5
 8005230:	e7fb      	b.n	800522a <osDelay+0x10>

08005232 <osDelayUntil>:
 8005232:	b537      	push	{r0, r1, r2, r4, r5, lr}
 8005234:	4605      	mov	r5, r0
 8005236:	f3ef 8405 	mrs	r4, IPSR
 800523a:	b95c      	cbnz	r4, 8005254 <osDelayUntil+0x22>
 800523c:	f000 ff20 	bl	8006080 <xTaskGetTickCount>
 8005240:	1a29      	subs	r1, r5, r0
 8005242:	2900      	cmp	r1, #0
 8005244:	9001      	str	r0, [sp, #4]
 8005246:	dd08      	ble.n	800525a <osDelayUntil+0x28>
 8005248:	a801      	add	r0, sp, #4
 800524a:	f001 f833 	bl	80062b4 <vTaskDelayUntil>
 800524e:	4620      	mov	r0, r4
 8005250:	b003      	add	sp, #12
 8005252:	bd30      	pop	{r4, r5, pc}
 8005254:	f06f 0005 	mvn.w	r0, #5
 8005258:	e7fa      	b.n	8005250 <osDelayUntil+0x1e>
 800525a:	f06f 0003 	mvn.w	r0, #3
 800525e:	e7f7      	b.n	8005250 <osDelayUntil+0x1e>

08005260 <osMutexNew>:
 8005260:	b5f8      	push	{r3, r4, r5, r6, r7, lr}
 8005262:	4605      	mov	r5, r0
 8005264:	f3ef 8705 	mrs	r7, IPSR
 8005268:	b117      	cbz	r7, 8005270 <osMutexNew+0x10>
 800526a:	2400      	movs	r4, #0
 800526c:	4620      	mov	r0, r4
 800526e:	bdf8      	pop	{r3, r4, r5, r6, r7, pc}
 8005270:	b320      	cbz	r0, 80052bc <osMutexNew+0x5c>
 8005272:	6846      	ldr	r6, [r0, #4]
 8005274:	0733      	lsls	r3, r6, #28
 8005276:	d4f8      	bmi.n	800526a <osMutexNew+0xa>
 8005278:	e9d0 1302 	ldrd	r1, r3, [r0, #8]
 800527c:	f006 0601 	and.w	r6, r6, #1
 8005280:	b199      	cbz	r1, 80052aa <osMutexNew+0x4a>
 8005282:	2b4f      	cmp	r3, #79	@ 0x4f
 8005284:	d9f1      	bls.n	800526a <osMutexNew+0xa>
 8005286:	b1be      	cbz	r6, 80052b8 <osMutexNew+0x58>
 8005288:	2004      	movs	r0, #4
 800528a:	f000 fa82 	bl	8005792 <xQueueCreateMutexStatic>
 800528e:	4604      	mov	r4, r0
 8005290:	2800      	cmp	r0, #0
 8005292:	d0ea      	beq.n	800526a <osMutexNew+0xa>
 8005294:	4637      	mov	r7, r6
 8005296:	682d      	ldr	r5, [r5, #0]
 8005298:	4629      	mov	r1, r5
 800529a:	4620      	mov	r0, r4
 800529c:	f000 fca4 	bl	8005be8 <vQueueAddToRegistry>
 80052a0:	2f00      	cmp	r7, #0
 80052a2:	d0e3      	beq.n	800526c <osMutexNew+0xc>
 80052a4:	f044 0401 	orr.w	r4, r4, #1
 80052a8:	e7e0      	b.n	800526c <osMutexNew+0xc>
 80052aa:	2b00      	cmp	r3, #0
 80052ac:	d1dd      	bne.n	800526a <osMutexNew+0xa>
 80052ae:	b12e      	cbz	r6, 80052bc <osMutexNew+0x5c>
 80052b0:	2004      	movs	r0, #4
 80052b2:	f000 faa2 	bl	80057fa <xQueueCreateMutex>
 80052b6:	e7ea      	b.n	800528e <osMutexNew+0x2e>
 80052b8:	2001      	movs	r0, #1
 80052ba:	e7e6      	b.n	800528a <osMutexNew+0x2a>
 80052bc:	2001      	movs	r0, #1
 80052be:	f000 fa9c 	bl	80057fa <xQueueCreateMutex>
 80052c2:	4604      	mov	r4, r0
 80052c4:	2800      	cmp	r0, #0
 80052c6:	d0d0      	beq.n	800526a <osMutexNew+0xa>
 80052c8:	2d00      	cmp	r5, #0
 80052ca:	d0e5      	beq.n	8005298 <osMutexNew+0x38>
 80052cc:	2600      	movs	r6, #0
 80052ce:	e7e1      	b.n	8005294 <osMutexNew+0x34>

080052d0 <osMutexAcquire>:
 80052d0:	b538      	push	{r3, r4, r5, lr}
 80052d2:	4603      	mov	r3, r0
 80052d4:	460c      	mov	r4, r1
 80052d6:	f020 0001 	bic.w	r0, r0, #1
 80052da:	f003 0201 	and.w	r2, r3, #1
 80052de:	f3ef 8505 	mrs	r5, IPSR
 80052e2:	b995      	cbnz	r5, 800530a <osMutexAcquire+0x3a>
 80052e4:	2b01      	cmp	r3, #1
 80052e6:	d913      	bls.n	8005310 <osMutexAcquire+0x40>
 80052e8:	b162      	cbz	r2, 8005304 <osMutexAcquire+0x34>
 80052ea:	f000 fc5b 	bl	8005ba4 <xQueueTakeMutexRecursive>
 80052ee:	2801      	cmp	r0, #1
 80052f0:	d101      	bne.n	80052f6 <osMutexAcquire+0x26>
 80052f2:	2000      	movs	r0, #0
 80052f4:	bd38      	pop	{r3, r4, r5, pc}
 80052f6:	2c00      	cmp	r4, #0
 80052f8:	bf14      	ite	ne
 80052fa:	f06f 0001 	mvnne.w	r0, #1
 80052fe:	f06f 0002 	mvneq.w	r0, #2
 8005302:	e7f7      	b.n	80052f4 <osMutexAcquire+0x24>
 8005304:	f000 fb91 	bl	8005a2a <xQueueSemaphoreTake>
 8005308:	e7f1      	b.n	80052ee <osMutexAcquire+0x1e>
 800530a:	f06f 0005 	mvn.w	r0, #5
 800530e:	e7f1      	b.n	80052f4 <osMutexAcquire+0x24>
 8005310:	f06f 0003 	mvn.w	r0, #3
 8005314:	e7ee      	b.n	80052f4 <osMutexAcquire+0x24>

08005316 <osMutexRelease>:
 8005316:	4602      	mov	r2, r0
 8005318:	b508      	push	{r3, lr}
 800531a:	f020 0001 	bic.w	r0, r0, #1
 800531e:	f002 0301 	and.w	r3, r2, #1
 8005322:	f3ef 8105 	mrs	r1, IPSR
 8005326:	b979      	cbnz	r1, 8005348 <osMutexRelease+0x32>
 8005328:	2a01      	cmp	r2, #1
 800532a:	d910      	bls.n	800534e <osMutexRelease+0x38>
 800532c:	b13b      	cbz	r3, 800533e <osMutexRelease+0x28>
 800532e:	f000 fa45 	bl	80057bc <xQueueGiveMutexRecursive>
 8005332:	2801      	cmp	r0, #1
 8005334:	bf0c      	ite	eq
 8005336:	2000      	moveq	r0, #0
 8005338:	f06f 0002 	mvnne.w	r0, #2
 800533c:	bd08      	pop	{r3, pc}
 800533e:	461a      	mov	r2, r3
 8005340:	4619      	mov	r1, r3
 8005342:	f000 f974 	bl	800562e <xQueueGenericSend>
 8005346:	e7f4      	b.n	8005332 <osMutexRelease+0x1c>
 8005348:	f06f 0005 	mvn.w	r0, #5
 800534c:	e7f6      	b.n	800533c <osMutexRelease+0x26>
 800534e:	f06f 0003 	mvn.w	r0, #3
 8005352:	e7f3      	b.n	800533c <osMutexRelease+0x26>

08005354 <vApplicationGetIdleTaskMemory>:
 8005354:	4b03      	ldr	r3, [pc, #12]	@ (8005364 <vApplicationGetIdleTaskMemory+0x10>)
 8005356:	6003      	str	r3, [r0, #0]
 8005358:	4b03      	ldr	r3, [pc, #12]	@ (8005368 <vApplicationGetIdleTaskMemory+0x14>)
 800535a:	600b      	str	r3, [r1, #0]
 800535c:	2380      	movs	r3, #128	@ 0x80
 800535e:	6013      	str	r3, [r2, #0]
 8005360:	4770      	bx	lr
 8005362:	bf00      	nop
 8005364:	20000c44 	.word	0x20000c44
 8005368:	20000a44 	.word	0x20000a44

0800536c <vApplicationGetTimerTaskMemory>:
 800536c:	4b03      	ldr	r3, [pc, #12]	@ (800537c <vApplicationGetTimerTaskMemory+0x10>)
 800536e:	6003      	str	r3, [r0, #0]
 8005370:	4b03      	ldr	r3, [pc, #12]	@ (8005380 <vApplicationGetTimerTaskMemory+0x14>)
 8005372:	600b      	str	r3, [r1, #0]
 8005374:	f44f 7380 	mov.w	r3, #256	@ 0x100
 8005378:	6013      	str	r3, [r2, #0]
 800537a:	4770      	bx	lr
 800537c:	200009e8 	.word	0x200009e8
 8005380:	200005e8 	.word	0x200005e8

08005384 <vListInitialise>:
 8005384:	f04f 32ff 	mov.w	r2, #4294967295
 8005388:	f100 0308 	add.w	r3, r0, #8
 800538c:	e9c0 2302 	strd	r2, r3, [r0, #8]
 8005390:	6043      	str	r3, [r0, #4]
 8005392:	6103      	str	r3, [r0, #16]
 8005394:	2300      	movs	r3, #0
 8005396:	6003      	str	r3, [r0, #0]
 8005398:	4770      	bx	lr

0800539a <vListInitialiseItem>:
 800539a:	2300      	movs	r3, #0
 800539c:	6103      	str	r3, [r0, #16]
 800539e:	4770      	bx	lr

080053a0 <vListInsertEnd>:
 80053a0:	6843      	ldr	r3, [r0, #4]
 80053a2:	689a      	ldr	r2, [r3, #8]
 80053a4:	604b      	str	r3, [r1, #4]
 80053a6:	608a      	str	r2, [r1, #8]
 80053a8:	6051      	str	r1, [r2, #4]
 80053aa:	6099      	str	r1, [r3, #8]
 80053ac:	6803      	ldr	r3, [r0, #0]
 80053ae:	6108      	str	r0, [r1, #16]
 80053b0:	3301      	adds	r3, #1
 80053b2:	6003      	str	r3, [r0, #0]
 80053b4:	4770      	bx	lr

080053b6 <vListInsert>:
 80053b6:	b530      	push	{r4, r5, lr}
 80053b8:	680c      	ldr	r4, [r1, #0]
 80053ba:	1c63      	adds	r3, r4, #1
 80053bc:	d10a      	bne.n	80053d4 <vListInsert+0x1e>
 80053be:	6903      	ldr	r3, [r0, #16]
 80053c0:	685a      	ldr	r2, [r3, #4]
 80053c2:	604a      	str	r2, [r1, #4]
 80053c4:	6091      	str	r1, [r2, #8]
 80053c6:	608b      	str	r3, [r1, #8]
 80053c8:	6059      	str	r1, [r3, #4]
 80053ca:	6803      	ldr	r3, [r0, #0]
 80053cc:	6108      	str	r0, [r1, #16]
 80053ce:	3301      	adds	r3, #1
 80053d0:	6003      	str	r3, [r0, #0]
 80053d2:	bd30      	pop	{r4, r5, pc}
 80053d4:	f100 0208 	add.w	r2, r0, #8
 80053d8:	4613      	mov	r3, r2
 80053da:	6852      	ldr	r2, [r2, #4]
 80053dc:	6815      	ldr	r5, [r2, #0]
 80053de:	42a5      	cmp	r5, r4
 80053e0:	d9fa      	bls.n	80053d8 <vListInsert+0x22>
 80053e2:	e7ed      	b.n	80053c0 <vListInsert+0xa>

080053e4 <uxListRemove>:
 80053e4:	6903      	ldr	r3, [r0, #16]
 80053e6:	e9d0 1201 	ldrd	r1, r2, [r0, #4]
 80053ea:	608a      	str	r2, [r1, #8]
 80053ec:	6051      	str	r1, [r2, #4]
 80053ee:	6859      	ldr	r1, [r3, #4]
 80053f0:	4281      	cmp	r1, r0
 80053f2:	bf08      	it	eq
 80053f4:	605a      	streq	r2, [r3, #4]
 80053f6:	2200      	movs	r2, #0
 80053f8:	6102      	str	r2, [r0, #16]
 80053fa:	681a      	ldr	r2, [r3, #0]
 80053fc:	3a01      	subs	r2, #1
 80053fe:	601a      	str	r2, [r3, #0]
 8005400:	6818      	ldr	r0, [r3, #0]
 8005402:	4770      	bx	lr

08005404 <prvIsQueueEmpty>:
 8005404:	b510      	push	{r4, lr}
 8005406:	4604      	mov	r4, r0
 8005408:	f001 fbf4 	bl	8006bf4 <vPortEnterCritical>
 800540c:	6ba4      	ldr	r4, [r4, #56]	@ 0x38
 800540e:	f001 fc11 	bl	8006c34 <vPortExitCritical>
 8005412:	fab4 f084 	clz	r0, r4
 8005416:	0940      	lsrs	r0, r0, #5
 8005418:	bd10      	pop	{r4, pc}

0800541a <prvCopyDataToQueue>:
 800541a:	b570      	push	{r4, r5, r6, lr}
 800541c:	4616      	mov	r6, r2
 800541e:	6c02      	ldr	r2, [r0, #64]	@ 0x40
 8005420:	4604      	mov	r4, r0
 8005422:	6b85      	ldr	r5, [r0, #56]	@ 0x38
 8005424:	b942      	cbnz	r2, 8005438 <prvCopyDataToQueue+0x1e>
 8005426:	6806      	ldr	r6, [r0, #0]
 8005428:	b99e      	cbnz	r6, 8005452 <prvCopyDataToQueue+0x38>
 800542a:	6880      	ldr	r0, [r0, #8]
 800542c:	f001 f908 	bl	8006640 <xTaskPriorityDisinherit>
 8005430:	60a6      	str	r6, [r4, #8]
 8005432:	3501      	adds	r5, #1
 8005434:	63a5      	str	r5, [r4, #56]	@ 0x38
 8005436:	bd70      	pop	{r4, r5, r6, pc}
 8005438:	b96e      	cbnz	r6, 8005456 <prvCopyDataToQueue+0x3c>
 800543a:	6840      	ldr	r0, [r0, #4]
 800543c:	f001 fe08 	bl	8007050 <memcpy>
 8005440:	6863      	ldr	r3, [r4, #4]
 8005442:	6c22      	ldr	r2, [r4, #64]	@ 0x40
 8005444:	4413      	add	r3, r2
 8005446:	68a2      	ldr	r2, [r4, #8]
 8005448:	6063      	str	r3, [r4, #4]
 800544a:	4293      	cmp	r3, r2
 800544c:	bf24      	itt	cs
 800544e:	6823      	ldrcs	r3, [r4, #0]
 8005450:	6063      	strcs	r3, [r4, #4]
 8005452:	2000      	movs	r0, #0
 8005454:	e7ed      	b.n	8005432 <prvCopyDataToQueue+0x18>
 8005456:	68c0      	ldr	r0, [r0, #12]
 8005458:	f001 fdfa 	bl	8007050 <memcpy>
 800545c:	6c22      	ldr	r2, [r4, #64]	@ 0x40
 800545e:	68e3      	ldr	r3, [r4, #12]
 8005460:	4251      	negs	r1, r2
 8005462:	1a9b      	subs	r3, r3, r2
 8005464:	6822      	ldr	r2, [r4, #0]
 8005466:	60e3      	str	r3, [r4, #12]
 8005468:	4293      	cmp	r3, r2
 800546a:	bf3e      	ittt	cc
 800546c:	68a3      	ldrcc	r3, [r4, #8]
 800546e:	185b      	addcc	r3, r3, r1
 8005470:	60e3      	strcc	r3, [r4, #12]
 8005472:	2e02      	cmp	r6, #2
 8005474:	d1ed      	bne.n	8005452 <prvCopyDataToQueue+0x38>
 8005476:	b10d      	cbz	r5, 800547c <prvCopyDataToQueue+0x62>
 8005478:	3d01      	subs	r5, #1
 800547a:	e7ea      	b.n	8005452 <prvCopyDataToQueue+0x38>
 800547c:	4628      	mov	r0, r5
 800547e:	e7d8      	b.n	8005432 <prvCopyDataToQueue+0x18>

08005480 <prvCopyDataFromQueue>:
 8005480:	4603      	mov	r3, r0
 8005482:	6c1a      	ldr	r2, [r3, #64]	@ 0x40
 8005484:	4608      	mov	r0, r1
 8005486:	b410      	push	{r4}
 8005488:	b162      	cbz	r2, 80054a4 <prvCopyDataFromQueue+0x24>
 800548a:	68dc      	ldr	r4, [r3, #12]
 800548c:	6899      	ldr	r1, [r3, #8]
 800548e:	4414      	add	r4, r2
 8005490:	428c      	cmp	r4, r1
 8005492:	bf28      	it	cs
 8005494:	6819      	ldrcs	r1, [r3, #0]
 8005496:	60dc      	str	r4, [r3, #12]
 8005498:	bf28      	it	cs
 800549a:	60d9      	strcs	r1, [r3, #12]
 800549c:	68d9      	ldr	r1, [r3, #12]
 800549e:	bc10      	pop	{r4}
 80054a0:	f001 bdd6 	b.w	8007050 <memcpy>
 80054a4:	bc10      	pop	{r4}
 80054a6:	4770      	bx	lr

080054a8 <prvUnlockQueue>:
 80054a8:	b570      	push	{r4, r5, r6, lr}
 80054aa:	4604      	mov	r4, r0
 80054ac:	f001 fba2 	bl	8006bf4 <vPortEnterCritical>
 80054b0:	f894 5045 	ldrb.w	r5, [r4, #69]	@ 0x45
 80054b4:	f104 0624 	add.w	r6, r4, #36	@ 0x24
 80054b8:	b26d      	sxtb	r5, r5
 80054ba:	2d00      	cmp	r5, #0
 80054bc:	dd01      	ble.n	80054c2 <prvUnlockQueue+0x1a>
 80054be:	6a63      	ldr	r3, [r4, #36]	@ 0x24
 80054c0:	b9b3      	cbnz	r3, 80054f0 <prvUnlockQueue+0x48>
 80054c2:	23ff      	movs	r3, #255	@ 0xff
 80054c4:	f884 3045 	strb.w	r3, [r4, #69]	@ 0x45
 80054c8:	f001 fbb4 	bl	8006c34 <vPortExitCritical>
 80054cc:	f001 fb92 	bl	8006bf4 <vPortEnterCritical>
 80054d0:	f894 5044 	ldrb.w	r5, [r4, #68]	@ 0x44
 80054d4:	f104 0610 	add.w	r6, r4, #16
 80054d8:	b26d      	sxtb	r5, r5
 80054da:	2d00      	cmp	r5, #0
 80054dc:	dd01      	ble.n	80054e2 <prvUnlockQueue+0x3a>
 80054de:	6923      	ldr	r3, [r4, #16]
 80054e0:	b97b      	cbnz	r3, 8005502 <prvUnlockQueue+0x5a>
 80054e2:	23ff      	movs	r3, #255	@ 0xff
 80054e4:	f884 3044 	strb.w	r3, [r4, #68]	@ 0x44
 80054e8:	e8bd 4070 	ldmia.w	sp!, {r4, r5, r6, lr}
 80054ec:	f001 bba2 	b.w	8006c34 <vPortExitCritical>
 80054f0:	4630      	mov	r0, r6
 80054f2:	f000 ffc3 	bl	800647c <xTaskRemoveFromEventList>
 80054f6:	b108      	cbz	r0, 80054fc <prvUnlockQueue+0x54>
 80054f8:	f001 f848 	bl	800658c <vTaskMissedYield>
 80054fc:	3d01      	subs	r5, #1
 80054fe:	b26d      	sxtb	r5, r5
 8005500:	e7db      	b.n	80054ba <prvUnlockQueue+0x12>
 8005502:	4630      	mov	r0, r6
 8005504:	f000 ffba 	bl	800647c <xTaskRemoveFromEventList>
 8005508:	b108      	cbz	r0, 800550e <prvUnlockQueue+0x66>
 800550a:	f001 f83f 	bl	800658c <vTaskMissedYield>
 800550e:	3d01      	subs	r5, #1
 8005510:	b26d      	sxtb	r5, r5
 8005512:	e7e2      	b.n	80054da <prvUnlockQueue+0x32>

08005514 <xQueueGenericReset>:
 8005514:	b538      	push	{r3, r4, r5, lr}
 8005516:	460d      	mov	r5, r1
 8005518:	4604      	mov	r4, r0
 800551a:	b940      	cbnz	r0, 800552e <xQueueGenericReset+0x1a>
 800551c:	f04f 0350 	mov.w	r3, #80	@ 0x50
 8005520:	f383 8811 	msr	BASEPRI, r3
 8005524:	f3bf 8f6f 	isb	sy
 8005528:	f3bf 8f4f 	dsb	sy
 800552c:	e7fe      	b.n	800552c <xQueueGenericReset+0x18>
 800552e:	f001 fb61 	bl	8006bf4 <vPortEnterCritical>
 8005532:	e9d4 310f 	ldrd	r3, r1, [r4, #60]	@ 0x3c
 8005536:	434b      	muls	r3, r1
 8005538:	6822      	ldr	r2, [r4, #0]
 800553a:	18d0      	adds	r0, r2, r3
 800553c:	1a5b      	subs	r3, r3, r1
 800553e:	60a0      	str	r0, [r4, #8]
 8005540:	6062      	str	r2, [r4, #4]
 8005542:	2000      	movs	r0, #0
 8005544:	441a      	add	r2, r3
 8005546:	23ff      	movs	r3, #255	@ 0xff
 8005548:	63a0      	str	r0, [r4, #56]	@ 0x38
 800554a:	60e2      	str	r2, [r4, #12]
 800554c:	f884 3044 	strb.w	r3, [r4, #68]	@ 0x44
 8005550:	f884 3045 	strb.w	r3, [r4, #69]	@ 0x45
 8005554:	b9a5      	cbnz	r5, 8005580 <xQueueGenericReset+0x6c>
 8005556:	6923      	ldr	r3, [r4, #16]
 8005558:	b173      	cbz	r3, 8005578 <xQueueGenericReset+0x64>
 800555a:	f104 0010 	add.w	r0, r4, #16
 800555e:	f000 ff8d 	bl	800647c <xTaskRemoveFromEventList>
 8005562:	b148      	cbz	r0, 8005578 <xQueueGenericReset+0x64>
 8005564:	f04f 23e0 	mov.w	r3, #3758153728	@ 0xe000e000
 8005568:	f04f 5280 	mov.w	r2, #268435456	@ 0x10000000
 800556c:	f8c3 2d04 	str.w	r2, [r3, #3332]	@ 0xd04
 8005570:	f3bf 8f4f 	dsb	sy
 8005574:	f3bf 8f6f 	isb	sy
 8005578:	f001 fb5c 	bl	8006c34 <vPortExitCritical>
 800557c:	2001      	movs	r0, #1
 800557e:	bd38      	pop	{r3, r4, r5, pc}
 8005580:	f104 0010 	add.w	r0, r4, #16
 8005584:	f7ff fefe 	bl	8005384 <vListInitialise>
 8005588:	f104 0024 	add.w	r0, r4, #36	@ 0x24
 800558c:	f7ff fefa 	bl	8005384 <vListInitialise>
 8005590:	e7f2      	b.n	8005578 <xQueueGenericReset+0x64>

08005592 <xQueueGenericCreateStatic>:
 8005592:	b537      	push	{r0, r1, r2, r4, r5, lr}
 8005594:	460d      	mov	r5, r1
 8005596:	461c      	mov	r4, r3
 8005598:	b940      	cbnz	r0, 80055ac <xQueueGenericCreateStatic+0x1a>
 800559a:	f04f 0350 	mov.w	r3, #80	@ 0x50
 800559e:	f383 8811 	msr	BASEPRI, r3
 80055a2:	f3bf 8f6f 	isb	sy
 80055a6:	f3bf 8f4f 	dsb	sy
 80055aa:	e7fe      	b.n	80055aa <xQueueGenericCreateStatic+0x18>
 80055ac:	b943      	cbnz	r3, 80055c0 <xQueueGenericCreateStatic+0x2e>
 80055ae:	f04f 0350 	mov.w	r3, #80	@ 0x50
 80055b2:	f383 8811 	msr	BASEPRI, r3
 80055b6:	f3bf 8f6f 	isb	sy
 80055ba:	f3bf 8f4f 	dsb	sy
 80055be:	e7fe      	b.n	80055be <xQueueGenericCreateStatic+0x2c>
 80055c0:	b14a      	cbz	r2, 80055d6 <xQueueGenericCreateStatic+0x44>
 80055c2:	b991      	cbnz	r1, 80055ea <xQueueGenericCreateStatic+0x58>
 80055c4:	f04f 0350 	mov.w	r3, #80	@ 0x50
 80055c8:	f383 8811 	msr	BASEPRI, r3
 80055cc:	f3bf 8f6f 	isb	sy
 80055d0:	f3bf 8f4f 	dsb	sy
 80055d4:	e7fe      	b.n	80055d4 <xQueueGenericCreateStatic+0x42>
 80055d6:	b141      	cbz	r1, 80055ea <xQueueGenericCreateStatic+0x58>
 80055d8:	f04f 0350 	mov.w	r3, #80	@ 0x50
 80055dc:	f383 8811 	msr	BASEPRI, r3
 80055e0:	f3bf 8f6f 	isb	sy
 80055e4:	f3bf 8f4f 	dsb	sy
 80055e8:	e7fe      	b.n	80055e8 <xQueueGenericCreateStatic+0x56>
 80055ea:	2350      	movs	r3, #80	@ 0x50
 80055ec:	9301      	str	r3, [sp, #4]
 80055ee:	9b01      	ldr	r3, [sp, #4]
 80055f0:	2b50      	cmp	r3, #80	@ 0x50
 80055f2:	d008      	beq.n	8005606 <xQueueGenericCreateStatic+0x74>
 80055f4:	f04f 0350 	mov.w	r3, #80	@ 0x50
 80055f8:	f383 8811 	msr	BASEPRI, r3
 80055fc:	f3bf 8f6f 	isb	sy
 8005600:	f3bf 8f4f 	dsb	sy
 8005604:	e7fe      	b.n	8005604 <xQueueGenericCreateStatic+0x72>
 8005606:	2101      	movs	r1, #1
 8005608:	2d00      	cmp	r5, #0
 800560a:	bf08      	it	eq
 800560c:	4622      	moveq	r2, r4
 800560e:	e9c4 050f 	strd	r0, r5, [r4, #60]	@ 0x3c
 8005612:	f884 1046 	strb.w	r1, [r4, #70]	@ 0x46
 8005616:	4620      	mov	r0, r4
 8005618:	6022      	str	r2, [r4, #0]
 800561a:	9b01      	ldr	r3, [sp, #4]
 800561c:	f7ff ff7a 	bl	8005514 <xQueueGenericReset>
 8005620:	4620      	mov	r0, r4
 8005622:	f89d 3018 	ldrb.w	r3, [sp, #24]
 8005626:	f884 304c 	strb.w	r3, [r4, #76]	@ 0x4c
 800562a:	b003      	add	sp, #12
 800562c:	bd30      	pop	{r4, r5, pc}

0800562e <xQueueGenericSend>:
 800562e:	e92d 41ff 	stmdb	sp!, {r0, r1, r2, r3, r4, r5, r6, r7, r8, lr}
 8005632:	460f      	mov	r7, r1
 8005634:	461e      	mov	r6, r3
 8005636:	4604      	mov	r4, r0
 8005638:	9201      	str	r2, [sp, #4]
 800563a:	b940      	cbnz	r0, 800564e <xQueueGenericSend+0x20>
 800563c:	f04f 0350 	mov.w	r3, #80	@ 0x50
 8005640:	f383 8811 	msr	BASEPRI, r3
 8005644:	f3bf 8f6f 	isb	sy
 8005648:	f3bf 8f4f 	dsb	sy
 800564c:	e7fe      	b.n	800564c <xQueueGenericSend+0x1e>
 800564e:	b951      	cbnz	r1, 8005666 <xQueueGenericSend+0x38>
 8005650:	6c03      	ldr	r3, [r0, #64]	@ 0x40
 8005652:	b143      	cbz	r3, 8005666 <xQueueGenericSend+0x38>
 8005654:	f04f 0350 	mov.w	r3, #80	@ 0x50
 8005658:	f383 8811 	msr	BASEPRI, r3
 800565c:	f3bf 8f6f 	isb	sy
 8005660:	f3bf 8f4f 	dsb	sy
 8005664:	e7fe      	b.n	8005664 <xQueueGenericSend+0x36>
 8005666:	2e02      	cmp	r6, #2
 8005668:	d10b      	bne.n	8005682 <xQueueGenericSend+0x54>
 800566a:	6be3      	ldr	r3, [r4, #60]	@ 0x3c
 800566c:	2b01      	cmp	r3, #1
 800566e:	d008      	beq.n	8005682 <xQueueGenericSend+0x54>
 8005670:	f04f 0350 	mov.w	r3, #80	@ 0x50
 8005674:	f383 8811 	msr	BASEPRI, r3
 8005678:	f3bf 8f6f 	isb	sy
 800567c:	f3bf 8f4f 	dsb	sy
 8005680:	e7fe      	b.n	8005680 <xQueueGenericSend+0x52>
 8005682:	f000 ff8f 	bl	80065a4 <xTaskGetSchedulerState>
 8005686:	4605      	mov	r5, r0
 8005688:	b320      	cbz	r0, 80056d4 <xQueueGenericSend+0xa6>
 800568a:	2500      	movs	r5, #0
 800568c:	f04f 0800 	mov.w	r8, #0
 8005690:	f001 fab0 	bl	8006bf4 <vPortEnterCritical>
 8005694:	6ba2      	ldr	r2, [r4, #56]	@ 0x38
 8005696:	6be3      	ldr	r3, [r4, #60]	@ 0x3c
 8005698:	429a      	cmp	r2, r3
 800569a:	d227      	bcs.n	80056ec <xQueueGenericSend+0xbe>
 800569c:	4632      	mov	r2, r6
 800569e:	4639      	mov	r1, r7
 80056a0:	4620      	mov	r0, r4
 80056a2:	f7ff feba 	bl	800541a <prvCopyDataToQueue>
 80056a6:	6a63      	ldr	r3, [r4, #36]	@ 0x24
 80056a8:	b11b      	cbz	r3, 80056b2 <xQueueGenericSend+0x84>
 80056aa:	f104 0024 	add.w	r0, r4, #36	@ 0x24
 80056ae:	f000 fee5 	bl	800647c <xTaskRemoveFromEventList>
 80056b2:	b148      	cbz	r0, 80056c8 <xQueueGenericSend+0x9a>
 80056b4:	f04f 23e0 	mov.w	r3, #3758153728	@ 0xe000e000
 80056b8:	f04f 5280 	mov.w	r2, #268435456	@ 0x10000000
 80056bc:	f8c3 2d04 	str.w	r2, [r3, #3332]	@ 0xd04
 80056c0:	f3bf 8f4f 	dsb	sy
 80056c4:	f3bf 8f6f 	isb	sy
 80056c8:	f001 fab4 	bl	8006c34 <vPortExitCritical>
 80056cc:	2001      	movs	r0, #1
 80056ce:	b004      	add	sp, #16
 80056d0:	e8bd 81f0 	ldmia.w	sp!, {r4, r5, r6, r7, r8, pc}
 80056d4:	9b01      	ldr	r3, [sp, #4]
 80056d6:	2b00      	cmp	r3, #0
 80056d8:	d0d8      	beq.n	800568c <xQueueGenericSend+0x5e>
 80056da:	f04f 0350 	mov.w	r3, #80	@ 0x50
 80056de:	f383 8811 	msr	BASEPRI, r3
 80056e2:	f3bf 8f6f 	isb	sy
 80056e6:	f3bf 8f4f 	dsb	sy
 80056ea:	e7fe      	b.n	80056ea <xQueueGenericSend+0xbc>
 80056ec:	2e02      	cmp	r6, #2
 80056ee:	d0d5      	beq.n	800569c <xQueueGenericSend+0x6e>
 80056f0:	9b01      	ldr	r3, [sp, #4]
 80056f2:	b91b      	cbnz	r3, 80056fc <xQueueGenericSend+0xce>
 80056f4:	f001 fa9e 	bl	8006c34 <vPortExitCritical>
 80056f8:	2000      	movs	r0, #0
 80056fa:	e7e8      	b.n	80056ce <xQueueGenericSend+0xa0>
 80056fc:	b915      	cbnz	r5, 8005704 <xQueueGenericSend+0xd6>
 80056fe:	a802      	add	r0, sp, #8
 8005700:	f000 fefc 	bl	80064fc <vTaskInternalSetTimeOutState>
 8005704:	f001 fa96 	bl	8006c34 <vPortExitCritical>
 8005708:	f000 fcb2 	bl	8006070 <vTaskSuspendAll>
 800570c:	f001 fa72 	bl	8006bf4 <vPortEnterCritical>
 8005710:	f894 3044 	ldrb.w	r3, [r4, #68]	@ 0x44
 8005714:	2bff      	cmp	r3, #255	@ 0xff
 8005716:	bf08      	it	eq
 8005718:	f884 8044 	strbeq.w	r8, [r4, #68]	@ 0x44
 800571c:	f894 3045 	ldrb.w	r3, [r4, #69]	@ 0x45
 8005720:	2bff      	cmp	r3, #255	@ 0xff
 8005722:	bf08      	it	eq
 8005724:	f884 8045 	strbeq.w	r8, [r4, #69]	@ 0x45
 8005728:	f001 fa84 	bl	8006c34 <vPortExitCritical>
 800572c:	a901      	add	r1, sp, #4
 800572e:	a802      	add	r0, sp, #8
 8005730:	f000 fef0 	bl	8006514 <xTaskCheckForTimeOut>
 8005734:	bb38      	cbnz	r0, 8005786 <xQueueGenericSend+0x158>
 8005736:	f001 fa5d 	bl	8006bf4 <vPortEnterCritical>
 800573a:	6ba2      	ldr	r2, [r4, #56]	@ 0x38
 800573c:	6be3      	ldr	r3, [r4, #60]	@ 0x3c
 800573e:	429a      	cmp	r2, r3
 8005740:	d10e      	bne.n	8005760 <xQueueGenericSend+0x132>
 8005742:	f001 fa77 	bl	8006c34 <vPortExitCritical>
 8005746:	9901      	ldr	r1, [sp, #4]
 8005748:	f104 0010 	add.w	r0, r4, #16
 800574c:	f000 fe5c 	bl	8006408 <vTaskPlaceOnEventList>
 8005750:	4620      	mov	r0, r4
 8005752:	f7ff fea9 	bl	80054a8 <prvUnlockQueue>
 8005756:	f000 fd39 	bl	80061cc <xTaskResumeAll>
 800575a:	b148      	cbz	r0, 8005770 <xQueueGenericSend+0x142>
 800575c:	2501      	movs	r5, #1
 800575e:	e797      	b.n	8005690 <xQueueGenericSend+0x62>
 8005760:	f001 fa68 	bl	8006c34 <vPortExitCritical>
 8005764:	4620      	mov	r0, r4
 8005766:	f7ff fe9f 	bl	80054a8 <prvUnlockQueue>
 800576a:	f000 fd2f 	bl	80061cc <xTaskResumeAll>
 800576e:	e7f5      	b.n	800575c <xQueueGenericSend+0x12e>
 8005770:	f04f 23e0 	mov.w	r3, #3758153728	@ 0xe000e000
 8005774:	f04f 5280 	mov.w	r2, #268435456	@ 0x10000000
 8005778:	f8c3 2d04 	str.w	r2, [r3, #3332]	@ 0xd04
 800577c:	f3bf 8f4f 	dsb	sy
 8005780:	f3bf 8f6f 	isb	sy
 8005784:	e7ea      	b.n	800575c <xQueueGenericSend+0x12e>
 8005786:	4620      	mov	r0, r4
 8005788:	f7ff fe8e 	bl	80054a8 <prvUnlockQueue>
 800578c:	f000 fd1e 	bl	80061cc <xTaskResumeAll>
 8005790:	e7b2      	b.n	80056f8 <xQueueGenericSend+0xca>

08005792 <xQueueCreateMutexStatic>:
 8005792:	2200      	movs	r2, #0
 8005794:	b513      	push	{r0, r1, r4, lr}
 8005796:	460b      	mov	r3, r1
 8005798:	9000      	str	r0, [sp, #0]
 800579a:	4611      	mov	r1, r2
 800579c:	2001      	movs	r0, #1
 800579e:	f7ff fef8 	bl	8005592 <xQueueGenericCreateStatic>
 80057a2:	4604      	mov	r4, r0
 80057a4:	b138      	cbz	r0, 80057b6 <xQueueCreateMutexStatic+0x24>
 80057a6:	2300      	movs	r3, #0
 80057a8:	461a      	mov	r2, r3
 80057aa:	4619      	mov	r1, r3
 80057ac:	6083      	str	r3, [r0, #8]
 80057ae:	6003      	str	r3, [r0, #0]
 80057b0:	60c3      	str	r3, [r0, #12]
 80057b2:	f7ff ff3c 	bl	800562e <xQueueGenericSend>
 80057b6:	4620      	mov	r0, r4
 80057b8:	b002      	add	sp, #8
 80057ba:	bd10      	pop	{r4, pc}

080057bc <xQueueGiveMutexRecursive>:
 80057bc:	b538      	push	{r3, r4, r5, lr}
 80057be:	4604      	mov	r4, r0
 80057c0:	b940      	cbnz	r0, 80057d4 <xQueueGiveMutexRecursive+0x18>
 80057c2:	f04f 0350 	mov.w	r3, #80	@ 0x50
 80057c6:	f383 8811 	msr	BASEPRI, r3
 80057ca:	f3bf 8f6f 	isb	sy
 80057ce:	f3bf 8f4f 	dsb	sy
 80057d2:	e7fe      	b.n	80057d2 <xQueueGiveMutexRecursive+0x16>
 80057d4:	6885      	ldr	r5, [r0, #8]
 80057d6:	f000 fedf 	bl	8006598 <xTaskGetCurrentTaskHandle>
 80057da:	4285      	cmp	r5, r0
 80057dc:	d10b      	bne.n	80057f6 <xQueueGiveMutexRecursive+0x3a>
 80057de:	68e3      	ldr	r3, [r4, #12]
 80057e0:	3b01      	subs	r3, #1
 80057e2:	60e3      	str	r3, [r4, #12]
 80057e4:	b10b      	cbz	r3, 80057ea <xQueueGiveMutexRecursive+0x2e>
 80057e6:	2001      	movs	r0, #1
 80057e8:	bd38      	pop	{r3, r4, r5, pc}
 80057ea:	461a      	mov	r2, r3
 80057ec:	4619      	mov	r1, r3
 80057ee:	4620      	mov	r0, r4
 80057f0:	f7ff ff1d 	bl	800562e <xQueueGenericSend>
 80057f4:	e7f7      	b.n	80057e6 <xQueueGiveMutexRecursive+0x2a>
 80057f6:	2000      	movs	r0, #0
 80057f8:	e7f6      	b.n	80057e8 <xQueueGiveMutexRecursive+0x2c>

080057fa <xQueueCreateMutex>:
 80057fa:	b570      	push	{r4, r5, r6, lr}
 80057fc:	4606      	mov	r6, r0
 80057fe:	2050      	movs	r0, #80	@ 0x50
 8005800:	f001 fb24 	bl	8006e4c <pvPortMalloc>
 8005804:	4604      	mov	r4, r0
 8005806:	b198      	cbz	r0, 8005830 <xQueueCreateMutex+0x36>
 8005808:	2500      	movs	r5, #0
 800580a:	2101      	movs	r1, #1
 800580c:	f880 5046 	strb.w	r5, [r0, #70]	@ 0x46
 8005810:	e9c0 150f 	strd	r1, r5, [r0, #60]	@ 0x3c
 8005814:	6000      	str	r0, [r0, #0]
 8005816:	f7ff fe7d 	bl	8005514 <xQueueGenericReset>
 800581a:	462b      	mov	r3, r5
 800581c:	462a      	mov	r2, r5
 800581e:	4629      	mov	r1, r5
 8005820:	4620      	mov	r0, r4
 8005822:	f884 604c 	strb.w	r6, [r4, #76]	@ 0x4c
 8005826:	60a5      	str	r5, [r4, #8]
 8005828:	6025      	str	r5, [r4, #0]
 800582a:	60e5      	str	r5, [r4, #12]
 800582c:	f7ff feff 	bl	800562e <xQueueGenericSend>
 8005830:	4620      	mov	r0, r4
 8005832:	bd70      	pop	{r4, r5, r6, pc}

08005834 <xQueueGenericSendFromISR>:
 8005834:	e92d 43f8 	stmdb	sp!, {r3, r4, r5, r6, r7, r8, r9, lr}
 8005838:	4689      	mov	r9, r1
 800583a:	4617      	mov	r7, r2
 800583c:	461e      	mov	r6, r3
 800583e:	4604      	mov	r4, r0
 8005840:	b940      	cbnz	r0, 8005854 <xQueueGenericSendFromISR+0x20>
 8005842:	f04f 0350 	mov.w	r3, #80	@ 0x50
 8005846:	f383 8811 	msr	BASEPRI, r3
 800584a:	f3bf 8f6f 	isb	sy
 800584e:	f3bf 8f4f 	dsb	sy
 8005852:	e7fe      	b.n	8005852 <xQueueGenericSendFromISR+0x1e>
 8005854:	b951      	cbnz	r1, 800586c <xQueueGenericSendFromISR+0x38>
 8005856:	6c03      	ldr	r3, [r0, #64]	@ 0x40
 8005858:	b143      	cbz	r3, 800586c <xQueueGenericSendFromISR+0x38>
 800585a:	f04f 0350 	mov.w	r3, #80	@ 0x50
 800585e:	f383 8811 	msr	BASEPRI, r3
 8005862:	f3bf 8f6f 	isb	sy
 8005866:	f3bf 8f4f 	dsb	sy
 800586a:	e7fe      	b.n	800586a <xQueueGenericSendFromISR+0x36>
 800586c:	2e02      	cmp	r6, #2
 800586e:	d10b      	bne.n	8005888 <xQueueGenericSendFromISR+0x54>
 8005870:	6be3      	ldr	r3, [r4, #60]	@ 0x3c
 8005872:	2b01      	cmp	r3, #1
 8005874:	d008      	beq.n	8005888 <xQueueGenericSendFromISR+0x54>
 8005876:	f04f 0350 	mov.w	r3, #80	@ 0x50
 800587a:	f383 8811 	msr	BASEPRI, r3
 800587e:	f3bf 8f6f 	isb	sy
 8005882:	f3bf 8f4f 	dsb	sy
 8005886:	e7fe      	b.n	8005886 <xQueueGenericSendFromISR+0x52>
 8005888:	f001 fa8c 	bl	8006da4 <vPortValidateInterruptPriority>
 800588c:	f3ef 8811 	mrs	r8, BASEPRI
 8005890:	f04f 0350 	mov.w	r3, #80	@ 0x50
 8005894:	f383 8811 	msr	BASEPRI, r3
 8005898:	f3bf 8f6f 	isb	sy
 800589c:	f3bf 8f4f 	dsb	sy
 80058a0:	6ba2      	ldr	r2, [r4, #56]	@ 0x38
 80058a2:	6be3      	ldr	r3, [r4, #60]	@ 0x3c
 80058a4:	429a      	cmp	r2, r3
 80058a6:	d301      	bcc.n	80058ac <xQueueGenericSendFromISR+0x78>
 80058a8:	2e02      	cmp	r6, #2
 80058aa:	d11e      	bne.n	80058ea <xQueueGenericSendFromISR+0xb6>
 80058ac:	f894 5045 	ldrb.w	r5, [r4, #69]	@ 0x45
 80058b0:	4632      	mov	r2, r6
 80058b2:	4649      	mov	r1, r9
 80058b4:	4620      	mov	r0, r4
 80058b6:	b26d      	sxtb	r5, r5
 80058b8:	6ba3      	ldr	r3, [r4, #56]	@ 0x38
 80058ba:	f7ff fdae 	bl	800541a <prvCopyDataToQueue>
 80058be:	1c6b      	adds	r3, r5, #1
 80058c0:	d10e      	bne.n	80058e0 <xQueueGenericSendFromISR+0xac>
 80058c2:	6a63      	ldr	r3, [r4, #36]	@ 0x24
 80058c4:	b13b      	cbz	r3, 80058d6 <xQueueGenericSendFromISR+0xa2>
 80058c6:	f104 0024 	add.w	r0, r4, #36	@ 0x24
 80058ca:	f000 fdd7 	bl	800647c <xTaskRemoveFromEventList>
 80058ce:	b110      	cbz	r0, 80058d6 <xQueueGenericSendFromISR+0xa2>
 80058d0:	b10f      	cbz	r7, 80058d6 <xQueueGenericSendFromISR+0xa2>
 80058d2:	2301      	movs	r3, #1
 80058d4:	603b      	str	r3, [r7, #0]
 80058d6:	2001      	movs	r0, #1
 80058d8:	f388 8811 	msr	BASEPRI, r8
 80058dc:	e8bd 83f8 	ldmia.w	sp!, {r3, r4, r5, r6, r7, r8, r9, pc}
 80058e0:	3501      	adds	r5, #1
 80058e2:	b26d      	sxtb	r5, r5
 80058e4:	f884 5045 	strb.w	r5, [r4, #69]	@ 0x45
 80058e8:	e7f5      	b.n	80058d6 <xQueueGenericSendFromISR+0xa2>
 80058ea:	2000      	movs	r0, #0
 80058ec:	e7f4      	b.n	80058d8 <xQueueGenericSendFromISR+0xa4>

080058ee <xQueueReceive>:
 80058ee:	e92d 41ff 	stmdb	sp!, {r0, r1, r2, r3, r4, r5, r6, r7, r8, lr}
 80058f2:	460e      	mov	r6, r1
 80058f4:	4604      	mov	r4, r0
 80058f6:	9201      	str	r2, [sp, #4]
 80058f8:	b940      	cbnz	r0, 800590c <xQueueReceive+0x1e>
 80058fa:	f04f 0350 	mov.w	r3, #80	@ 0x50
 80058fe:	f383 8811 	msr	BASEPRI, r3
 8005902:	f3bf 8f6f 	isb	sy
 8005906:	f3bf 8f4f 	dsb	sy
 800590a:	e7fe      	b.n	800590a <xQueueReceive+0x1c>
 800590c:	b951      	cbnz	r1, 8005924 <xQueueReceive+0x36>
 800590e:	6c03      	ldr	r3, [r0, #64]	@ 0x40
 8005910:	b143      	cbz	r3, 8005924 <xQueueReceive+0x36>
 8005912:	f04f 0350 	mov.w	r3, #80	@ 0x50
 8005916:	f383 8811 	msr	BASEPRI, r3
 800591a:	f3bf 8f6f 	isb	sy
 800591e:	f3bf 8f4f 	dsb	sy
 8005922:	e7fe      	b.n	8005922 <xQueueReceive+0x34>
 8005924:	f000 fe3e 	bl	80065a4 <xTaskGetSchedulerState>
 8005928:	4605      	mov	r5, r0
 800592a:	b318      	cbz	r0, 8005974 <xQueueReceive+0x86>
 800592c:	2500      	movs	r5, #0
 800592e:	f04f 0800 	mov.w	r8, #0
 8005932:	f001 f95f 	bl	8006bf4 <vPortEnterCritical>
 8005936:	6ba7      	ldr	r7, [r4, #56]	@ 0x38
 8005938:	b347      	cbz	r7, 800598c <xQueueReceive+0x9e>
 800593a:	4631      	mov	r1, r6
 800593c:	4620      	mov	r0, r4
 800593e:	3f01      	subs	r7, #1
 8005940:	f7ff fd9e 	bl	8005480 <prvCopyDataFromQueue>
 8005944:	63a7      	str	r7, [r4, #56]	@ 0x38
 8005946:	6923      	ldr	r3, [r4, #16]
 8005948:	b173      	cbz	r3, 8005968 <xQueueReceive+0x7a>
 800594a:	f104 0010 	add.w	r0, r4, #16
 800594e:	f000 fd95 	bl	800647c <xTaskRemoveFromEventList>
 8005952:	b148      	cbz	r0, 8005968 <xQueueReceive+0x7a>
 8005954:	f04f 23e0 	mov.w	r3, #3758153728	@ 0xe000e000
 8005958:	f04f 5280 	mov.w	r2, #268435456	@ 0x10000000
 800595c:	f8c3 2d04 	str.w	r2, [r3, #3332]	@ 0xd04
 8005960:	f3bf 8f4f 	dsb	sy
 8005964:	f3bf 8f6f 	isb	sy
 8005968:	f001 f964 	bl	8006c34 <vPortExitCritical>
 800596c:	2001      	movs	r0, #1
 800596e:	b004      	add	sp, #16
 8005970:	e8bd 81f0 	ldmia.w	sp!, {r4, r5, r6, r7, r8, pc}
 8005974:	9b01      	ldr	r3, [sp, #4]
 8005976:	2b00      	cmp	r3, #0
 8005978:	d0d9      	beq.n	800592e <xQueueReceive+0x40>
 800597a:	f04f 0350 	mov.w	r3, #80	@ 0x50
 800597e:	f383 8811 	msr	BASEPRI, r3
 8005982:	f3bf 8f6f 	isb	sy
 8005986:	f3bf 8f4f 	dsb	sy
 800598a:	e7fe      	b.n	800598a <xQueueReceive+0x9c>
 800598c:	9b01      	ldr	r3, [sp, #4]
 800598e:	b91b      	cbnz	r3, 8005998 <xQueueReceive+0xaa>
 8005990:	f001 f950 	bl	8006c34 <vPortExitCritical>
 8005994:	2000      	movs	r0, #0
 8005996:	e7ea      	b.n	800596e <xQueueReceive+0x80>
 8005998:	b915      	cbnz	r5, 80059a0 <xQueueReceive+0xb2>
 800599a:	a802      	add	r0, sp, #8
 800599c:	f000 fdae 	bl	80064fc <vTaskInternalSetTimeOutState>
 80059a0:	f001 f948 	bl	8006c34 <vPortExitCritical>
 80059a4:	f000 fb64 	bl	8006070 <vTaskSuspendAll>
 80059a8:	f001 f924 	bl	8006bf4 <vPortEnterCritical>
 80059ac:	f894 3044 	ldrb.w	r3, [r4, #68]	@ 0x44
 80059b0:	2bff      	cmp	r3, #255	@ 0xff
 80059b2:	bf08      	it	eq
 80059b4:	f884 8044 	strbeq.w	r8, [r4, #68]	@ 0x44
 80059b8:	f894 3045 	ldrb.w	r3, [r4, #69]	@ 0x45
 80059bc:	2bff      	cmp	r3, #255	@ 0xff
 80059be:	bf08      	it	eq
 80059c0:	f884 8045 	strbeq.w	r8, [r4, #69]	@ 0x45
 80059c4:	f001 f936 	bl	8006c34 <vPortExitCritical>
 80059c8:	a901      	add	r1, sp, #4
 80059ca:	a802      	add	r0, sp, #8
 80059cc:	f000 fda2 	bl	8006514 <xTaskCheckForTimeOut>
 80059d0:	bb00      	cbnz	r0, 8005a14 <xQueueReceive+0x126>
 80059d2:	4620      	mov	r0, r4
 80059d4:	f7ff fd16 	bl	8005404 <prvIsQueueEmpty>
 80059d8:	b1b0      	cbz	r0, 8005a08 <xQueueReceive+0x11a>
 80059da:	9901      	ldr	r1, [sp, #4]
 80059dc:	f104 0024 	add.w	r0, r4, #36	@ 0x24
 80059e0:	f000 fd12 	bl	8006408 <vTaskPlaceOnEventList>
 80059e4:	4620      	mov	r0, r4
 80059e6:	f7ff fd5f 	bl	80054a8 <prvUnlockQueue>
 80059ea:	f000 fbef 	bl	80061cc <xTaskResumeAll>
 80059ee:	b948      	cbnz	r0, 8005a04 <xQueueReceive+0x116>
 80059f0:	f04f 23e0 	mov.w	r3, #3758153728	@ 0xe000e000
 80059f4:	f04f 5280 	mov.w	r2, #268435456	@ 0x10000000
 80059f8:	f8c3 2d04 	str.w	r2, [r3, #3332]	@ 0xd04
 80059fc:	f3bf 8f4f 	dsb	sy
 8005a00:	f3bf 8f6f 	isb	sy
 8005a04:	2501      	movs	r5, #1
 8005a06:	e794      	b.n	8005932 <xQueueReceive+0x44>
 8005a08:	4620      	mov	r0, r4
 8005a0a:	f7ff fd4d 	bl	80054a8 <prvUnlockQueue>
 8005a0e:	f000 fbdd 	bl	80061cc <xTaskResumeAll>
 8005a12:	e7f7      	b.n	8005a04 <xQueueReceive+0x116>
 8005a14:	4620      	mov	r0, r4
 8005a16:	f7ff fd47 	bl	80054a8 <prvUnlockQueue>
 8005a1a:	f000 fbd7 	bl	80061cc <xTaskResumeAll>
 8005a1e:	4620      	mov	r0, r4
 8005a20:	f7ff fcf0 	bl	8005404 <prvIsQueueEmpty>
 8005a24:	2800      	cmp	r0, #0
 8005a26:	d0ed      	beq.n	8005a04 <xQueueReceive+0x116>
 8005a28:	e7b4      	b.n	8005994 <xQueueReceive+0xa6>

08005a2a <xQueueSemaphoreTake>:
 8005a2a:	b5f0      	push	{r4, r5, r6, r7, lr}
 8005a2c:	b085      	sub	sp, #20
 8005a2e:	4604      	mov	r4, r0
 8005a30:	9101      	str	r1, [sp, #4]
 8005a32:	b940      	cbnz	r0, 8005a46 <xQueueSemaphoreTake+0x1c>
 8005a34:	f04f 0350 	mov.w	r3, #80	@ 0x50
 8005a38:	f383 8811 	msr	BASEPRI, r3
 8005a3c:	f3bf 8f6f 	isb	sy
 8005a40:	f3bf 8f4f 	dsb	sy
 8005a44:	e7fe      	b.n	8005a44 <xQueueSemaphoreTake+0x1a>
 8005a46:	6c05      	ldr	r5, [r0, #64]	@ 0x40
 8005a48:	b145      	cbz	r5, 8005a5c <xQueueSemaphoreTake+0x32>
 8005a4a:	f04f 0350 	mov.w	r3, #80	@ 0x50
 8005a4e:	f383 8811 	msr	BASEPRI, r3
 8005a52:	f3bf 8f6f 	isb	sy
 8005a56:	f3bf 8f4f 	dsb	sy
 8005a5a:	e7fe      	b.n	8005a5a <xQueueSemaphoreTake+0x30>
 8005a5c:	f000 fda2 	bl	80065a4 <xTaskGetSchedulerState>
 8005a60:	4606      	mov	r6, r0
 8005a62:	b320      	cbz	r0, 8005aae <xQueueSemaphoreTake+0x84>
 8005a64:	462e      	mov	r6, r5
 8005a66:	2700      	movs	r7, #0
 8005a68:	f001 f8c4 	bl	8006bf4 <vPortEnterCritical>
 8005a6c:	6ba3      	ldr	r3, [r4, #56]	@ 0x38
 8005a6e:	b353      	cbz	r3, 8005ac6 <xQueueSemaphoreTake+0x9c>
 8005a70:	3b01      	subs	r3, #1
 8005a72:	63a3      	str	r3, [r4, #56]	@ 0x38
 8005a74:	6823      	ldr	r3, [r4, #0]
 8005a76:	b913      	cbnz	r3, 8005a7e <xQueueSemaphoreTake+0x54>
 8005a78:	f000 fe72 	bl	8006760 <pvTaskIncrementMutexHeldCount>
 8005a7c:	60a0      	str	r0, [r4, #8]
 8005a7e:	6923      	ldr	r3, [r4, #16]
 8005a80:	b173      	cbz	r3, 8005aa0 <xQueueSemaphoreTake+0x76>
 8005a82:	f104 0010 	add.w	r0, r4, #16
 8005a86:	f000 fcf9 	bl	800647c <xTaskRemoveFromEventList>
 8005a8a:	b148      	cbz	r0, 8005aa0 <xQueueSemaphoreTake+0x76>
 8005a8c:	f04f 23e0 	mov.w	r3, #3758153728	@ 0xe000e000
 8005a90:	f04f 5280 	mov.w	r2, #268435456	@ 0x10000000
 8005a94:	f8c3 2d04 	str.w	r2, [r3, #3332]	@ 0xd04
 8005a98:	f3bf 8f4f 	dsb	sy
 8005a9c:	f3bf 8f6f 	isb	sy
 8005aa0:	f001 f8c8 	bl	8006c34 <vPortExitCritical>
 8005aa4:	2001      	movs	r0, #1
 8005aa6:	b005      	add	sp, #20
 8005aa8:	bdf0      	pop	{r4, r5, r6, r7, pc}
 8005aaa:	4635      	mov	r5, r6
 8005aac:	e7db      	b.n	8005a66 <xQueueSemaphoreTake+0x3c>
 8005aae:	9b01      	ldr	r3, [sp, #4]
 8005ab0:	2b00      	cmp	r3, #0
 8005ab2:	d0fa      	beq.n	8005aaa <xQueueSemaphoreTake+0x80>
 8005ab4:	f04f 0350 	mov.w	r3, #80	@ 0x50
 8005ab8:	f383 8811 	msr	BASEPRI, r3
 8005abc:	f3bf 8f6f 	isb	sy
 8005ac0:	f3bf 8f4f 	dsb	sy
 8005ac4:	e7fe      	b.n	8005ac4 <xQueueSemaphoreTake+0x9a>
 8005ac6:	9b01      	ldr	r3, [sp, #4]
 8005ac8:	b953      	cbnz	r3, 8005ae0 <xQueueSemaphoreTake+0xb6>
 8005aca:	2d00      	cmp	r5, #0
 8005acc:	d066      	beq.n	8005b9c <xQueueSemaphoreTake+0x172>
 8005ace:	f04f 0350 	mov.w	r3, #80	@ 0x50
 8005ad2:	f383 8811 	msr	BASEPRI, r3
 8005ad6:	f3bf 8f6f 	isb	sy
 8005ada:	f3bf 8f4f 	dsb	sy
 8005ade:	e7fe      	b.n	8005ade <xQueueSemaphoreTake+0xb4>
 8005ae0:	b916      	cbnz	r6, 8005ae8 <xQueueSemaphoreTake+0xbe>
 8005ae2:	a802      	add	r0, sp, #8
 8005ae4:	f000 fd0a 	bl	80064fc <vTaskInternalSetTimeOutState>
 8005ae8:	f001 f8a4 	bl	8006c34 <vPortExitCritical>
 8005aec:	f000 fac0 	bl	8006070 <vTaskSuspendAll>
 8005af0:	f001 f880 	bl	8006bf4 <vPortEnterCritical>
 8005af4:	f894 3044 	ldrb.w	r3, [r4, #68]	@ 0x44
 8005af8:	2bff      	cmp	r3, #255	@ 0xff
 8005afa:	bf08      	it	eq
 8005afc:	f884 7044 	strbeq.w	r7, [r4, #68]	@ 0x44
 8005b00:	f894 3045 	ldrb.w	r3, [r4, #69]	@ 0x45
 8005b04:	2bff      	cmp	r3, #255	@ 0xff
 8005b06:	bf08      	it	eq
 8005b08:	f884 7045 	strbeq.w	r7, [r4, #69]	@ 0x45
 8005b0c:	f001 f892 	bl	8006c34 <vPortExitCritical>
 8005b10:	a901      	add	r1, sp, #4
 8005b12:	a802      	add	r0, sp, #8
 8005b14:	f000 fcfe 	bl	8006514 <xTaskCheckForTimeOut>
 8005b18:	bb50      	cbnz	r0, 8005b70 <xQueueSemaphoreTake+0x146>
 8005b1a:	4620      	mov	r0, r4
 8005b1c:	f7ff fc72 	bl	8005404 <prvIsQueueEmpty>
 8005b20:	b300      	cbz	r0, 8005b64 <xQueueSemaphoreTake+0x13a>
 8005b22:	6823      	ldr	r3, [r4, #0]
 8005b24:	b93b      	cbnz	r3, 8005b36 <xQueueSemaphoreTake+0x10c>
 8005b26:	f001 f865 	bl	8006bf4 <vPortEnterCritical>
 8005b2a:	68a0      	ldr	r0, [r4, #8]
 8005b2c:	f000 fd4a 	bl	80065c4 <xTaskPriorityInherit>
 8005b30:	4605      	mov	r5, r0
 8005b32:	f001 f87f 	bl	8006c34 <vPortExitCritical>
 8005b36:	9901      	ldr	r1, [sp, #4]
 8005b38:	f104 0024 	add.w	r0, r4, #36	@ 0x24
 8005b3c:	f000 fc64 	bl	8006408 <vTaskPlaceOnEventList>
 8005b40:	4620      	mov	r0, r4
 8005b42:	f7ff fcb1 	bl	80054a8 <prvUnlockQueue>
 8005b46:	f000 fb41 	bl	80061cc <xTaskResumeAll>
 8005b4a:	b948      	cbnz	r0, 8005b60 <xQueueSemaphoreTake+0x136>
 8005b4c:	f04f 23e0 	mov.w	r3, #3758153728	@ 0xe000e000
 8005b50:	f04f 5280 	mov.w	r2, #268435456	@ 0x10000000
 8005b54:	f8c3 2d04 	str.w	r2, [r3, #3332]	@ 0xd04
 8005b58:	f3bf 8f4f 	dsb	sy
 8005b5c:	f3bf 8f6f 	isb	sy
 8005b60:	2601      	movs	r6, #1
 8005b62:	e781      	b.n	8005a68 <xQueueSemaphoreTake+0x3e>
 8005b64:	4620      	mov	r0, r4
 8005b66:	f7ff fc9f 	bl	80054a8 <prvUnlockQueue>
 8005b6a:	f000 fb2f 	bl	80061cc <xTaskResumeAll>
 8005b6e:	e7f7      	b.n	8005b60 <xQueueSemaphoreTake+0x136>
 8005b70:	4620      	mov	r0, r4
 8005b72:	f7ff fc99 	bl	80054a8 <prvUnlockQueue>
 8005b76:	f000 fb29 	bl	80061cc <xTaskResumeAll>
 8005b7a:	4620      	mov	r0, r4
 8005b7c:	f7ff fc42 	bl	8005404 <prvIsQueueEmpty>
 8005b80:	2800      	cmp	r0, #0
 8005b82:	d0ed      	beq.n	8005b60 <xQueueSemaphoreTake+0x136>
 8005b84:	b165      	cbz	r5, 8005ba0 <xQueueSemaphoreTake+0x176>
 8005b86:	f001 f835 	bl	8006bf4 <vPortEnterCritical>
 8005b8a:	6a61      	ldr	r1, [r4, #36]	@ 0x24
 8005b8c:	b119      	cbz	r1, 8005b96 <xQueueSemaphoreTake+0x16c>
 8005b8e:	6b23      	ldr	r3, [r4, #48]	@ 0x30
 8005b90:	6819      	ldr	r1, [r3, #0]
 8005b92:	f1c1 0138 	rsb	r1, r1, #56	@ 0x38
 8005b96:	68a0      	ldr	r0, [r4, #8]
 8005b98:	f000 fd94 	bl	80066c4 <vTaskPriorityDisinheritAfterTimeout>
 8005b9c:	f001 f84a 	bl	8006c34 <vPortExitCritical>
 8005ba0:	2000      	movs	r0, #0
 8005ba2:	e780      	b.n	8005aa6 <xQueueSemaphoreTake+0x7c>

08005ba4 <xQueueTakeMutexRecursive>:
 8005ba4:	b570      	push	{r4, r5, r6, lr}
 8005ba6:	460d      	mov	r5, r1
 8005ba8:	4604      	mov	r4, r0
 8005baa:	b940      	cbnz	r0, 8005bbe <xQueueTakeMutexRecursive+0x1a>
 8005bac:	f04f 0350 	mov.w	r3, #80	@ 0x50
 8005bb0:	f383 8811 	msr	BASEPRI, r3
 8005bb4:	f3bf 8f6f 	isb	sy
 8005bb8:	f3bf 8f4f 	dsb	sy
 8005bbc:	e7fe      	b.n	8005bbc <xQueueTakeMutexRecursive+0x18>
 8005bbe:	6886      	ldr	r6, [r0, #8]
 8005bc0:	f000 fcea 	bl	8006598 <xTaskGetCurrentTaskHandle>
 8005bc4:	4286      	cmp	r6, r0
 8005bc6:	d104      	bne.n	8005bd2 <xQueueTakeMutexRecursive+0x2e>
 8005bc8:	2001      	movs	r0, #1
 8005bca:	68e3      	ldr	r3, [r4, #12]
 8005bcc:	3301      	adds	r3, #1
 8005bce:	60e3      	str	r3, [r4, #12]
 8005bd0:	bd70      	pop	{r4, r5, r6, pc}
 8005bd2:	4629      	mov	r1, r5
 8005bd4:	4620      	mov	r0, r4
 8005bd6:	f7ff ff28 	bl	8005a2a <xQueueSemaphoreTake>
 8005bda:	2800      	cmp	r0, #0
 8005bdc:	d0f8      	beq.n	8005bd0 <xQueueTakeMutexRecursive+0x2c>
 8005bde:	68e3      	ldr	r3, [r4, #12]
 8005be0:	3301      	adds	r3, #1
 8005be2:	60e3      	str	r3, [r4, #12]
 8005be4:	e7f4      	b.n	8005bd0 <xQueueTakeMutexRecursive+0x2c>
	...

08005be8 <vQueueAddToRegistry>:
 8005be8:	2300      	movs	r3, #0
 8005bea:	b530      	push	{r4, r5, lr}
 8005bec:	4a06      	ldr	r2, [pc, #24]	@ (8005c08 <vQueueAddToRegistry+0x20>)
 8005bee:	f852 5033 	ldr.w	r5, [r2, r3, lsl #3]
 8005bf2:	eb02 04c3 	add.w	r4, r2, r3, lsl #3
 8005bf6:	b91d      	cbnz	r5, 8005c00 <vQueueAddToRegistry+0x18>
 8005bf8:	f842 1033 	str.w	r1, [r2, r3, lsl #3]
 8005bfc:	6060      	str	r0, [r4, #4]
 8005bfe:	bd30      	pop	{r4, r5, pc}
 8005c00:	3301      	adds	r3, #1
 8005c02:	2b08      	cmp	r3, #8
 8005c04:	d1f3      	bne.n	8005bee <vQueueAddToRegistry+0x6>
 8005c06:	e7fa      	b.n	8005bfe <vQueueAddToRegistry+0x16>
 8005c08:	20000ca4 	.word	0x20000ca4

08005c0c <vQueueWaitForMessageRestricted>:
 8005c0c:	b570      	push	{r4, r5, r6, lr}
 8005c0e:	4604      	mov	r4, r0
 8005c10:	460d      	mov	r5, r1
 8005c12:	4616      	mov	r6, r2
 8005c14:	f000 ffee 	bl	8006bf4 <vPortEnterCritical>
 8005c18:	f894 3044 	ldrb.w	r3, [r4, #68]	@ 0x44
 8005c1c:	2bff      	cmp	r3, #255	@ 0xff
 8005c1e:	bf04      	itt	eq
 8005c20:	2300      	moveq	r3, #0
 8005c22:	f884 3044 	strbeq.w	r3, [r4, #68]	@ 0x44
 8005c26:	f894 3045 	ldrb.w	r3, [r4, #69]	@ 0x45
 8005c2a:	2bff      	cmp	r3, #255	@ 0xff
 8005c2c:	bf04      	itt	eq
 8005c2e:	2300      	moveq	r3, #0
 8005c30:	f884 3045 	strbeq.w	r3, [r4, #69]	@ 0x45
 8005c34:	f000 fffe 	bl	8006c34 <vPortExitCritical>
 8005c38:	6ba3      	ldr	r3, [r4, #56]	@ 0x38
 8005c3a:	b92b      	cbnz	r3, 8005c48 <vQueueWaitForMessageRestricted+0x3c>
 8005c3c:	4632      	mov	r2, r6
 8005c3e:	4629      	mov	r1, r5
 8005c40:	f104 0024 	add.w	r0, r4, #36	@ 0x24
 8005c44:	f000 fbfa 	bl	800643c <vTaskPlaceOnEventListRestricted>
 8005c48:	4620      	mov	r0, r4
 8005c4a:	e8bd 4070 	ldmia.w	sp!, {r4, r5, r6, lr}
 8005c4e:	f7ff bc2b 	b.w	80054a8 <prvUnlockQueue>
	...

08005c54 <prvAddNewTaskToReadyList>:
 8005c54:	e92d 41f0 	stmdb	sp!, {r4, r5, r6, r7, r8, lr}
 8005c58:	4604      	mov	r4, r0
 8005c5a:	f000 ffcb 	bl	8006bf4 <vPortEnterCritical>
 8005c5e:	4b30      	ldr	r3, [pc, #192]	@ (8005d20 <prvAddNewTaskToReadyList+0xcc>)
 8005c60:	4e30      	ldr	r6, [pc, #192]	@ (8005d24 <prvAddNewTaskToReadyList+0xd0>)
 8005c62:	681a      	ldr	r2, [r3, #0]
 8005c64:	4f30      	ldr	r7, [pc, #192]	@ (8005d28 <prvAddNewTaskToReadyList+0xd4>)
 8005c66:	3201      	adds	r2, #1
 8005c68:	601a      	str	r2, [r3, #0]
 8005c6a:	6835      	ldr	r5, [r6, #0]
 8005c6c:	2d00      	cmp	r5, #0
 8005c6e:	d14b      	bne.n	8005d08 <prvAddNewTaskToReadyList+0xb4>
 8005c70:	6034      	str	r4, [r6, #0]
 8005c72:	681b      	ldr	r3, [r3, #0]
 8005c74:	2b01      	cmp	r3, #1
 8005c76:	d11f      	bne.n	8005cb8 <prvAddNewTaskToReadyList+0x64>
 8005c78:	46b8      	mov	r8, r7
 8005c7a:	4640      	mov	r0, r8
 8005c7c:	3501      	adds	r5, #1
 8005c7e:	f7ff fb81 	bl	8005384 <vListInitialise>
 8005c82:	2d38      	cmp	r5, #56	@ 0x38
 8005c84:	f108 0814 	add.w	r8, r8, #20
 8005c88:	d1f7      	bne.n	8005c7a <prvAddNewTaskToReadyList+0x26>
 8005c8a:	f8df 80a0 	ldr.w	r8, [pc, #160]	@ 8005d2c <prvAddNewTaskToReadyList+0xd8>
 8005c8e:	4d28      	ldr	r5, [pc, #160]	@ (8005d30 <prvAddNewTaskToReadyList+0xdc>)
 8005c90:	4640      	mov	r0, r8
 8005c92:	f7ff fb77 	bl	8005384 <vListInitialise>
 8005c96:	4628      	mov	r0, r5
 8005c98:	f7ff fb74 	bl	8005384 <vListInitialise>
 8005c9c:	4825      	ldr	r0, [pc, #148]	@ (8005d34 <prvAddNewTaskToReadyList+0xe0>)
 8005c9e:	f7ff fb71 	bl	8005384 <vListInitialise>
 8005ca2:	4825      	ldr	r0, [pc, #148]	@ (8005d38 <prvAddNewTaskToReadyList+0xe4>)
 8005ca4:	f7ff fb6e 	bl	8005384 <vListInitialise>
 8005ca8:	4824      	ldr	r0, [pc, #144]	@ (8005d3c <prvAddNewTaskToReadyList+0xe8>)
 8005caa:	f7ff fb6b 	bl	8005384 <vListInitialise>
 8005cae:	4b24      	ldr	r3, [pc, #144]	@ (8005d40 <prvAddNewTaskToReadyList+0xec>)
 8005cb0:	f8c3 8000 	str.w	r8, [r3]
 8005cb4:	4b23      	ldr	r3, [pc, #140]	@ (8005d44 <prvAddNewTaskToReadyList+0xf0>)
 8005cb6:	601d      	str	r5, [r3, #0]
 8005cb8:	2014      	movs	r0, #20
 8005cba:	4a23      	ldr	r2, [pc, #140]	@ (8005d48 <prvAddNewTaskToReadyList+0xf4>)
 8005cbc:	6813      	ldr	r3, [r2, #0]
 8005cbe:	3301      	adds	r3, #1
 8005cc0:	6013      	str	r3, [r2, #0]
 8005cc2:	4a22      	ldr	r2, [pc, #136]	@ (8005d4c <prvAddNewTaskToReadyList+0xf8>)
 8005cc4:	6463      	str	r3, [r4, #68]	@ 0x44
 8005cc6:	6811      	ldr	r1, [r2, #0]
 8005cc8:	6ae3      	ldr	r3, [r4, #44]	@ 0x2c
 8005cca:	428b      	cmp	r3, r1
 8005ccc:	fb00 7003 	mla	r0, r0, r3, r7
 8005cd0:	f104 0104 	add.w	r1, r4, #4
 8005cd4:	bf88      	it	hi
 8005cd6:	6013      	strhi	r3, [r2, #0]
 8005cd8:	f7ff fb62 	bl	80053a0 <vListInsertEnd>
 8005cdc:	f000 ffaa 	bl	8006c34 <vPortExitCritical>
 8005ce0:	4b1b      	ldr	r3, [pc, #108]	@ (8005d50 <prvAddNewTaskToReadyList+0xfc>)
 8005ce2:	681b      	ldr	r3, [r3, #0]
 8005ce4:	b173      	cbz	r3, 8005d04 <prvAddNewTaskToReadyList+0xb0>
 8005ce6:	6833      	ldr	r3, [r6, #0]
 8005ce8:	6ada      	ldr	r2, [r3, #44]	@ 0x2c
 8005cea:	6ae3      	ldr	r3, [r4, #44]	@ 0x2c
 8005cec:	429a      	cmp	r2, r3
 8005cee:	d209      	bcs.n	8005d04 <prvAddNewTaskToReadyList+0xb0>
 8005cf0:	f04f 23e0 	mov.w	r3, #3758153728	@ 0xe000e000
 8005cf4:	f04f 5280 	mov.w	r2, #268435456	@ 0x10000000
 8005cf8:	f8c3 2d04 	str.w	r2, [r3, #3332]	@ 0xd04
 8005cfc:	f3bf 8f4f 	dsb	sy
 8005d00:	f3bf 8f6f 	isb	sy
 8005d04:	e8bd 81f0 	ldmia.w	sp!, {r4, r5, r6, r7, r8, pc}
 8005d08:	4b11      	ldr	r3, [pc, #68]	@ (8005d50 <prvAddNewTaskToReadyList+0xfc>)
 8005d0a:	681a      	ldr	r2, [r3, #0]
 8005d0c:	6ae3      	ldr	r3, [r4, #44]	@ 0x2c
 8005d0e:	2a00      	cmp	r2, #0
 8005d10:	d1d2      	bne.n	8005cb8 <prvAddNewTaskToReadyList+0x64>
 8005d12:	6832      	ldr	r2, [r6, #0]
 8005d14:	6ad2      	ldr	r2, [r2, #44]	@ 0x2c
 8005d16:	429a      	cmp	r2, r3
 8005d18:	bf98      	it	ls
 8005d1a:	6034      	strls	r4, [r6, #0]
 8005d1c:	e7cc      	b.n	8005cb8 <prvAddNewTaskToReadyList+0x64>
 8005d1e:	bf00      	nop
 8005d20:	20000d08 	.word	0x20000d08
 8005d24:	200011dc 	.word	0x200011dc
 8005d28:	20000d7c 	.word	0x20000d7c
 8005d2c:	20000d68 	.word	0x20000d68
 8005d30:	20000d54 	.word	0x20000d54
 8005d34:	20000d38 	.word	0x20000d38
 8005d38:	20000d24 	.word	0x20000d24
 8005d3c:	20000d0c 	.word	0x20000d0c
 8005d40:	20000d50 	.word	0x20000d50
 8005d44:	20000d4c 	.word	0x20000d4c
 8005d48:	20000cec 	.word	0x20000cec
 8005d4c:	20000d00 	.word	0x20000d00
 8005d50:	20000cfc 	.word	0x20000cfc

08005d54 <prvAddCurrentTaskToDelayedList>:
 8005d54:	b5f8      	push	{r3, r4, r5, r6, r7, lr}
 8005d56:	4606      	mov	r6, r0
 8005d58:	4b14      	ldr	r3, [pc, #80]	@ (8005dac <prvAddCurrentTaskToDelayedList+0x58>)
 8005d5a:	4d15      	ldr	r5, [pc, #84]	@ (8005db0 <prvAddCurrentTaskToDelayedList+0x5c>)
 8005d5c:	681c      	ldr	r4, [r3, #0]
 8005d5e:	6828      	ldr	r0, [r5, #0]
 8005d60:	460f      	mov	r7, r1
 8005d62:	3004      	adds	r0, #4
 8005d64:	f7ff fb3e 	bl	80053e4 <uxListRemove>
 8005d68:	1c73      	adds	r3, r6, #1
 8005d6a:	d107      	bne.n	8005d7c <prvAddCurrentTaskToDelayedList+0x28>
 8005d6c:	b137      	cbz	r7, 8005d7c <prvAddCurrentTaskToDelayedList+0x28>
 8005d6e:	6829      	ldr	r1, [r5, #0]
 8005d70:	4810      	ldr	r0, [pc, #64]	@ (8005db4 <prvAddCurrentTaskToDelayedList+0x60>)
 8005d72:	3104      	adds	r1, #4
 8005d74:	e8bd 40f8 	ldmia.w	sp!, {r3, r4, r5, r6, r7, lr}
 8005d78:	f7ff bb12 	b.w	80053a0 <vListInsertEnd>
 8005d7c:	682b      	ldr	r3, [r5, #0]
 8005d7e:	19a4      	adds	r4, r4, r6
 8005d80:	605c      	str	r4, [r3, #4]
 8005d82:	d307      	bcc.n	8005d94 <prvAddCurrentTaskToDelayedList+0x40>
 8005d84:	4b0c      	ldr	r3, [pc, #48]	@ (8005db8 <prvAddCurrentTaskToDelayedList+0x64>)
 8005d86:	6818      	ldr	r0, [r3, #0]
 8005d88:	6829      	ldr	r1, [r5, #0]
 8005d8a:	e8bd 40f8 	ldmia.w	sp!, {r3, r4, r5, r6, r7, lr}
 8005d8e:	3104      	adds	r1, #4
 8005d90:	f7ff bb11 	b.w	80053b6 <vListInsert>
 8005d94:	4b09      	ldr	r3, [pc, #36]	@ (8005dbc <prvAddCurrentTaskToDelayedList+0x68>)
 8005d96:	6818      	ldr	r0, [r3, #0]
 8005d98:	6829      	ldr	r1, [r5, #0]
 8005d9a:	3104      	adds	r1, #4
 8005d9c:	f7ff fb0b 	bl	80053b6 <vListInsert>
 8005da0:	4b07      	ldr	r3, [pc, #28]	@ (8005dc0 <prvAddCurrentTaskToDelayedList+0x6c>)
 8005da2:	681a      	ldr	r2, [r3, #0]
 8005da4:	42a2      	cmp	r2, r4
 8005da6:	bf88      	it	hi
 8005da8:	601c      	strhi	r4, [r3, #0]
 8005daa:	bdf8      	pop	{r3, r4, r5, r6, r7, pc}
 8005dac:	20000d04 	.word	0x20000d04
 8005db0:	200011dc 	.word	0x200011dc
 8005db4:	20000d0c 	.word	0x20000d0c
 8005db8:	20000d4c 	.word	0x20000d4c
 8005dbc:	20000d50 	.word	0x20000d50
 8005dc0:	20000ce8 	.word	0x20000ce8

08005dc4 <prvResetNextTaskUnblockTime>:
 8005dc4:	4a06      	ldr	r2, [pc, #24]	@ (8005de0 <prvResetNextTaskUnblockTime+0x1c>)
 8005dc6:	6813      	ldr	r3, [r2, #0]
 8005dc8:	6819      	ldr	r1, [r3, #0]
 8005dca:	4b06      	ldr	r3, [pc, #24]	@ (8005de4 <prvResetNextTaskUnblockTime+0x20>)
 8005dcc:	b919      	cbnz	r1, 8005dd6 <prvResetNextTaskUnblockTime+0x12>
 8005dce:	f04f 32ff 	mov.w	r2, #4294967295
 8005dd2:	601a      	str	r2, [r3, #0]
 8005dd4:	4770      	bx	lr
 8005dd6:	6812      	ldr	r2, [r2, #0]
 8005dd8:	68d2      	ldr	r2, [r2, #12]
 8005dda:	68d2      	ldr	r2, [r2, #12]
 8005ddc:	6852      	ldr	r2, [r2, #4]
 8005dde:	e7f8      	b.n	8005dd2 <prvResetNextTaskUnblockTime+0xe>
 8005de0:	20000d50 	.word	0x20000d50
 8005de4:	20000ce8 	.word	0x20000ce8

08005de8 <prvDeleteTCB>:
 8005de8:	b510      	push	{r4, lr}
 8005dea:	f890 3059 	ldrb.w	r3, [r0, #89]	@ 0x59
 8005dee:	4604      	mov	r4, r0
 8005df0:	b93b      	cbnz	r3, 8005e02 <prvDeleteTCB+0x1a>
 8005df2:	6b00      	ldr	r0, [r0, #48]	@ 0x30
 8005df4:	f001 f8c2 	bl	8006f7c <vPortFree>
 8005df8:	4620      	mov	r0, r4
 8005dfa:	e8bd 4010 	ldmia.w	sp!, {r4, lr}
 8005dfe:	f001 b8bd 	b.w	8006f7c <vPortFree>
 8005e02:	2b01      	cmp	r3, #1
 8005e04:	d0f9      	beq.n	8005dfa <prvDeleteTCB+0x12>
 8005e06:	2b02      	cmp	r3, #2
 8005e08:	d008      	beq.n	8005e1c <prvDeleteTCB+0x34>
 8005e0a:	f04f 0350 	mov.w	r3, #80	@ 0x50
 8005e0e:	f383 8811 	msr	BASEPRI, r3
 8005e12:	f3bf 8f6f 	isb	sy
 8005e16:	f3bf 8f4f 	dsb	sy
 8005e1a:	e7fe      	b.n	8005e1a <prvDeleteTCB+0x32>
 8005e1c:	bd10      	pop	{r4, pc}
	...

08005e20 <prvIdleTask>:
 8005e20:	b580      	push	{r7, lr}
 8005e22:	4c13      	ldr	r4, [pc, #76]	@ (8005e70 <prvIdleTask+0x50>)
 8005e24:	4f13      	ldr	r7, [pc, #76]	@ (8005e74 <prvIdleTask+0x54>)
 8005e26:	4d14      	ldr	r5, [pc, #80]	@ (8005e78 <prvIdleTask+0x58>)
 8005e28:	6823      	ldr	r3, [r4, #0]
 8005e2a:	b973      	cbnz	r3, 8005e4a <prvIdleTask+0x2a>
 8005e2c:	4b13      	ldr	r3, [pc, #76]	@ (8005e7c <prvIdleTask+0x5c>)
 8005e2e:	681b      	ldr	r3, [r3, #0]
 8005e30:	2b01      	cmp	r3, #1
 8005e32:	d9f8      	bls.n	8005e26 <prvIdleTask+0x6>
 8005e34:	f04f 23e0 	mov.w	r3, #3758153728	@ 0xe000e000
 8005e38:	f04f 5280 	mov.w	r2, #268435456	@ 0x10000000
 8005e3c:	f8c3 2d04 	str.w	r2, [r3, #3332]	@ 0xd04
 8005e40:	f3bf 8f4f 	dsb	sy
 8005e44:	f3bf 8f6f 	isb	sy
 8005e48:	e7ed      	b.n	8005e26 <prvIdleTask+0x6>
 8005e4a:	f000 fed3 	bl	8006bf4 <vPortEnterCritical>
 8005e4e:	68fb      	ldr	r3, [r7, #12]
 8005e50:	68de      	ldr	r6, [r3, #12]
 8005e52:	1d30      	adds	r0, r6, #4
 8005e54:	f7ff fac6 	bl	80053e4 <uxListRemove>
 8005e58:	682b      	ldr	r3, [r5, #0]
 8005e5a:	3b01      	subs	r3, #1
 8005e5c:	602b      	str	r3, [r5, #0]
 8005e5e:	6823      	ldr	r3, [r4, #0]
 8005e60:	3b01      	subs	r3, #1
 8005e62:	6023      	str	r3, [r4, #0]
 8005e64:	f000 fee6 	bl	8006c34 <vPortExitCritical>
 8005e68:	4630      	mov	r0, r6
 8005e6a:	f7ff ffbd 	bl	8005de8 <prvDeleteTCB>
 8005e6e:	e7db      	b.n	8005e28 <prvIdleTask+0x8>
 8005e70:	20000d20 	.word	0x20000d20
 8005e74:	20000d24 	.word	0x20000d24
 8005e78:	20000d08 	.word	0x20000d08
 8005e7c:	20000d7c 	.word	0x20000d7c

08005e80 <prvInitialiseNewTask.constprop.0>:
 8005e80:	e92d 47f0 	stmdb	sp!, {r4, r5, r6, r7, r8, r9, sl, lr}
 8005e84:	460d      	mov	r5, r1
 8005e86:	e9dd 9409 	ldrd	r9, r4, [sp, #36]	@ 0x24
 8005e8a:	0096      	lsls	r6, r2, #2
 8005e8c:	4632      	mov	r2, r6
 8005e8e:	4607      	mov	r7, r0
 8005e90:	21a5      	movs	r1, #165	@ 0xa5
 8005e92:	6b20      	ldr	r0, [r4, #48]	@ 0x30
 8005e94:	4698      	mov	r8, r3
 8005e96:	f001 f8af 	bl	8006ff8 <memset>
 8005e9a:	6b23      	ldr	r3, [r4, #48]	@ 0x30
 8005e9c:	3e04      	subs	r6, #4
 8005e9e:	441e      	add	r6, r3
 8005ea0:	f026 0607 	bic.w	r6, r6, #7
 8005ea4:	b3a5      	cbz	r5, 8005f10 <prvInitialiseNewTask.constprop.0+0x90>
 8005ea6:	1e6b      	subs	r3, r5, #1
 8005ea8:	f104 0233 	add.w	r2, r4, #51	@ 0x33
 8005eac:	350f      	adds	r5, #15
 8005eae:	f813 1f01 	ldrb.w	r1, [r3, #1]!
 8005eb2:	f802 1f01 	strb.w	r1, [r2, #1]!
 8005eb6:	b109      	cbz	r1, 8005ebc <prvInitialiseNewTask.constprop.0+0x3c>
 8005eb8:	42ab      	cmp	r3, r5
 8005eba:	d1f8      	bne.n	8005eae <prvInitialiseNewTask.constprop.0+0x2e>
 8005ebc:	2300      	movs	r3, #0
 8005ebe:	f884 3043 	strb.w	r3, [r4, #67]	@ 0x43
 8005ec2:	9d08      	ldr	r5, [sp, #32]
 8005ec4:	f04f 0a00 	mov.w	sl, #0
 8005ec8:	2d37      	cmp	r5, #55	@ 0x37
 8005eca:	bf28      	it	cs
 8005ecc:	2537      	movcs	r5, #55	@ 0x37
 8005ece:	1d20      	adds	r0, r4, #4
 8005ed0:	62e5      	str	r5, [r4, #44]	@ 0x2c
 8005ed2:	64e5      	str	r5, [r4, #76]	@ 0x4c
 8005ed4:	f8c4 a050 	str.w	sl, [r4, #80]	@ 0x50
 8005ed8:	f7ff fa5f 	bl	800539a <vListInitialiseItem>
 8005edc:	f1c5 0538 	rsb	r5, r5, #56	@ 0x38
 8005ee0:	f104 0018 	add.w	r0, r4, #24
 8005ee4:	f7ff fa59 	bl	800539a <vListInitialiseItem>
 8005ee8:	f8c4 a054 	str.w	sl, [r4, #84]	@ 0x54
 8005eec:	4642      	mov	r2, r8
 8005eee:	4639      	mov	r1, r7
 8005ef0:	4630      	mov	r0, r6
 8005ef2:	6124      	str	r4, [r4, #16]
 8005ef4:	61a5      	str	r5, [r4, #24]
 8005ef6:	6264      	str	r4, [r4, #36]	@ 0x24
 8005ef8:	f884 a058 	strb.w	sl, [r4, #88]	@ 0x58
 8005efc:	f000 fe54 	bl	8006ba8 <pxPortInitialiseStack>
 8005f00:	6020      	str	r0, [r4, #0]
 8005f02:	f1b9 0f00 	cmp.w	r9, #0
 8005f06:	d001      	beq.n	8005f0c <prvInitialiseNewTask.constprop.0+0x8c>
 8005f08:	f8c9 4000 	str.w	r4, [r9]
 8005f0c:	e8bd 87f0 	ldmia.w	sp!, {r4, r5, r6, r7, r8, r9, sl, pc}
 8005f10:	f884 5034 	strb.w	r5, [r4, #52]	@ 0x34
 8005f14:	e7d5      	b.n	8005ec2 <prvInitialiseNewTask.constprop.0+0x42>

08005f16 <xTaskCreateStatic>:
 8005f16:	b570      	push	{r4, r5, r6, lr}
 8005f18:	b086      	sub	sp, #24
 8005f1a:	e9dd 540b 	ldrd	r5, r4, [sp, #44]	@ 0x2c
 8005f1e:	b945      	cbnz	r5, 8005f32 <xTaskCreateStatic+0x1c>
 8005f20:	f04f 0350 	mov.w	r3, #80	@ 0x50
 8005f24:	f383 8811 	msr	BASEPRI, r3
 8005f28:	f3bf 8f6f 	isb	sy
 8005f2c:	f3bf 8f4f 	dsb	sy
 8005f30:	e7fe      	b.n	8005f30 <xTaskCreateStatic+0x1a>
 8005f32:	b944      	cbnz	r4, 8005f46 <xTaskCreateStatic+0x30>
 8005f34:	f04f 0350 	mov.w	r3, #80	@ 0x50
 8005f38:	f383 8811 	msr	BASEPRI, r3
 8005f3c:	f3bf 8f6f 	isb	sy
 8005f40:	f3bf 8f4f 	dsb	sy
 8005f44:	e7fe      	b.n	8005f44 <xTaskCreateStatic+0x2e>
 8005f46:	265c      	movs	r6, #92	@ 0x5c
 8005f48:	9605      	str	r6, [sp, #20]
 8005f4a:	9e05      	ldr	r6, [sp, #20]
 8005f4c:	2e5c      	cmp	r6, #92	@ 0x5c
 8005f4e:	d008      	beq.n	8005f62 <xTaskCreateStatic+0x4c>
 8005f50:	f04f 0350 	mov.w	r3, #80	@ 0x50
 8005f54:	f383 8811 	msr	BASEPRI, r3
 8005f58:	f3bf 8f6f 	isb	sy
 8005f5c:	f3bf 8f4f 	dsb	sy
 8005f60:	e7fe      	b.n	8005f60 <xTaskCreateStatic+0x4a>
 8005f62:	6325      	str	r5, [r4, #48]	@ 0x30
 8005f64:	2502      	movs	r5, #2
 8005f66:	f884 5059 	strb.w	r5, [r4, #89]	@ 0x59
 8005f6a:	ad04      	add	r5, sp, #16
 8005f6c:	9501      	str	r5, [sp, #4]
 8005f6e:	9d0a      	ldr	r5, [sp, #40]	@ 0x28
 8005f70:	9402      	str	r4, [sp, #8]
 8005f72:	9500      	str	r5, [sp, #0]
 8005f74:	9e05      	ldr	r6, [sp, #20]
 8005f76:	f7ff ff83 	bl	8005e80 <prvInitialiseNewTask.constprop.0>
 8005f7a:	4620      	mov	r0, r4
 8005f7c:	f7ff fe6a 	bl	8005c54 <prvAddNewTaskToReadyList>
 8005f80:	9804      	ldr	r0, [sp, #16]
 8005f82:	b006      	add	sp, #24
 8005f84:	bd70      	pop	{r4, r5, r6, pc}

08005f86 <xTaskCreate>:
 8005f86:	e92d 43f0 	stmdb	sp!, {r4, r5, r6, r7, r8, r9, lr}
 8005f8a:	4607      	mov	r7, r0
 8005f8c:	b085      	sub	sp, #20
 8005f8e:	0090      	lsls	r0, r2, #2
 8005f90:	4688      	mov	r8, r1
 8005f92:	4616      	mov	r6, r2
 8005f94:	4699      	mov	r9, r3
 8005f96:	f000 ff59 	bl	8006e4c <pvPortMalloc>
 8005f9a:	4605      	mov	r5, r0
 8005f9c:	b920      	cbnz	r0, 8005fa8 <xTaskCreate+0x22>
 8005f9e:	f04f 30ff 	mov.w	r0, #4294967295
 8005fa2:	b005      	add	sp, #20
 8005fa4:	e8bd 83f0 	ldmia.w	sp!, {r4, r5, r6, r7, r8, r9, pc}
 8005fa8:	205c      	movs	r0, #92	@ 0x5c
 8005faa:	f000 ff4f 	bl	8006e4c <pvPortMalloc>
 8005fae:	4604      	mov	r4, r0
 8005fb0:	b198      	cbz	r0, 8005fda <xTaskCreate+0x54>
 8005fb2:	2300      	movs	r3, #0
 8005fb4:	f880 3059 	strb.w	r3, [r0, #89]	@ 0x59
 8005fb8:	9b0d      	ldr	r3, [sp, #52]	@ 0x34
 8005fba:	6305      	str	r5, [r0, #48]	@ 0x30
 8005fbc:	9301      	str	r3, [sp, #4]
 8005fbe:	9b0c      	ldr	r3, [sp, #48]	@ 0x30
 8005fc0:	4632      	mov	r2, r6
 8005fc2:	4641      	mov	r1, r8
 8005fc4:	9002      	str	r0, [sp, #8]
 8005fc6:	9300      	str	r3, [sp, #0]
 8005fc8:	4638      	mov	r0, r7
 8005fca:	464b      	mov	r3, r9
 8005fcc:	f7ff ff58 	bl	8005e80 <prvInitialiseNewTask.constprop.0>
 8005fd0:	4620      	mov	r0, r4
 8005fd2:	f7ff fe3f 	bl	8005c54 <prvAddNewTaskToReadyList>
 8005fd6:	2001      	movs	r0, #1
 8005fd8:	e7e3      	b.n	8005fa2 <xTaskCreate+0x1c>
 8005fda:	4628      	mov	r0, r5
 8005fdc:	f000 ffce 	bl	8006f7c <vPortFree>
 8005fe0:	e7dd      	b.n	8005f9e <xTaskCreate+0x18>
	...

08005fe4 <vTaskStartScheduler>:
 8005fe4:	b510      	push	{r4, lr}
 8005fe6:	2400      	movs	r4, #0
 8005fe8:	b088      	sub	sp, #32
 8005fea:	aa07      	add	r2, sp, #28
 8005fec:	a906      	add	r1, sp, #24
 8005fee:	a805      	add	r0, sp, #20
 8005ff0:	e9cd 4405 	strd	r4, r4, [sp, #20]
 8005ff4:	f7ff f9ae 	bl	8005354 <vApplicationGetIdleTaskMemory>
 8005ff8:	9b05      	ldr	r3, [sp, #20]
 8005ffa:	9a07      	ldr	r2, [sp, #28]
 8005ffc:	9302      	str	r3, [sp, #8]
 8005ffe:	9b06      	ldr	r3, [sp, #24]
 8006000:	4916      	ldr	r1, [pc, #88]	@ (800605c <vTaskStartScheduler+0x78>)
 8006002:	e9cd 4300 	strd	r4, r3, [sp]
 8006006:	4816      	ldr	r0, [pc, #88]	@ (8006060 <vTaskStartScheduler+0x7c>)
 8006008:	4623      	mov	r3, r4
 800600a:	f7ff ff84 	bl	8005f16 <xTaskCreateStatic>
 800600e:	b318      	cbz	r0, 8006058 <vTaskStartScheduler+0x74>
 8006010:	f000 fc04 	bl	800681c <xTimerCreateTimerTask>
 8006014:	2801      	cmp	r0, #1
 8006016:	d114      	bne.n	8006042 <vTaskStartScheduler+0x5e>
 8006018:	f04f 0350 	mov.w	r3, #80	@ 0x50
 800601c:	f383 8811 	msr	BASEPRI, r3
 8006020:	f3bf 8f6f 	isb	sy
 8006024:	f3bf 8f4f 	dsb	sy
 8006028:	f04f 32ff 	mov.w	r2, #4294967295
 800602c:	4b0d      	ldr	r3, [pc, #52]	@ (8006064 <vTaskStartScheduler+0x80>)
 800602e:	601a      	str	r2, [r3, #0]
 8006030:	4b0d      	ldr	r3, [pc, #52]	@ (8006068 <vTaskStartScheduler+0x84>)
 8006032:	6018      	str	r0, [r3, #0]
 8006034:	4b0d      	ldr	r3, [pc, #52]	@ (800606c <vTaskStartScheduler+0x88>)
 8006036:	601c      	str	r4, [r3, #0]
 8006038:	b008      	add	sp, #32
 800603a:	e8bd 4010 	ldmia.w	sp!, {r4, lr}
 800603e:	f000 be59 	b.w	8006cf4 <xPortStartScheduler>
 8006042:	3001      	adds	r0, #1
 8006044:	d108      	bne.n	8006058 <vTaskStartScheduler+0x74>
 8006046:	f04f 0350 	mov.w	r3, #80	@ 0x50
 800604a:	f383 8811 	msr	BASEPRI, r3
 800604e:	f3bf 8f6f 	isb	sy
 8006052:	f3bf 8f4f 	dsb	sy
 8006056:	e7fe      	b.n	8006056 <vTaskStartScheduler+0x72>
 8006058:	b008      	add	sp, #32
 800605a:	bd10      	pop	{r4, pc}
 800605c:	080070b8 	.word	0x080070b8
 8006060:	08005e21 	.word	0x08005e21
 8006064:	20000ce8 	.word	0x20000ce8
 8006068:	20000cfc 	.word	0x20000cfc
 800606c:	20000d04 	.word	0x20000d04

08006070 <vTaskSuspendAll>:
 8006070:	4a02      	ldr	r2, [pc, #8]	@ (800607c <vTaskSuspendAll+0xc>)
 8006072:	6813      	ldr	r3, [r2, #0]
 8006074:	3301      	adds	r3, #1
 8006076:	6013      	str	r3, [r2, #0]
 8006078:	4770      	bx	lr
 800607a:	bf00      	nop
 800607c:	20000ce4 	.word	0x20000ce4

08006080 <xTaskGetTickCount>:
 8006080:	4b01      	ldr	r3, [pc, #4]	@ (8006088 <xTaskGetTickCount+0x8>)
 8006082:	6818      	ldr	r0, [r3, #0]
 8006084:	4770      	bx	lr
 8006086:	bf00      	nop
 8006088:	20000d04 	.word	0x20000d04

0800608c <xTaskGetTickCountFromISR>:
 800608c:	b508      	push	{r3, lr}
 800608e:	f000 fe89 	bl	8006da4 <vPortValidateInterruptPriority>
 8006092:	4b01      	ldr	r3, [pc, #4]	@ (8006098 <xTaskGetTickCountFromISR+0xc>)
 8006094:	6818      	ldr	r0, [r3, #0]
 8006096:	bd08      	pop	{r3, pc}
 8006098:	20000d04 	.word	0x20000d04

0800609c <xTaskIncrementTick>:
 800609c:	4b40      	ldr	r3, [pc, #256]	@ (80061a0 <xTaskIncrementTick+0x104>)
 800609e:	e92d 4ff7 	stmdb	sp!, {r0, r1, r2, r4, r5, r6, r7, r8, r9, sl, fp, lr}
 80060a2:	681b      	ldr	r3, [r3, #0]
 80060a4:	2b00      	cmp	r3, #0
 80060a6:	d173      	bne.n	8006190 <xTaskIncrementTick+0xf4>
 80060a8:	4b3e      	ldr	r3, [pc, #248]	@ (80061a4 <xTaskIncrementTick+0x108>)
 80060aa:	681c      	ldr	r4, [r3, #0]
 80060ac:	3401      	adds	r4, #1
 80060ae:	601c      	str	r4, [r3, #0]
 80060b0:	b9bc      	cbnz	r4, 80060e2 <xTaskIncrementTick+0x46>
 80060b2:	4b3d      	ldr	r3, [pc, #244]	@ (80061a8 <xTaskIncrementTick+0x10c>)
 80060b4:	681a      	ldr	r2, [r3, #0]
 80060b6:	6812      	ldr	r2, [r2, #0]
 80060b8:	b142      	cbz	r2, 80060cc <xTaskIncrementTick+0x30>
 80060ba:	f04f 0350 	mov.w	r3, #80	@ 0x50
 80060be:	f383 8811 	msr	BASEPRI, r3
 80060c2:	f3bf 8f6f 	isb	sy
 80060c6:	f3bf 8f4f 	dsb	sy
 80060ca:	e7fe      	b.n	80060ca <xTaskIncrementTick+0x2e>
 80060cc:	4a37      	ldr	r2, [pc, #220]	@ (80061ac <xTaskIncrementTick+0x110>)
 80060ce:	6819      	ldr	r1, [r3, #0]
 80060d0:	6810      	ldr	r0, [r2, #0]
 80060d2:	6018      	str	r0, [r3, #0]
 80060d4:	6011      	str	r1, [r2, #0]
 80060d6:	4a36      	ldr	r2, [pc, #216]	@ (80061b0 <xTaskIncrementTick+0x114>)
 80060d8:	6813      	ldr	r3, [r2, #0]
 80060da:	3301      	adds	r3, #1
 80060dc:	6013      	str	r3, [r2, #0]
 80060de:	f7ff fe71 	bl	8005dc4 <prvResetNextTaskUnblockTime>
 80060e2:	4d34      	ldr	r5, [pc, #208]	@ (80061b4 <xTaskIncrementTick+0x118>)
 80060e4:	f04f 0b00 	mov.w	fp, #0
 80060e8:	682b      	ldr	r3, [r5, #0]
 80060ea:	4e33      	ldr	r6, [pc, #204]	@ (80061b8 <xTaskIncrementTick+0x11c>)
 80060ec:	429c      	cmp	r4, r3
 80060ee:	4f33      	ldr	r7, [pc, #204]	@ (80061bc <xTaskIncrementTick+0x120>)
 80060f0:	d212      	bcs.n	8006118 <xTaskIncrementTick+0x7c>
 80060f2:	2114      	movs	r1, #20
 80060f4:	683a      	ldr	r2, [r7, #0]
 80060f6:	6ad2      	ldr	r2, [r2, #44]	@ 0x2c
 80060f8:	434a      	muls	r2, r1
 80060fa:	58b2      	ldr	r2, [r6, r2]
 80060fc:	2a02      	cmp	r2, #2
 80060fe:	4a30      	ldr	r2, [pc, #192]	@ (80061c0 <xTaskIncrementTick+0x124>)
 8006100:	bf28      	it	cs
 8006102:	f04f 0b01 	movcs.w	fp, #1
 8006106:	6812      	ldr	r2, [r2, #0]
 8006108:	2a00      	cmp	r2, #0
 800610a:	bf18      	it	ne
 800610c:	f04f 0b01 	movne.w	fp, #1
 8006110:	4658      	mov	r0, fp
 8006112:	b003      	add	sp, #12
 8006114:	e8bd 8ff0 	ldmia.w	sp!, {r4, r5, r6, r7, r8, r9, sl, fp, pc}
 8006118:	f8df 908c 	ldr.w	r9, [pc, #140]	@ 80061a8 <xTaskIncrementTick+0x10c>
 800611c:	f8df a0a4 	ldr.w	sl, [pc, #164]	@ 80061c4 <xTaskIncrementTick+0x128>
 8006120:	f8d9 2000 	ldr.w	r2, [r9]
 8006124:	6812      	ldr	r2, [r2, #0]
 8006126:	b91a      	cbnz	r2, 8006130 <xTaskIncrementTick+0x94>
 8006128:	f04f 32ff 	mov.w	r2, #4294967295
 800612c:	602a      	str	r2, [r5, #0]
 800612e:	e7e0      	b.n	80060f2 <xTaskIncrementTick+0x56>
 8006130:	f8d9 2000 	ldr.w	r2, [r9]
 8006134:	68d2      	ldr	r2, [r2, #12]
 8006136:	f8d2 800c 	ldr.w	r8, [r2, #12]
 800613a:	f8d8 1004 	ldr.w	r1, [r8, #4]
 800613e:	428c      	cmp	r4, r1
 8006140:	d201      	bcs.n	8006146 <xTaskIncrementTick+0xaa>
 8006142:	6029      	str	r1, [r5, #0]
 8006144:	e7d5      	b.n	80060f2 <xTaskIncrementTick+0x56>
 8006146:	f108 0304 	add.w	r3, r8, #4
 800614a:	4618      	mov	r0, r3
 800614c:	9301      	str	r3, [sp, #4]
 800614e:	f7ff f949 	bl	80053e4 <uxListRemove>
 8006152:	f8d8 1028 	ldr.w	r1, [r8, #40]	@ 0x28
 8006156:	b119      	cbz	r1, 8006160 <xTaskIncrementTick+0xc4>
 8006158:	f108 0018 	add.w	r0, r8, #24
 800615c:	f7ff f942 	bl	80053e4 <uxListRemove>
 8006160:	2314      	movs	r3, #20
 8006162:	f8d8 002c 	ldr.w	r0, [r8, #44]	@ 0x2c
 8006166:	f8da 1000 	ldr.w	r1, [sl]
 800616a:	4288      	cmp	r0, r1
 800616c:	bf88      	it	hi
 800616e:	f8ca 0000 	strhi.w	r0, [sl]
 8006172:	f108 0104 	add.w	r1, r8, #4
 8006176:	fb03 6000 	mla	r0, r3, r0, r6
 800617a:	f7ff f911 	bl	80053a0 <vListInsertEnd>
 800617e:	6838      	ldr	r0, [r7, #0]
 8006180:	f8d8 102c 	ldr.w	r1, [r8, #44]	@ 0x2c
 8006184:	6ac2      	ldr	r2, [r0, #44]	@ 0x2c
 8006186:	4291      	cmp	r1, r2
 8006188:	bf28      	it	cs
 800618a:	f04f 0b01 	movcs.w	fp, #1
 800618e:	e7c7      	b.n	8006120 <xTaskIncrementTick+0x84>
 8006190:	4a0d      	ldr	r2, [pc, #52]	@ (80061c8 <xTaskIncrementTick+0x12c>)
 8006192:	f04f 0b00 	mov.w	fp, #0
 8006196:	6813      	ldr	r3, [r2, #0]
 8006198:	3301      	adds	r3, #1
 800619a:	6013      	str	r3, [r2, #0]
 800619c:	e7b8      	b.n	8006110 <xTaskIncrementTick+0x74>
 800619e:	bf00      	nop
 80061a0:	20000ce4 	.word	0x20000ce4
 80061a4:	20000d04 	.word	0x20000d04
 80061a8:	20000d50 	.word	0x20000d50
 80061ac:	20000d4c 	.word	0x20000d4c
 80061b0:	20000cf0 	.word	0x20000cf0
 80061b4:	20000ce8 	.word	0x20000ce8
 80061b8:	20000d7c 	.word	0x20000d7c
 80061bc:	200011dc 	.word	0x200011dc
 80061c0:	20000cf4 	.word	0x20000cf4
 80061c4:	20000d00 	.word	0x20000d00
 80061c8:	20000cf8 	.word	0x20000cf8

080061cc <xTaskResumeAll>:
 80061cc:	e92d 41f0 	stmdb	sp!, {r4, r5, r6, r7, r8, lr}
 80061d0:	4c30      	ldr	r4, [pc, #192]	@ (8006294 <xTaskResumeAll+0xc8>)
 80061d2:	6823      	ldr	r3, [r4, #0]
 80061d4:	b943      	cbnz	r3, 80061e8 <xTaskResumeAll+0x1c>
 80061d6:	f04f 0350 	mov.w	r3, #80	@ 0x50
 80061da:	f383 8811 	msr	BASEPRI, r3
 80061de:	f3bf 8f6f 	isb	sy
 80061e2:	f3bf 8f4f 	dsb	sy
 80061e6:	e7fe      	b.n	80061e6 <xTaskResumeAll+0x1a>
 80061e8:	f000 fd04 	bl	8006bf4 <vPortEnterCritical>
 80061ec:	6823      	ldr	r3, [r4, #0]
 80061ee:	3b01      	subs	r3, #1
 80061f0:	6023      	str	r3, [r4, #0]
 80061f2:	6824      	ldr	r4, [r4, #0]
 80061f4:	b12c      	cbz	r4, 8006202 <xTaskResumeAll+0x36>
 80061f6:	2400      	movs	r4, #0
 80061f8:	f000 fd1c 	bl	8006c34 <vPortExitCritical>
 80061fc:	4620      	mov	r0, r4
 80061fe:	e8bd 81f0 	ldmia.w	sp!, {r4, r5, r6, r7, r8, pc}
 8006202:	4b25      	ldr	r3, [pc, #148]	@ (8006298 <xTaskResumeAll+0xcc>)
 8006204:	681b      	ldr	r3, [r3, #0]
 8006206:	2b00      	cmp	r3, #0
 8006208:	d0f5      	beq.n	80061f6 <xTaskResumeAll+0x2a>
 800620a:	4d24      	ldr	r5, [pc, #144]	@ (800629c <xTaskResumeAll+0xd0>)
 800620c:	4e24      	ldr	r6, [pc, #144]	@ (80062a0 <xTaskResumeAll+0xd4>)
 800620e:	f8df 8094 	ldr.w	r8, [pc, #148]	@ 80062a4 <xTaskResumeAll+0xd8>
 8006212:	e01d      	b.n	8006250 <xTaskResumeAll+0x84>
 8006214:	68eb      	ldr	r3, [r5, #12]
 8006216:	68dc      	ldr	r4, [r3, #12]
 8006218:	1d27      	adds	r7, r4, #4
 800621a:	f104 0018 	add.w	r0, r4, #24
 800621e:	f7ff f8e1 	bl	80053e4 <uxListRemove>
 8006222:	4638      	mov	r0, r7
 8006224:	f7ff f8de 	bl	80053e4 <uxListRemove>
 8006228:	2014      	movs	r0, #20
 800622a:	6ae3      	ldr	r3, [r4, #44]	@ 0x2c
 800622c:	6832      	ldr	r2, [r6, #0]
 800622e:	fb00 8003 	mla	r0, r0, r3, r8
 8006232:	4293      	cmp	r3, r2
 8006234:	4639      	mov	r1, r7
 8006236:	bf88      	it	hi
 8006238:	6033      	strhi	r3, [r6, #0]
 800623a:	f7ff f8b1 	bl	80053a0 <vListInsertEnd>
 800623e:	4b1a      	ldr	r3, [pc, #104]	@ (80062a8 <xTaskResumeAll+0xdc>)
 8006240:	6ae2      	ldr	r2, [r4, #44]	@ 0x2c
 8006242:	681b      	ldr	r3, [r3, #0]
 8006244:	6adb      	ldr	r3, [r3, #44]	@ 0x2c
 8006246:	429a      	cmp	r2, r3
 8006248:	d302      	bcc.n	8006250 <xTaskResumeAll+0x84>
 800624a:	2201      	movs	r2, #1
 800624c:	4b17      	ldr	r3, [pc, #92]	@ (80062ac <xTaskResumeAll+0xe0>)
 800624e:	601a      	str	r2, [r3, #0]
 8006250:	682b      	ldr	r3, [r5, #0]
 8006252:	2b00      	cmp	r3, #0
 8006254:	d1de      	bne.n	8006214 <xTaskResumeAll+0x48>
 8006256:	b10c      	cbz	r4, 800625c <xTaskResumeAll+0x90>
 8006258:	f7ff fdb4 	bl	8005dc4 <prvResetNextTaskUnblockTime>
 800625c:	4d14      	ldr	r5, [pc, #80]	@ (80062b0 <xTaskResumeAll+0xe4>)
 800625e:	682c      	ldr	r4, [r5, #0]
 8006260:	b144      	cbz	r4, 8006274 <xTaskResumeAll+0xa8>
 8006262:	2701      	movs	r7, #1
 8006264:	4e11      	ldr	r6, [pc, #68]	@ (80062ac <xTaskResumeAll+0xe0>)
 8006266:	f7ff ff19 	bl	800609c <xTaskIncrementTick>
 800626a:	b100      	cbz	r0, 800626e <xTaskResumeAll+0xa2>
 800626c:	6037      	str	r7, [r6, #0]
 800626e:	3c01      	subs	r4, #1
 8006270:	d1f9      	bne.n	8006266 <xTaskResumeAll+0x9a>
 8006272:	602c      	str	r4, [r5, #0]
 8006274:	4b0d      	ldr	r3, [pc, #52]	@ (80062ac <xTaskResumeAll+0xe0>)
 8006276:	681b      	ldr	r3, [r3, #0]
 8006278:	2b00      	cmp	r3, #0
 800627a:	d0bc      	beq.n	80061f6 <xTaskResumeAll+0x2a>
 800627c:	f04f 23e0 	mov.w	r3, #3758153728	@ 0xe000e000
 8006280:	f04f 5280 	mov.w	r2, #268435456	@ 0x10000000
 8006284:	f8c3 2d04 	str.w	r2, [r3, #3332]	@ 0xd04
 8006288:	f3bf 8f4f 	dsb	sy
 800628c:	f3bf 8f6f 	isb	sy
 8006290:	2401      	movs	r4, #1
 8006292:	e7b1      	b.n	80061f8 <xTaskResumeAll+0x2c>
 8006294:	20000ce4 	.word	0x20000ce4
 8006298:	20000d08 	.word	0x20000d08
 800629c:	20000d38 	.word	0x20000d38
 80062a0:	20000d00 	.word	0x20000d00
 80062a4:	20000d7c 	.word	0x20000d7c
 80062a8:	200011dc 	.word	0x200011dc
 80062ac:	20000cf4 	.word	0x20000cf4
 80062b0:	20000cf8 	.word	0x20000cf8

080062b4 <vTaskDelayUntil>:
 80062b4:	b510      	push	{r4, lr}
 80062b6:	b940      	cbnz	r0, 80062ca <vTaskDelayUntil+0x16>
 80062b8:	f04f 0350 	mov.w	r3, #80	@ 0x50
 80062bc:	f383 8811 	msr	BASEPRI, r3
 80062c0:	f3bf 8f6f 	isb	sy
 80062c4:	f3bf 8f4f 	dsb	sy
 80062c8:	e7fe      	b.n	80062c8 <vTaskDelayUntil+0x14>
 80062ca:	b941      	cbnz	r1, 80062de <vTaskDelayUntil+0x2a>
 80062cc:	f04f 0350 	mov.w	r3, #80	@ 0x50
 80062d0:	f383 8811 	msr	BASEPRI, r3
 80062d4:	f3bf 8f6f 	isb	sy
 80062d8:	f3bf 8f4f 	dsb	sy
 80062dc:	e7fe      	b.n	80062dc <vTaskDelayUntil+0x28>
 80062de:	4b18      	ldr	r3, [pc, #96]	@ (8006340 <vTaskDelayUntil+0x8c>)
 80062e0:	681b      	ldr	r3, [r3, #0]
 80062e2:	b143      	cbz	r3, 80062f6 <vTaskDelayUntil+0x42>
 80062e4:	f04f 0350 	mov.w	r3, #80	@ 0x50
 80062e8:	f383 8811 	msr	BASEPRI, r3
 80062ec:	f3bf 8f6f 	isb	sy
 80062f0:	f3bf 8f4f 	dsb	sy
 80062f4:	e7fe      	b.n	80062f4 <vTaskDelayUntil+0x40>
 80062f6:	f7ff febb 	bl	8006070 <vTaskSuspendAll>
 80062fa:	4b12      	ldr	r3, [pc, #72]	@ (8006344 <vTaskDelayUntil+0x90>)
 80062fc:	6804      	ldr	r4, [r0, #0]
 80062fe:	681a      	ldr	r2, [r3, #0]
 8006300:	1863      	adds	r3, r4, r1
 8006302:	bf2c      	ite	cs
 8006304:	2101      	movcs	r1, #1
 8006306:	2100      	movcc	r1, #0
 8006308:	4294      	cmp	r4, r2
 800630a:	d90f      	bls.n	800632c <vTaskDelayUntil+0x78>
 800630c:	b979      	cbnz	r1, 800632e <vTaskDelayUntil+0x7a>
 800630e:	6003      	str	r3, [r0, #0]
 8006310:	f7ff ff5c 	bl	80061cc <xTaskResumeAll>
 8006314:	b948      	cbnz	r0, 800632a <vTaskDelayUntil+0x76>
 8006316:	f04f 23e0 	mov.w	r3, #3758153728	@ 0xe000e000
 800631a:	f04f 5280 	mov.w	r2, #268435456	@ 0x10000000
 800631e:	f8c3 2d04 	str.w	r2, [r3, #3332]	@ 0xd04
 8006322:	f3bf 8f4f 	dsb	sy
 8006326:	f3bf 8f6f 	isb	sy
 800632a:	bd10      	pop	{r4, pc}
 800632c:	b909      	cbnz	r1, 8006332 <vTaskDelayUntil+0x7e>
 800632e:	429a      	cmp	r2, r3
 8006330:	d2ed      	bcs.n	800630e <vTaskDelayUntil+0x5a>
 8006332:	6003      	str	r3, [r0, #0]
 8006334:	2100      	movs	r1, #0
 8006336:	1a98      	subs	r0, r3, r2
 8006338:	f7ff fd0c 	bl	8005d54 <prvAddCurrentTaskToDelayedList>
 800633c:	e7e8      	b.n	8006310 <vTaskDelayUntil+0x5c>
 800633e:	bf00      	nop
 8006340:	20000ce4 	.word	0x20000ce4
 8006344:	20000d04 	.word	0x20000d04

08006348 <vTaskDelay>:
 8006348:	b508      	push	{r3, lr}
 800634a:	b950      	cbnz	r0, 8006362 <vTaskDelay+0x1a>
 800634c:	f04f 23e0 	mov.w	r3, #3758153728	@ 0xe000e000
 8006350:	f04f 5280 	mov.w	r2, #268435456	@ 0x10000000
 8006354:	f8c3 2d04 	str.w	r2, [r3, #3332]	@ 0xd04
 8006358:	f3bf 8f4f 	dsb	sy
 800635c:	f3bf 8f6f 	isb	sy
 8006360:	bd08      	pop	{r3, pc}
 8006362:	4b0a      	ldr	r3, [pc, #40]	@ (800638c <vTaskDelay+0x44>)
 8006364:	6819      	ldr	r1, [r3, #0]
 8006366:	b141      	cbz	r1, 800637a <vTaskDelay+0x32>
 8006368:	f04f 0350 	mov.w	r3, #80	@ 0x50
 800636c:	f383 8811 	msr	BASEPRI, r3
 8006370:	f3bf 8f6f 	isb	sy
 8006374:	f3bf 8f4f 	dsb	sy
 8006378:	e7fe      	b.n	8006378 <vTaskDelay+0x30>
 800637a:	f7ff fe79 	bl	8006070 <vTaskSuspendAll>
 800637e:	f7ff fce9 	bl	8005d54 <prvAddCurrentTaskToDelayedList>
 8006382:	f7ff ff23 	bl	80061cc <xTaskResumeAll>
 8006386:	2800      	cmp	r0, #0
 8006388:	d0e0      	beq.n	800634c <vTaskDelay+0x4>
 800638a:	e7e9      	b.n	8006360 <vTaskDelay+0x18>
 800638c:	20000ce4 	.word	0x20000ce4

08006390 <vTaskSwitchContext>:
 8006390:	4b18      	ldr	r3, [pc, #96]	@ (80063f4 <vTaskSwitchContext+0x64>)
 8006392:	b570      	push	{r4, r5, r6, lr}
 8006394:	681a      	ldr	r2, [r3, #0]
 8006396:	4b18      	ldr	r3, [pc, #96]	@ (80063f8 <vTaskSwitchContext+0x68>)
 8006398:	b112      	cbz	r2, 80063a0 <vTaskSwitchContext+0x10>
 800639a:	2201      	movs	r2, #1
 800639c:	601a      	str	r2, [r3, #0]
 800639e:	bd70      	pop	{r4, r5, r6, pc}
 80063a0:	2614      	movs	r6, #20
 80063a2:	4d16      	ldr	r5, [pc, #88]	@ (80063fc <vTaskSwitchContext+0x6c>)
 80063a4:	601a      	str	r2, [r3, #0]
 80063a6:	682a      	ldr	r2, [r5, #0]
 80063a8:	4915      	ldr	r1, [pc, #84]	@ (8006400 <vTaskSwitchContext+0x70>)
 80063aa:	fb06 f302 	mul.w	r3, r6, r2
 80063ae:	58cc      	ldr	r4, [r1, r3]
 80063b0:	18c8      	adds	r0, r1, r3
 80063b2:	b194      	cbz	r4, 80063da <vTaskSwitchContext+0x4a>
 80063b4:	6844      	ldr	r4, [r0, #4]
 80063b6:	3308      	adds	r3, #8
 80063b8:	6864      	ldr	r4, [r4, #4]
 80063ba:	440b      	add	r3, r1
 80063bc:	429c      	cmp	r4, r3
 80063be:	bf08      	it	eq
 80063c0:	6863      	ldreq	r3, [r4, #4]
 80063c2:	6044      	str	r4, [r0, #4]
 80063c4:	bf08      	it	eq
 80063c6:	6043      	streq	r3, [r0, #4]
 80063c8:	2314      	movs	r3, #20
 80063ca:	fb03 1102 	mla	r1, r3, r2, r1
 80063ce:	684b      	ldr	r3, [r1, #4]
 80063d0:	68d9      	ldr	r1, [r3, #12]
 80063d2:	4b0c      	ldr	r3, [pc, #48]	@ (8006404 <vTaskSwitchContext+0x74>)
 80063d4:	6019      	str	r1, [r3, #0]
 80063d6:	602a      	str	r2, [r5, #0]
 80063d8:	e7e1      	b.n	800639e <vTaskSwitchContext+0xe>
 80063da:	b942      	cbnz	r2, 80063ee <vTaskSwitchContext+0x5e>
 80063dc:	f04f 0350 	mov.w	r3, #80	@ 0x50
 80063e0:	f383 8811 	msr	BASEPRI, r3
 80063e4:	f3bf 8f6f 	isb	sy
 80063e8:	f3bf 8f4f 	dsb	sy
 80063ec:	e7fe      	b.n	80063ec <vTaskSwitchContext+0x5c>
 80063ee:	3a01      	subs	r2, #1
 80063f0:	e7db      	b.n	80063aa <vTaskSwitchContext+0x1a>
 80063f2:	bf00      	nop
 80063f4:	20000ce4 	.word	0x20000ce4
 80063f8:	20000cf4 	.word	0x20000cf4
 80063fc:	20000d00 	.word	0x20000d00
 8006400:	20000d7c 	.word	0x20000d7c
 8006404:	200011dc 	.word	0x200011dc

08006408 <vTaskPlaceOnEventList>:
 8006408:	b510      	push	{r4, lr}
 800640a:	460c      	mov	r4, r1
 800640c:	b940      	cbnz	r0, 8006420 <vTaskPlaceOnEventList+0x18>
 800640e:	f04f 0350 	mov.w	r3, #80	@ 0x50
 8006412:	f383 8811 	msr	BASEPRI, r3
 8006416:	f3bf 8f6f 	isb	sy
 800641a:	f3bf 8f4f 	dsb	sy
 800641e:	e7fe      	b.n	800641e <vTaskPlaceOnEventList+0x16>
 8006420:	4b05      	ldr	r3, [pc, #20]	@ (8006438 <vTaskPlaceOnEventList+0x30>)
 8006422:	6819      	ldr	r1, [r3, #0]
 8006424:	3118      	adds	r1, #24
 8006426:	f7fe ffc6 	bl	80053b6 <vListInsert>
 800642a:	4620      	mov	r0, r4
 800642c:	e8bd 4010 	ldmia.w	sp!, {r4, lr}
 8006430:	2101      	movs	r1, #1
 8006432:	f7ff bc8f 	b.w	8005d54 <prvAddCurrentTaskToDelayedList>
 8006436:	bf00      	nop
 8006438:	200011dc 	.word	0x200011dc

0800643c <vTaskPlaceOnEventListRestricted>:
 800643c:	b538      	push	{r3, r4, r5, lr}
 800643e:	460d      	mov	r5, r1
 8006440:	4614      	mov	r4, r2
 8006442:	b940      	cbnz	r0, 8006456 <vTaskPlaceOnEventListRestricted+0x1a>
 8006444:	f04f 0350 	mov.w	r3, #80	@ 0x50
 8006448:	f383 8811 	msr	BASEPRI, r3
 800644c:	f3bf 8f6f 	isb	sy
 8006450:	f3bf 8f4f 	dsb	sy
 8006454:	e7fe      	b.n	8006454 <vTaskPlaceOnEventListRestricted+0x18>
 8006456:	4b08      	ldr	r3, [pc, #32]	@ (8006478 <vTaskPlaceOnEventListRestricted+0x3c>)
 8006458:	6819      	ldr	r1, [r3, #0]
 800645a:	3118      	adds	r1, #24
 800645c:	f7fe ffa0 	bl	80053a0 <vListInsertEnd>
 8006460:	2c00      	cmp	r4, #0
 8006462:	4621      	mov	r1, r4
 8006464:	bf08      	it	eq
 8006466:	4628      	moveq	r0, r5
 8006468:	e8bd 4038 	ldmia.w	sp!, {r3, r4, r5, lr}
 800646c:	bf18      	it	ne
 800646e:	f04f 30ff 	movne.w	r0, #4294967295
 8006472:	f7ff bc6f 	b.w	8005d54 <prvAddCurrentTaskToDelayedList>
 8006476:	bf00      	nop
 8006478:	200011dc 	.word	0x200011dc

0800647c <xTaskRemoveFromEventList>:
 800647c:	b538      	push	{r3, r4, r5, lr}
 800647e:	68c3      	ldr	r3, [r0, #12]
 8006480:	68dc      	ldr	r4, [r3, #12]
 8006482:	b944      	cbnz	r4, 8006496 <xTaskRemoveFromEventList+0x1a>
 8006484:	f04f 0350 	mov.w	r3, #80	@ 0x50
 8006488:	f383 8811 	msr	BASEPRI, r3
 800648c:	f3bf 8f6f 	isb	sy
 8006490:	f3bf 8f4f 	dsb	sy
 8006494:	e7fe      	b.n	8006494 <xTaskRemoveFromEventList+0x18>
 8006496:	f104 0518 	add.w	r5, r4, #24
 800649a:	4628      	mov	r0, r5
 800649c:	f7fe ffa2 	bl	80053e4 <uxListRemove>
 80064a0:	4b10      	ldr	r3, [pc, #64]	@ (80064e4 <xTaskRemoveFromEventList+0x68>)
 80064a2:	681b      	ldr	r3, [r3, #0]
 80064a4:	b9db      	cbnz	r3, 80064de <xTaskRemoveFromEventList+0x62>
 80064a6:	1d25      	adds	r5, r4, #4
 80064a8:	4628      	mov	r0, r5
 80064aa:	f7fe ff9b 	bl	80053e4 <uxListRemove>
 80064ae:	4a0e      	ldr	r2, [pc, #56]	@ (80064e8 <xTaskRemoveFromEventList+0x6c>)
 80064b0:	2014      	movs	r0, #20
 80064b2:	6811      	ldr	r1, [r2, #0]
 80064b4:	6ae3      	ldr	r3, [r4, #44]	@ 0x2c
 80064b6:	428b      	cmp	r3, r1
 80064b8:	4629      	mov	r1, r5
 80064ba:	bf88      	it	hi
 80064bc:	6013      	strhi	r3, [r2, #0]
 80064be:	4a0b      	ldr	r2, [pc, #44]	@ (80064ec <xTaskRemoveFromEventList+0x70>)
 80064c0:	fb00 2003 	mla	r0, r0, r3, r2
 80064c4:	f7fe ff6c 	bl	80053a0 <vListInsertEnd>
 80064c8:	4b09      	ldr	r3, [pc, #36]	@ (80064f0 <xTaskRemoveFromEventList+0x74>)
 80064ca:	6ae2      	ldr	r2, [r4, #44]	@ 0x2c
 80064cc:	681b      	ldr	r3, [r3, #0]
 80064ce:	6adb      	ldr	r3, [r3, #44]	@ 0x2c
 80064d0:	429a      	cmp	r2, r3
 80064d2:	bf85      	ittet	hi
 80064d4:	2001      	movhi	r0, #1
 80064d6:	4b07      	ldrhi	r3, [pc, #28]	@ (80064f4 <xTaskRemoveFromEventList+0x78>)
 80064d8:	2000      	movls	r0, #0
 80064da:	6018      	strhi	r0, [r3, #0]
 80064dc:	bd38      	pop	{r3, r4, r5, pc}
 80064de:	4629      	mov	r1, r5
 80064e0:	4805      	ldr	r0, [pc, #20]	@ (80064f8 <xTaskRemoveFromEventList+0x7c>)
 80064e2:	e7ef      	b.n	80064c4 <xTaskRemoveFromEventList+0x48>
 80064e4:	20000ce4 	.word	0x20000ce4
 80064e8:	20000d00 	.word	0x20000d00
 80064ec:	20000d7c 	.word	0x20000d7c
 80064f0:	200011dc 	.word	0x200011dc
 80064f4:	20000cf4 	.word	0x20000cf4
 80064f8:	20000d38 	.word	0x20000d38

080064fc <vTaskInternalSetTimeOutState>:
 80064fc:	4b03      	ldr	r3, [pc, #12]	@ (800650c <vTaskInternalSetTimeOutState+0x10>)
 80064fe:	681b      	ldr	r3, [r3, #0]
 8006500:	6003      	str	r3, [r0, #0]
 8006502:	4b03      	ldr	r3, [pc, #12]	@ (8006510 <vTaskInternalSetTimeOutState+0x14>)
 8006504:	681b      	ldr	r3, [r3, #0]
 8006506:	6043      	str	r3, [r0, #4]
 8006508:	4770      	bx	lr
 800650a:	bf00      	nop
 800650c:	20000cf0 	.word	0x20000cf0
 8006510:	20000d04 	.word	0x20000d04

08006514 <xTaskCheckForTimeOut>:
 8006514:	b570      	push	{r4, r5, r6, lr}
 8006516:	460c      	mov	r4, r1
 8006518:	4605      	mov	r5, r0
 800651a:	b940      	cbnz	r0, 800652e <xTaskCheckForTimeOut+0x1a>
 800651c:	f04f 0350 	mov.w	r3, #80	@ 0x50
 8006520:	f383 8811 	msr	BASEPRI, r3
 8006524:	f3bf 8f6f 	isb	sy
 8006528:	f3bf 8f4f 	dsb	sy
 800652c:	e7fe      	b.n	800652c <xTaskCheckForTimeOut+0x18>
 800652e:	b941      	cbnz	r1, 8006542 <xTaskCheckForTimeOut+0x2e>
 8006530:	f04f 0350 	mov.w	r3, #80	@ 0x50
 8006534:	f383 8811 	msr	BASEPRI, r3
 8006538:	f3bf 8f6f 	isb	sy
 800653c:	f3bf 8f4f 	dsb	sy
 8006540:	e7fe      	b.n	8006540 <xTaskCheckForTimeOut+0x2c>
 8006542:	f000 fb57 	bl	8006bf4 <vPortEnterCritical>
 8006546:	4b0f      	ldr	r3, [pc, #60]	@ (8006584 <xTaskCheckForTimeOut+0x70>)
 8006548:	6819      	ldr	r1, [r3, #0]
 800654a:	6823      	ldr	r3, [r4, #0]
 800654c:	1c5a      	adds	r2, r3, #1
 800654e:	d010      	beq.n	8006572 <xTaskCheckForTimeOut+0x5e>
 8006550:	480d      	ldr	r0, [pc, #52]	@ (8006588 <xTaskCheckForTimeOut+0x74>)
 8006552:	682e      	ldr	r6, [r5, #0]
 8006554:	6800      	ldr	r0, [r0, #0]
 8006556:	686a      	ldr	r2, [r5, #4]
 8006558:	4286      	cmp	r6, r0
 800655a:	d001      	beq.n	8006560 <xTaskCheckForTimeOut+0x4c>
 800655c:	428a      	cmp	r2, r1
 800655e:	d90f      	bls.n	8006580 <xTaskCheckForTimeOut+0x6c>
 8006560:	1a88      	subs	r0, r1, r2
 8006562:	4283      	cmp	r3, r0
 8006564:	d90a      	bls.n	800657c <xTaskCheckForTimeOut+0x68>
 8006566:	1a5b      	subs	r3, r3, r1
 8006568:	4413      	add	r3, r2
 800656a:	4628      	mov	r0, r5
 800656c:	6023      	str	r3, [r4, #0]
 800656e:	f7ff ffc5 	bl	80064fc <vTaskInternalSetTimeOutState>
 8006572:	2400      	movs	r4, #0
 8006574:	f000 fb5e 	bl	8006c34 <vPortExitCritical>
 8006578:	4620      	mov	r0, r4
 800657a:	bd70      	pop	{r4, r5, r6, pc}
 800657c:	2300      	movs	r3, #0
 800657e:	6023      	str	r3, [r4, #0]
 8006580:	2401      	movs	r4, #1
 8006582:	e7f7      	b.n	8006574 <xTaskCheckForTimeOut+0x60>
 8006584:	20000d04 	.word	0x20000d04
 8006588:	20000cf0 	.word	0x20000cf0

0800658c <vTaskMissedYield>:
 800658c:	2201      	movs	r2, #1
 800658e:	4b01      	ldr	r3, [pc, #4]	@ (8006594 <vTaskMissedYield+0x8>)
 8006590:	601a      	str	r2, [r3, #0]
 8006592:	4770      	bx	lr
 8006594:	20000cf4 	.word	0x20000cf4

08006598 <xTaskGetCurrentTaskHandle>:
 8006598:	4b01      	ldr	r3, [pc, #4]	@ (80065a0 <xTaskGetCurrentTaskHandle+0x8>)
 800659a:	6818      	ldr	r0, [r3, #0]
 800659c:	4770      	bx	lr
 800659e:	bf00      	nop
 80065a0:	200011dc 	.word	0x200011dc

080065a4 <xTaskGetSchedulerState>:
 80065a4:	4b05      	ldr	r3, [pc, #20]	@ (80065bc <xTaskGetSchedulerState+0x18>)
 80065a6:	681b      	ldr	r3, [r3, #0]
 80065a8:	b133      	cbz	r3, 80065b8 <xTaskGetSchedulerState+0x14>
 80065aa:	4b05      	ldr	r3, [pc, #20]	@ (80065c0 <xTaskGetSchedulerState+0x1c>)
 80065ac:	6818      	ldr	r0, [r3, #0]
 80065ae:	fab0 f080 	clz	r0, r0
 80065b2:	0940      	lsrs	r0, r0, #5
 80065b4:	0040      	lsls	r0, r0, #1
 80065b6:	4770      	bx	lr
 80065b8:	2001      	movs	r0, #1
 80065ba:	4770      	bx	lr
 80065bc:	20000cfc 	.word	0x20000cfc
 80065c0:	20000ce4 	.word	0x20000ce4

080065c4 <xTaskPriorityInherit>:
 80065c4:	b5f8      	push	{r3, r4, r5, r6, r7, lr}
 80065c6:	4604      	mov	r4, r0
 80065c8:	b338      	cbz	r0, 800661a <xTaskPriorityInherit+0x56>
 80065ca:	4d1a      	ldr	r5, [pc, #104]	@ (8006634 <xTaskPriorityInherit+0x70>)
 80065cc:	6ac3      	ldr	r3, [r0, #44]	@ 0x2c
 80065ce:	682a      	ldr	r2, [r5, #0]
 80065d0:	6ad2      	ldr	r2, [r2, #44]	@ 0x2c
 80065d2:	4293      	cmp	r3, r2
 80065d4:	d226      	bcs.n	8006624 <xTaskPriorityInherit+0x60>
 80065d6:	6982      	ldr	r2, [r0, #24]
 80065d8:	4e17      	ldr	r6, [pc, #92]	@ (8006638 <xTaskPriorityInherit+0x74>)
 80065da:	2a00      	cmp	r2, #0
 80065dc:	bfa1      	itttt	ge
 80065de:	682a      	ldrge	r2, [r5, #0]
 80065e0:	6ad2      	ldrge	r2, [r2, #44]	@ 0x2c
 80065e2:	f1c2 0238 	rsbge	r2, r2, #56	@ 0x38
 80065e6:	6182      	strge	r2, [r0, #24]
 80065e8:	2214      	movs	r2, #20
 80065ea:	fb02 6303 	mla	r3, r2, r3, r6
 80065ee:	6942      	ldr	r2, [r0, #20]
 80065f0:	429a      	cmp	r2, r3
 80065f2:	d113      	bne.n	800661c <xTaskPriorityInherit+0x58>
 80065f4:	1d07      	adds	r7, r0, #4
 80065f6:	4638      	mov	r0, r7
 80065f8:	f7fe fef4 	bl	80053e4 <uxListRemove>
 80065fc:	2014      	movs	r0, #20
 80065fe:	682b      	ldr	r3, [r5, #0]
 8006600:	4a0e      	ldr	r2, [pc, #56]	@ (800663c <xTaskPriorityInherit+0x78>)
 8006602:	6adb      	ldr	r3, [r3, #44]	@ 0x2c
 8006604:	6811      	ldr	r1, [r2, #0]
 8006606:	fb00 6003 	mla	r0, r0, r3, r6
 800660a:	428b      	cmp	r3, r1
 800660c:	62e3      	str	r3, [r4, #44]	@ 0x2c
 800660e:	4639      	mov	r1, r7
 8006610:	bf88      	it	hi
 8006612:	6013      	strhi	r3, [r2, #0]
 8006614:	f7fe fec4 	bl	80053a0 <vListInsertEnd>
 8006618:	2001      	movs	r0, #1
 800661a:	bdf8      	pop	{r3, r4, r5, r6, r7, pc}
 800661c:	682b      	ldr	r3, [r5, #0]
 800661e:	6adb      	ldr	r3, [r3, #44]	@ 0x2c
 8006620:	62c3      	str	r3, [r0, #44]	@ 0x2c
 8006622:	e7f9      	b.n	8006618 <xTaskPriorityInherit+0x54>
 8006624:	682b      	ldr	r3, [r5, #0]
 8006626:	6cc0      	ldr	r0, [r0, #76]	@ 0x4c
 8006628:	6adb      	ldr	r3, [r3, #44]	@ 0x2c
 800662a:	4298      	cmp	r0, r3
 800662c:	bf2c      	ite	cs
 800662e:	2000      	movcs	r0, #0
 8006630:	2001      	movcc	r0, #1
 8006632:	e7f2      	b.n	800661a <xTaskPriorityInherit+0x56>
 8006634:	200011dc 	.word	0x200011dc
 8006638:	20000d7c 	.word	0x20000d7c
 800663c:	20000d00 	.word	0x20000d00

08006640 <xTaskPriorityDisinherit>:
 8006640:	b538      	push	{r3, r4, r5, lr}
 8006642:	b908      	cbnz	r0, 8006648 <xTaskPriorityDisinherit+0x8>
 8006644:	2000      	movs	r0, #0
 8006646:	bd38      	pop	{r3, r4, r5, pc}
 8006648:	4b1b      	ldr	r3, [pc, #108]	@ (80066b8 <xTaskPriorityDisinherit+0x78>)
 800664a:	681c      	ldr	r4, [r3, #0]
 800664c:	4284      	cmp	r4, r0
 800664e:	d008      	beq.n	8006662 <xTaskPriorityDisinherit+0x22>
 8006650:	f04f 0350 	mov.w	r3, #80	@ 0x50
 8006654:	f383 8811 	msr	BASEPRI, r3
 8006658:	f3bf 8f6f 	isb	sy
 800665c:	f3bf 8f4f 	dsb	sy
 8006660:	e7fe      	b.n	8006660 <xTaskPriorityDisinherit+0x20>
 8006662:	6d23      	ldr	r3, [r4, #80]	@ 0x50
 8006664:	b943      	cbnz	r3, 8006678 <xTaskPriorityDisinherit+0x38>
 8006666:	f04f 0350 	mov.w	r3, #80	@ 0x50
 800666a:	f383 8811 	msr	BASEPRI, r3
 800666e:	f3bf 8f6f 	isb	sy
 8006672:	f3bf 8f4f 	dsb	sy
 8006676:	e7fe      	b.n	8006676 <xTaskPriorityDisinherit+0x36>
 8006678:	6ae1      	ldr	r1, [r4, #44]	@ 0x2c
 800667a:	6ce2      	ldr	r2, [r4, #76]	@ 0x4c
 800667c:	3b01      	subs	r3, #1
 800667e:	4291      	cmp	r1, r2
 8006680:	6523      	str	r3, [r4, #80]	@ 0x50
 8006682:	d0df      	beq.n	8006644 <xTaskPriorityDisinherit+0x4>
 8006684:	2b00      	cmp	r3, #0
 8006686:	d1dd      	bne.n	8006644 <xTaskPriorityDisinherit+0x4>
 8006688:	1d25      	adds	r5, r4, #4
 800668a:	4628      	mov	r0, r5
 800668c:	f7fe feaa 	bl	80053e4 <uxListRemove>
 8006690:	2014      	movs	r0, #20
 8006692:	6ce3      	ldr	r3, [r4, #76]	@ 0x4c
 8006694:	f1c3 0238 	rsb	r2, r3, #56	@ 0x38
 8006698:	61a2      	str	r2, [r4, #24]
 800669a:	4a08      	ldr	r2, [pc, #32]	@ (80066bc <xTaskPriorityDisinherit+0x7c>)
 800669c:	62e3      	str	r3, [r4, #44]	@ 0x2c
 800669e:	6811      	ldr	r1, [r2, #0]
 80066a0:	428b      	cmp	r3, r1
 80066a2:	bf88      	it	hi
 80066a4:	6013      	strhi	r3, [r2, #0]
 80066a6:	4a06      	ldr	r2, [pc, #24]	@ (80066c0 <xTaskPriorityDisinherit+0x80>)
 80066a8:	4629      	mov	r1, r5
 80066aa:	fb00 2003 	mla	r0, r0, r3, r2
 80066ae:	f7fe fe77 	bl	80053a0 <vListInsertEnd>
 80066b2:	2001      	movs	r0, #1
 80066b4:	e7c7      	b.n	8006646 <xTaskPriorityDisinherit+0x6>
 80066b6:	bf00      	nop
 80066b8:	200011dc 	.word	0x200011dc
 80066bc:	20000d00 	.word	0x20000d00
 80066c0:	20000d7c 	.word	0x20000d7c

080066c4 <vTaskPriorityDisinheritAfterTimeout>:
 80066c4:	b570      	push	{r4, r5, r6, lr}
 80066c6:	4604      	mov	r4, r0
 80066c8:	2800      	cmp	r0, #0
 80066ca:	d041      	beq.n	8006750 <vTaskPriorityDisinheritAfterTimeout+0x8c>
 80066cc:	6d02      	ldr	r2, [r0, #80]	@ 0x50
 80066ce:	b942      	cbnz	r2, 80066e2 <vTaskPriorityDisinheritAfterTimeout+0x1e>
 80066d0:	f04f 0350 	mov.w	r3, #80	@ 0x50
 80066d4:	f383 8811 	msr	BASEPRI, r3
 80066d8:	f3bf 8f6f 	isb	sy
 80066dc:	f3bf 8f4f 	dsb	sy
 80066e0:	e7fe      	b.n	80066e0 <vTaskPriorityDisinheritAfterTimeout+0x1c>
 80066e2:	6cc3      	ldr	r3, [r0, #76]	@ 0x4c
 80066e4:	4299      	cmp	r1, r3
 80066e6:	bf38      	it	cc
 80066e8:	4619      	movcc	r1, r3
 80066ea:	6ac3      	ldr	r3, [r0, #44]	@ 0x2c
 80066ec:	428b      	cmp	r3, r1
 80066ee:	d02f      	beq.n	8006750 <vTaskPriorityDisinheritAfterTimeout+0x8c>
 80066f0:	2a01      	cmp	r2, #1
 80066f2:	d12d      	bne.n	8006750 <vTaskPriorityDisinheritAfterTimeout+0x8c>
 80066f4:	4a17      	ldr	r2, [pc, #92]	@ (8006754 <vTaskPriorityDisinheritAfterTimeout+0x90>)
 80066f6:	6812      	ldr	r2, [r2, #0]
 80066f8:	4282      	cmp	r2, r0
 80066fa:	d108      	bne.n	800670e <vTaskPriorityDisinheritAfterTimeout+0x4a>
 80066fc:	f04f 0350 	mov.w	r3, #80	@ 0x50
 8006700:	f383 8811 	msr	BASEPRI, r3
 8006704:	f3bf 8f6f 	isb	sy
 8006708:	f3bf 8f4f 	dsb	sy
 800670c:	e7fe      	b.n	800670c <vTaskPriorityDisinheritAfterTimeout+0x48>
 800670e:	6982      	ldr	r2, [r0, #24]
 8006710:	4d11      	ldr	r5, [pc, #68]	@ (8006758 <vTaskPriorityDisinheritAfterTimeout+0x94>)
 8006712:	2a00      	cmp	r2, #0
 8006714:	f04f 0214 	mov.w	r2, #20
 8006718:	fb02 5303 	mla	r3, r2, r3, r5
 800671c:	6942      	ldr	r2, [r0, #20]
 800671e:	62c1      	str	r1, [r0, #44]	@ 0x2c
 8006720:	bfa4      	itt	ge
 8006722:	f1c1 0138 	rsbge	r1, r1, #56	@ 0x38
 8006726:	6181      	strge	r1, [r0, #24]
 8006728:	429a      	cmp	r2, r3
 800672a:	d111      	bne.n	8006750 <vTaskPriorityDisinheritAfterTimeout+0x8c>
 800672c:	1d06      	adds	r6, r0, #4
 800672e:	4630      	mov	r0, r6
 8006730:	f7fe fe58 	bl	80053e4 <uxListRemove>
 8006734:	2014      	movs	r0, #20
 8006736:	4a09      	ldr	r2, [pc, #36]	@ (800675c <vTaskPriorityDisinheritAfterTimeout+0x98>)
 8006738:	6ae3      	ldr	r3, [r4, #44]	@ 0x2c
 800673a:	6811      	ldr	r1, [r2, #0]
 800673c:	fb00 5003 	mla	r0, r0, r3, r5
 8006740:	428b      	cmp	r3, r1
 8006742:	4631      	mov	r1, r6
 8006744:	e8bd 4070 	ldmia.w	sp!, {r4, r5, r6, lr}
 8006748:	bf88      	it	hi
 800674a:	6013      	strhi	r3, [r2, #0]
 800674c:	f7fe be28 	b.w	80053a0 <vListInsertEnd>
 8006750:	bd70      	pop	{r4, r5, r6, pc}
 8006752:	bf00      	nop
 8006754:	200011dc 	.word	0x200011dc
 8006758:	20000d7c 	.word	0x20000d7c
 800675c:	20000d00 	.word	0x20000d00

08006760 <pvTaskIncrementMutexHeldCount>:
 8006760:	4b04      	ldr	r3, [pc, #16]	@ (8006774 <pvTaskIncrementMutexHeldCount+0x14>)
 8006762:	681a      	ldr	r2, [r3, #0]
 8006764:	b11a      	cbz	r2, 800676e <pvTaskIncrementMutexHeldCount+0xe>
 8006766:	6819      	ldr	r1, [r3, #0]
 8006768:	6d0a      	ldr	r2, [r1, #80]	@ 0x50
 800676a:	3201      	adds	r2, #1
 800676c:	650a      	str	r2, [r1, #80]	@ 0x50
 800676e:	6818      	ldr	r0, [r3, #0]
 8006770:	4770      	bx	lr
 8006772:	bf00      	nop
 8006774:	200011dc 	.word	0x200011dc

08006778 <prvInsertTimerInActiveList>:
 8006778:	4291      	cmp	r1, r2
 800677a:	b508      	push	{r3, lr}
 800677c:	6041      	str	r1, [r0, #4]
 800677e:	6100      	str	r0, [r0, #16]
 8006780:	d80a      	bhi.n	8006798 <prvInsertTimerInActiveList+0x20>
 8006782:	1ad2      	subs	r2, r2, r3
 8006784:	6983      	ldr	r3, [r0, #24]
 8006786:	429a      	cmp	r2, r3
 8006788:	d20d      	bcs.n	80067a6 <prvInsertTimerInActiveList+0x2e>
 800678a:	4b08      	ldr	r3, [pc, #32]	@ (80067ac <prvInsertTimerInActiveList+0x34>)
 800678c:	1d01      	adds	r1, r0, #4
 800678e:	6818      	ldr	r0, [r3, #0]
 8006790:	f7fe fe11 	bl	80053b6 <vListInsert>
 8006794:	2000      	movs	r0, #0
 8006796:	bd08      	pop	{r3, pc}
 8006798:	429a      	cmp	r2, r3
 800679a:	d201      	bcs.n	80067a0 <prvInsertTimerInActiveList+0x28>
 800679c:	4299      	cmp	r1, r3
 800679e:	d202      	bcs.n	80067a6 <prvInsertTimerInActiveList+0x2e>
 80067a0:	4b03      	ldr	r3, [pc, #12]	@ (80067b0 <prvInsertTimerInActiveList+0x38>)
 80067a2:	1d01      	adds	r1, r0, #4
 80067a4:	e7f3      	b.n	800678e <prvInsertTimerInActiveList+0x16>
 80067a6:	2001      	movs	r0, #1
 80067a8:	e7f5      	b.n	8006796 <prvInsertTimerInActiveList+0x1e>
 80067aa:	bf00      	nop
 80067ac:	200012dc 	.word	0x200012dc
 80067b0:	200012e0 	.word	0x200012e0

080067b4 <prvCheckForValidListAndQueue>:
 80067b4:	b5f7      	push	{r0, r1, r2, r4, r5, r6, r7, lr}
 80067b6:	4c11      	ldr	r4, [pc, #68]	@ (80067fc <prvCheckForValidListAndQueue+0x48>)
 80067b8:	f000 fa1c 	bl	8006bf4 <vPortEnterCritical>
 80067bc:	6825      	ldr	r5, [r4, #0]
 80067be:	b9bd      	cbnz	r5, 80067f0 <prvCheckForValidListAndQueue+0x3c>
 80067c0:	4f0f      	ldr	r7, [pc, #60]	@ (8006800 <prvCheckForValidListAndQueue+0x4c>)
 80067c2:	4e10      	ldr	r6, [pc, #64]	@ (8006804 <prvCheckForValidListAndQueue+0x50>)
 80067c4:	4638      	mov	r0, r7
 80067c6:	f7fe fddd 	bl	8005384 <vListInitialise>
 80067ca:	4630      	mov	r0, r6
 80067cc:	f7fe fdda 	bl	8005384 <vListInitialise>
 80067d0:	4b0d      	ldr	r3, [pc, #52]	@ (8006808 <prvCheckForValidListAndQueue+0x54>)
 80067d2:	2110      	movs	r1, #16
 80067d4:	601f      	str	r7, [r3, #0]
 80067d6:	4b0d      	ldr	r3, [pc, #52]	@ (800680c <prvCheckForValidListAndQueue+0x58>)
 80067d8:	200a      	movs	r0, #10
 80067da:	601e      	str	r6, [r3, #0]
 80067dc:	4a0c      	ldr	r2, [pc, #48]	@ (8006810 <prvCheckForValidListAndQueue+0x5c>)
 80067de:	4b0d      	ldr	r3, [pc, #52]	@ (8006814 <prvCheckForValidListAndQueue+0x60>)
 80067e0:	9500      	str	r5, [sp, #0]
 80067e2:	f7fe fed6 	bl	8005592 <xQueueGenericCreateStatic>
 80067e6:	6020      	str	r0, [r4, #0]
 80067e8:	b110      	cbz	r0, 80067f0 <prvCheckForValidListAndQueue+0x3c>
 80067ea:	490b      	ldr	r1, [pc, #44]	@ (8006818 <prvCheckForValidListAndQueue+0x64>)
 80067ec:	f7ff f9fc 	bl	8005be8 <vQueueAddToRegistry>
 80067f0:	b003      	add	sp, #12
 80067f2:	e8bd 40f0 	ldmia.w	sp!, {r4, r5, r6, r7, lr}
 80067f6:	f000 ba1d 	b.w	8006c34 <vPortExitCritical>
 80067fa:	bf00      	nop
 80067fc:	200012d8 	.word	0x200012d8
 8006800:	200012f8 	.word	0x200012f8
 8006804:	200012e4 	.word	0x200012e4
 8006808:	200012e0 	.word	0x200012e0
 800680c:	200012dc 	.word	0x200012dc
 8006810:	20001230 	.word	0x20001230
 8006814:	200011e0 	.word	0x200011e0
 8006818:	080070bd 	.word	0x080070bd

0800681c <xTimerCreateTimerTask>:
 800681c:	b510      	push	{r4, lr}
 800681e:	b088      	sub	sp, #32
 8006820:	f7ff ffc8 	bl	80067b4 <prvCheckForValidListAndQueue>
 8006824:	4b12      	ldr	r3, [pc, #72]	@ (8006870 <xTimerCreateTimerTask+0x54>)
 8006826:	681b      	ldr	r3, [r3, #0]
 8006828:	b1b3      	cbz	r3, 8006858 <xTimerCreateTimerTask+0x3c>
 800682a:	2400      	movs	r4, #0
 800682c:	aa07      	add	r2, sp, #28
 800682e:	a906      	add	r1, sp, #24
 8006830:	a805      	add	r0, sp, #20
 8006832:	e9cd 4405 	strd	r4, r4, [sp, #20]
 8006836:	f7fe fd99 	bl	800536c <vApplicationGetTimerTaskMemory>
 800683a:	9b05      	ldr	r3, [sp, #20]
 800683c:	9a07      	ldr	r2, [sp, #28]
 800683e:	9302      	str	r3, [sp, #8]
 8006840:	9b06      	ldr	r3, [sp, #24]
 8006842:	490c      	ldr	r1, [pc, #48]	@ (8006874 <xTimerCreateTimerTask+0x58>)
 8006844:	9301      	str	r3, [sp, #4]
 8006846:	2302      	movs	r3, #2
 8006848:	480b      	ldr	r0, [pc, #44]	@ (8006878 <xTimerCreateTimerTask+0x5c>)
 800684a:	9300      	str	r3, [sp, #0]
 800684c:	4623      	mov	r3, r4
 800684e:	f7ff fb62 	bl	8005f16 <xTaskCreateStatic>
 8006852:	4b0a      	ldr	r3, [pc, #40]	@ (800687c <xTimerCreateTimerTask+0x60>)
 8006854:	6018      	str	r0, [r3, #0]
 8006856:	b940      	cbnz	r0, 800686a <xTimerCreateTimerTask+0x4e>
 8006858:	f04f 0350 	mov.w	r3, #80	@ 0x50
 800685c:	f383 8811 	msr	BASEPRI, r3
 8006860:	f3bf 8f6f 	isb	sy
 8006864:	f3bf 8f4f 	dsb	sy
 8006868:	e7fe      	b.n	8006868 <xTimerCreateTimerTask+0x4c>
 800686a:	2001      	movs	r0, #1
 800686c:	b008      	add	sp, #32
 800686e:	bd10      	pop	{r4, pc}
 8006870:	200012d8 	.word	0x200012d8
 8006874:	080070c2 	.word	0x080070c2
 8006878:	0800697d 	.word	0x0800697d
 800687c:	200012d4 	.word	0x200012d4

08006880 <xTimerGenericCommand>:
 8006880:	b57f      	push	{r0, r1, r2, r3, r4, r5, r6, lr}
 8006882:	4616      	mov	r6, r2
 8006884:	4604      	mov	r4, r0
 8006886:	461a      	mov	r2, r3
 8006888:	b940      	cbnz	r0, 800689c <xTimerGenericCommand+0x1c>
 800688a:	f04f 0350 	mov.w	r3, #80	@ 0x50
 800688e:	f383 8811 	msr	BASEPRI, r3
 8006892:	f3bf 8f6f 	isb	sy
 8006896:	f3bf 8f4f 	dsb	sy
 800689a:	e7fe      	b.n	800689a <xTimerGenericCommand+0x1a>
 800689c:	4d0d      	ldr	r5, [pc, #52]	@ (80068d4 <xTimerGenericCommand+0x54>)
 800689e:	6828      	ldr	r0, [r5, #0]
 80068a0:	b180      	cbz	r0, 80068c4 <xTimerGenericCommand+0x44>
 80068a2:	2905      	cmp	r1, #5
 80068a4:	e9cd 1600 	strd	r1, r6, [sp]
 80068a8:	9402      	str	r4, [sp, #8]
 80068aa:	dc0d      	bgt.n	80068c8 <xTimerGenericCommand+0x48>
 80068ac:	f7ff fe7a 	bl	80065a4 <xTaskGetSchedulerState>
 80068b0:	2300      	movs	r3, #0
 80068b2:	2802      	cmp	r0, #2
 80068b4:	bf18      	it	ne
 80068b6:	461a      	movne	r2, r3
 80068b8:	4669      	mov	r1, sp
 80068ba:	bf08      	it	eq
 80068bc:	9a08      	ldreq	r2, [sp, #32]
 80068be:	6828      	ldr	r0, [r5, #0]
 80068c0:	f7fe feb5 	bl	800562e <xQueueGenericSend>
 80068c4:	b004      	add	sp, #16
 80068c6:	bd70      	pop	{r4, r5, r6, pc}
 80068c8:	2300      	movs	r3, #0
 80068ca:	4669      	mov	r1, sp
 80068cc:	f7fe ffb2 	bl	8005834 <xQueueGenericSendFromISR>
 80068d0:	e7f8      	b.n	80068c4 <xTimerGenericCommand+0x44>
 80068d2:	bf00      	nop
 80068d4:	200012d8 	.word	0x200012d8

080068d8 <prvSampleTimeNow>:
 80068d8:	e92d 47f3 	stmdb	sp!, {r0, r1, r4, r5, r6, r7, r8, r9, sl, lr}
 80068dc:	4606      	mov	r6, r0
 80068de:	f7ff fbcf 	bl	8006080 <xTaskGetTickCount>
 80068e2:	f8df 808c 	ldr.w	r8, [pc, #140]	@ 8006970 <prvSampleTimeNow+0x98>
 80068e6:	4605      	mov	r5, r0
 80068e8:	f8d8 3000 	ldr.w	r3, [r8]
 80068ec:	4283      	cmp	r3, r0
 80068ee:	d909      	bls.n	8006904 <prvSampleTimeNow+0x2c>
 80068f0:	4f20      	ldr	r7, [pc, #128]	@ (8006974 <prvSampleTimeNow+0x9c>)
 80068f2:	683b      	ldr	r3, [r7, #0]
 80068f4:	681a      	ldr	r2, [r3, #0]
 80068f6:	b96a      	cbnz	r2, 8006914 <prvSampleTimeNow+0x3c>
 80068f8:	4a1f      	ldr	r2, [pc, #124]	@ (8006978 <prvSampleTimeNow+0xa0>)
 80068fa:	6811      	ldr	r1, [r2, #0]
 80068fc:	6013      	str	r3, [r2, #0]
 80068fe:	6039      	str	r1, [r7, #0]
 8006900:	2301      	movs	r3, #1
 8006902:	e000      	b.n	8006906 <prvSampleTimeNow+0x2e>
 8006904:	2300      	movs	r3, #0
 8006906:	4628      	mov	r0, r5
 8006908:	6033      	str	r3, [r6, #0]
 800690a:	f8c8 5000 	str.w	r5, [r8]
 800690e:	b002      	add	sp, #8
 8006910:	e8bd 87f0 	ldmia.w	sp!, {r4, r5, r6, r7, r8, r9, sl, pc}
 8006914:	68db      	ldr	r3, [r3, #12]
 8006916:	68dc      	ldr	r4, [r3, #12]
 8006918:	f8d3 9000 	ldr.w	r9, [r3]
 800691c:	f104 0a04 	add.w	sl, r4, #4
 8006920:	4650      	mov	r0, sl
 8006922:	f7fe fd5f 	bl	80053e4 <uxListRemove>
 8006926:	6a23      	ldr	r3, [r4, #32]
 8006928:	4620      	mov	r0, r4
 800692a:	4798      	blx	r3
 800692c:	f894 3028 	ldrb.w	r3, [r4, #40]	@ 0x28
 8006930:	075b      	lsls	r3, r3, #29
 8006932:	d5de      	bpl.n	80068f2 <prvSampleTimeNow+0x1a>
 8006934:	69a3      	ldr	r3, [r4, #24]
 8006936:	444b      	add	r3, r9
 8006938:	4599      	cmp	r9, r3
 800693a:	d206      	bcs.n	800694a <prvSampleTimeNow+0x72>
 800693c:	4651      	mov	r1, sl
 800693e:	6838      	ldr	r0, [r7, #0]
 8006940:	6063      	str	r3, [r4, #4]
 8006942:	6124      	str	r4, [r4, #16]
 8006944:	f7fe fd37 	bl	80053b6 <vListInsert>
 8006948:	e7d3      	b.n	80068f2 <prvSampleTimeNow+0x1a>
 800694a:	2300      	movs	r3, #0
 800694c:	464a      	mov	r2, r9
 800694e:	4619      	mov	r1, r3
 8006950:	4620      	mov	r0, r4
 8006952:	9300      	str	r3, [sp, #0]
 8006954:	f7ff ff94 	bl	8006880 <xTimerGenericCommand>
 8006958:	2800      	cmp	r0, #0
 800695a:	d1ca      	bne.n	80068f2 <prvSampleTimeNow+0x1a>
 800695c:	f04f 0350 	mov.w	r3, #80	@ 0x50
 8006960:	f383 8811 	msr	BASEPRI, r3
 8006964:	f3bf 8f6f 	isb	sy
 8006968:	f3bf 8f4f 	dsb	sy
 800696c:	e7fe      	b.n	800696c <prvSampleTimeNow+0x94>
 800696e:	bf00      	nop
 8006970:	200012d0 	.word	0x200012d0
 8006974:	200012e0 	.word	0x200012e0
 8006978:	200012dc 	.word	0x200012dc

0800697c <prvTimerTask>:
 800697c:	e92d 43f0 	stmdb	sp!, {r4, r5, r6, r7, r8, r9, lr}
 8006980:	4d6e      	ldr	r5, [pc, #440]	@ (8006b3c <prvTimerTask+0x1c0>)
 8006982:	4e6f      	ldr	r6, [pc, #444]	@ (8006b40 <prvTimerTask+0x1c4>)
 8006984:	b089      	sub	sp, #36	@ 0x24
 8006986:	682b      	ldr	r3, [r5, #0]
 8006988:	f8d3 8000 	ldr.w	r8, [r3]
 800698c:	f1b8 0f00 	cmp.w	r8, #0
 8006990:	d035      	beq.n	80069fe <prvTimerTask+0x82>
 8006992:	2400      	movs	r4, #0
 8006994:	68db      	ldr	r3, [r3, #12]
 8006996:	f8d3 8000 	ldr.w	r8, [r3]
 800699a:	f7ff fb69 	bl	8006070 <vTaskSuspendAll>
 800699e:	a804      	add	r0, sp, #16
 80069a0:	f7ff ff9a 	bl	80068d8 <prvSampleTimeNow>
 80069a4:	9b04      	ldr	r3, [sp, #16]
 80069a6:	4681      	mov	r9, r0
 80069a8:	2b00      	cmp	r3, #0
 80069aa:	d169      	bne.n	8006a80 <prvTimerTask+0x104>
 80069ac:	2c00      	cmp	r4, #0
 80069ae:	d14c      	bne.n	8006a4a <prvTimerTask+0xce>
 80069b0:	4540      	cmp	r0, r8
 80069b2:	d350      	bcc.n	8006a56 <prvTimerTask+0xda>
 80069b4:	f7ff fc0a 	bl	80061cc <xTaskResumeAll>
 80069b8:	682b      	ldr	r3, [r5, #0]
 80069ba:	68db      	ldr	r3, [r3, #12]
 80069bc:	68df      	ldr	r7, [r3, #12]
 80069be:	1d38      	adds	r0, r7, #4
 80069c0:	f7fe fd10 	bl	80053e4 <uxListRemove>
 80069c4:	f897 3028 	ldrb.w	r3, [r7, #40]	@ 0x28
 80069c8:	0758      	lsls	r0, r3, #29
 80069ca:	d51a      	bpl.n	8006a02 <prvTimerTask+0x86>
 80069cc:	69b9      	ldr	r1, [r7, #24]
 80069ce:	4643      	mov	r3, r8
 80069d0:	464a      	mov	r2, r9
 80069d2:	4638      	mov	r0, r7
 80069d4:	4441      	add	r1, r8
 80069d6:	f7ff fecf 	bl	8006778 <prvInsertTimerInActiveList>
 80069da:	b1b0      	cbz	r0, 8006a0a <prvTimerTask+0x8e>
 80069dc:	4623      	mov	r3, r4
 80069de:	4642      	mov	r2, r8
 80069e0:	4621      	mov	r1, r4
 80069e2:	4638      	mov	r0, r7
 80069e4:	9400      	str	r4, [sp, #0]
 80069e6:	f7ff ff4b 	bl	8006880 <xTimerGenericCommand>
 80069ea:	b970      	cbnz	r0, 8006a0a <prvTimerTask+0x8e>
 80069ec:	f04f 0350 	mov.w	r3, #80	@ 0x50
 80069f0:	f383 8811 	msr	BASEPRI, r3
 80069f4:	f3bf 8f6f 	isb	sy
 80069f8:	f3bf 8f4f 	dsb	sy
 80069fc:	e7fe      	b.n	80069fc <prvTimerTask+0x80>
 80069fe:	2401      	movs	r4, #1
 8006a00:	e7cb      	b.n	800699a <prvTimerTask+0x1e>
 8006a02:	f023 0301 	bic.w	r3, r3, #1
 8006a06:	f887 3028 	strb.w	r3, [r7, #40]	@ 0x28
 8006a0a:	4638      	mov	r0, r7
 8006a0c:	6a3b      	ldr	r3, [r7, #32]
 8006a0e:	4798      	blx	r3
 8006a10:	2200      	movs	r2, #0
 8006a12:	6830      	ldr	r0, [r6, #0]
 8006a14:	a904      	add	r1, sp, #16
 8006a16:	f7fe ff6a 	bl	80058ee <xQueueReceive>
 8006a1a:	2800      	cmp	r0, #0
 8006a1c:	d0b3      	beq.n	8006986 <prvTimerTask+0xa>
 8006a1e:	9b04      	ldr	r3, [sp, #16]
 8006a20:	9806      	ldr	r0, [sp, #24]
 8006a22:	2b00      	cmp	r3, #0
 8006a24:	db2f      	blt.n	8006a86 <prvTimerTask+0x10a>
 8006a26:	9c06      	ldr	r4, [sp, #24]
 8006a28:	6963      	ldr	r3, [r4, #20]
 8006a2a:	2b00      	cmp	r3, #0
 8006a2c:	d132      	bne.n	8006a94 <prvTimerTask+0x118>
 8006a2e:	a803      	add	r0, sp, #12
 8006a30:	f7ff ff52 	bl	80068d8 <prvSampleTimeNow>
 8006a34:	9b04      	ldr	r3, [sp, #16]
 8006a36:	4602      	mov	r2, r0
 8006a38:	2b09      	cmp	r3, #9
 8006a3a:	d8e9      	bhi.n	8006a10 <prvTimerTask+0x94>
 8006a3c:	e8df f003 	tbb	[pc, r3]
 8006a40:	572e2e2e 	.word	0x572e2e2e
 8006a44:	2e2e765e 	.word	0x2e2e765e
 8006a48:	5e57      	.short	0x5e57
 8006a4a:	4b3e      	ldr	r3, [pc, #248]	@ (8006b44 <prvTimerTask+0x1c8>)
 8006a4c:	681b      	ldr	r3, [r3, #0]
 8006a4e:	681c      	ldr	r4, [r3, #0]
 8006a50:	fab4 f484 	clz	r4, r4
 8006a54:	0964      	lsrs	r4, r4, #5
 8006a56:	4622      	mov	r2, r4
 8006a58:	6830      	ldr	r0, [r6, #0]
 8006a5a:	eba8 0109 	sub.w	r1, r8, r9
 8006a5e:	f7ff f8d5 	bl	8005c0c <vQueueWaitForMessageRestricted>
 8006a62:	f7ff fbb3 	bl	80061cc <xTaskResumeAll>
 8006a66:	2800      	cmp	r0, #0
 8006a68:	d1d2      	bne.n	8006a10 <prvTimerTask+0x94>
 8006a6a:	f04f 23e0 	mov.w	r3, #3758153728	@ 0xe000e000
 8006a6e:	f04f 5280 	mov.w	r2, #268435456	@ 0x10000000
 8006a72:	f8c3 2d04 	str.w	r2, [r3, #3332]	@ 0xd04
 8006a76:	f3bf 8f4f 	dsb	sy
 8006a7a:	f3bf 8f6f 	isb	sy
 8006a7e:	e7c7      	b.n	8006a10 <prvTimerTask+0x94>
 8006a80:	f7ff fba4 	bl	80061cc <xTaskResumeAll>
 8006a84:	e7c4      	b.n	8006a10 <prvTimerTask+0x94>
 8006a86:	9b05      	ldr	r3, [sp, #20]
 8006a88:	9907      	ldr	r1, [sp, #28]
 8006a8a:	4798      	blx	r3
 8006a8c:	9b04      	ldr	r3, [sp, #16]
 8006a8e:	2b00      	cmp	r3, #0
 8006a90:	dbbe      	blt.n	8006a10 <prvTimerTask+0x94>
 8006a92:	e7c8      	b.n	8006a26 <prvTimerTask+0xaa>
 8006a94:	1d20      	adds	r0, r4, #4
 8006a96:	f7fe fca5 	bl	80053e4 <uxListRemove>
 8006a9a:	e7c8      	b.n	8006a2e <prvTimerTask+0xb2>
 8006a9c:	f894 3028 	ldrb.w	r3, [r4, #40]	@ 0x28
 8006aa0:	69a1      	ldr	r1, [r4, #24]
 8006aa2:	f043 0301 	orr.w	r3, r3, #1
 8006aa6:	f884 3028 	strb.w	r3, [r4, #40]	@ 0x28
 8006aaa:	9b05      	ldr	r3, [sp, #20]
 8006aac:	4620      	mov	r0, r4
 8006aae:	4419      	add	r1, r3
 8006ab0:	f7ff fe62 	bl	8006778 <prvInsertTimerInActiveList>
 8006ab4:	2800      	cmp	r0, #0
 8006ab6:	d0ab      	beq.n	8006a10 <prvTimerTask+0x94>
 8006ab8:	6a23      	ldr	r3, [r4, #32]
 8006aba:	4620      	mov	r0, r4
 8006abc:	4798      	blx	r3
 8006abe:	f894 3028 	ldrb.w	r3, [r4, #40]	@ 0x28
 8006ac2:	0759      	lsls	r1, r3, #29
 8006ac4:	d5a4      	bpl.n	8006a10 <prvTimerTask+0x94>
 8006ac6:	2300      	movs	r3, #0
 8006ac8:	69a2      	ldr	r2, [r4, #24]
 8006aca:	9905      	ldr	r1, [sp, #20]
 8006acc:	4620      	mov	r0, r4
 8006ace:	440a      	add	r2, r1
 8006ad0:	9300      	str	r3, [sp, #0]
 8006ad2:	4619      	mov	r1, r3
 8006ad4:	f7ff fed4 	bl	8006880 <xTimerGenericCommand>
 8006ad8:	2800      	cmp	r0, #0
 8006ada:	d199      	bne.n	8006a10 <prvTimerTask+0x94>
 8006adc:	f04f 0350 	mov.w	r3, #80	@ 0x50
 8006ae0:	f383 8811 	msr	BASEPRI, r3
 8006ae4:	f3bf 8f6f 	isb	sy
 8006ae8:	f3bf 8f4f 	dsb	sy
 8006aec:	e7fe      	b.n	8006aec <prvTimerTask+0x170>
 8006aee:	f894 3028 	ldrb.w	r3, [r4, #40]	@ 0x28
 8006af2:	f023 0301 	bic.w	r3, r3, #1
 8006af6:	f884 3028 	strb.w	r3, [r4, #40]	@ 0x28
 8006afa:	e789      	b.n	8006a10 <prvTimerTask+0x94>
 8006afc:	f894 3028 	ldrb.w	r3, [r4, #40]	@ 0x28
 8006b00:	f043 0301 	orr.w	r3, r3, #1
 8006b04:	f884 3028 	strb.w	r3, [r4, #40]	@ 0x28
 8006b08:	9905      	ldr	r1, [sp, #20]
 8006b0a:	61a1      	str	r1, [r4, #24]
 8006b0c:	b941      	cbnz	r1, 8006b20 <prvTimerTask+0x1a4>
 8006b0e:	f04f 0350 	mov.w	r3, #80	@ 0x50
 8006b12:	f383 8811 	msr	BASEPRI, r3
 8006b16:	f3bf 8f6f 	isb	sy
 8006b1a:	f3bf 8f4f 	dsb	sy
 8006b1e:	e7fe      	b.n	8006b1e <prvTimerTask+0x1a2>
 8006b20:	4603      	mov	r3, r0
 8006b22:	4401      	add	r1, r0
 8006b24:	4620      	mov	r0, r4
 8006b26:	f7ff fe27 	bl	8006778 <prvInsertTimerInActiveList>
 8006b2a:	e771      	b.n	8006a10 <prvTimerTask+0x94>
 8006b2c:	f894 3028 	ldrb.w	r3, [r4, #40]	@ 0x28
 8006b30:	079a      	lsls	r2, r3, #30
 8006b32:	d4de      	bmi.n	8006af2 <prvTimerTask+0x176>
 8006b34:	4620      	mov	r0, r4
 8006b36:	f000 fa21 	bl	8006f7c <vPortFree>
 8006b3a:	e769      	b.n	8006a10 <prvTimerTask+0x94>
 8006b3c:	200012e0 	.word	0x200012e0
 8006b40:	200012d8 	.word	0x200012d8
 8006b44:	200012dc 	.word	0x200012dc

08006b48 <prvPortStartFirstTask>:
 8006b48:	4806      	ldr	r0, [pc, #24]	@ (8006b64 <prvPortStartFirstTask+0x1c>)
 8006b4a:	6800      	ldr	r0, [r0, #0]
 8006b4c:	6800      	ldr	r0, [r0, #0]
 8006b4e:	f380 8808 	msr	MSP, r0
 8006b52:	b662      	cpsie	i
 8006b54:	b661      	cpsie	f
 8006b56:	f3bf 8f4f 	dsb	sy
 8006b5a:	f3bf 8f6f 	isb	sy
 8006b5e:	df00      	svc	0
 8006b60:	bf00      	nop
 8006b62:	0000      	.short	0x0000
 8006b64:	e000ed08 	.word	0xe000ed08

08006b68 <prvTaskExitError>:
 8006b68:	2300      	movs	r3, #0
 8006b6a:	b082      	sub	sp, #8
 8006b6c:	9301      	str	r3, [sp, #4]
 8006b6e:	4b0d      	ldr	r3, [pc, #52]	@ (8006ba4 <prvTaskExitError+0x3c>)
 8006b70:	681b      	ldr	r3, [r3, #0]
 8006b72:	3301      	adds	r3, #1
 8006b74:	d008      	beq.n	8006b88 <prvTaskExitError+0x20>
 8006b76:	f04f 0350 	mov.w	r3, #80	@ 0x50
 8006b7a:	f383 8811 	msr	BASEPRI, r3
 8006b7e:	f3bf 8f6f 	isb	sy
 8006b82:	f3bf 8f4f 	dsb	sy
 8006b86:	e7fe      	b.n	8006b86 <prvTaskExitError+0x1e>
 8006b88:	f04f 0350 	mov.w	r3, #80	@ 0x50
 8006b8c:	f383 8811 	msr	BASEPRI, r3
 8006b90:	f3bf 8f6f 	isb	sy
 8006b94:	f3bf 8f4f 	dsb	sy
 8006b98:	9b01      	ldr	r3, [sp, #4]
 8006b9a:	2b00      	cmp	r3, #0
 8006b9c:	d0fc      	beq.n	8006b98 <prvTaskExitError+0x30>
 8006b9e:	b002      	add	sp, #8
 8006ba0:	4770      	bx	lr
 8006ba2:	bf00      	nop
 8006ba4:	20000010 	.word	0x20000010

08006ba8 <pxPortInitialiseStack>:
 8006ba8:	f04f 7380 	mov.w	r3, #16777216	@ 0x1000000
 8006bac:	f840 3c04 	str.w	r3, [r0, #-4]
 8006bb0:	4b05      	ldr	r3, [pc, #20]	@ (8006bc8 <pxPortInitialiseStack+0x20>)
 8006bb2:	f021 0101 	bic.w	r1, r1, #1
 8006bb6:	f840 1c08 	str.w	r1, [r0, #-8]
 8006bba:	f840 3c0c 	str.w	r3, [r0, #-12]
 8006bbe:	f840 2c20 	str.w	r2, [r0, #-32]
 8006bc2:	3840      	subs	r0, #64	@ 0x40
 8006bc4:	4770      	bx	lr
 8006bc6:	bf00      	nop
 8006bc8:	08006b69 	.word	0x08006b69
 8006bcc:	00000000 	.word	0x00000000

08006bd0 <SVC_Handler>:
 8006bd0:	4b07      	ldr	r3, [pc, #28]	@ (8006bf0 <pxCurrentTCBConst2>)
 8006bd2:	6819      	ldr	r1, [r3, #0]
 8006bd4:	6808      	ldr	r0, [r1, #0]
 8006bd6:	e8b0 0ff0 	ldmia.w	r0!, {r4, r5, r6, r7, r8, r9, sl, fp}
 8006bda:	f380 8809 	msr	PSP, r0
 8006bde:	f3bf 8f6f 	isb	sy
 8006be2:	f04f 0000 	mov.w	r0, #0
 8006be6:	f380 8811 	msr	BASEPRI, r0
 8006bea:	f04e 0e0d 	orr.w	lr, lr, #13
 8006bee:	4770      	bx	lr

08006bf0 <pxCurrentTCBConst2>:
 8006bf0:	200011dc 	.word	0x200011dc

08006bf4 <vPortEnterCritical>:
 8006bf4:	f04f 0350 	mov.w	r3, #80	@ 0x50
 8006bf8:	f383 8811 	msr	BASEPRI, r3
 8006bfc:	f3bf 8f6f 	isb	sy
 8006c00:	f3bf 8f4f 	dsb	sy
 8006c04:	4a0a      	ldr	r2, [pc, #40]	@ (8006c30 <vPortEnterCritical+0x3c>)
 8006c06:	6813      	ldr	r3, [r2, #0]
 8006c08:	3301      	adds	r3, #1
 8006c0a:	2b01      	cmp	r3, #1
 8006c0c:	6013      	str	r3, [r2, #0]
 8006c0e:	d10e      	bne.n	8006c2e <vPortEnterCritical+0x3a>
 8006c10:	f04f 23e0 	mov.w	r3, #3758153728	@ 0xe000e000
 8006c14:	f8d3 3d04 	ldr.w	r3, [r3, #3332]	@ 0xd04
 8006c18:	b2db      	uxtb	r3, r3
 8006c1a:	b143      	cbz	r3, 8006c2e <vPortEnterCritical+0x3a>
 8006c1c:	f04f 0350 	mov.w	r3, #80	@ 0x50
 8006c20:	f383 8811 	msr	BASEPRI, r3
 8006c24:	f3bf 8f6f 	isb	sy
 8006c28:	f3bf 8f4f 	dsb	sy
 8006c2c:	e7fe      	b.n	8006c2c <vPortEnterCritical+0x38>
 8006c2e:	4770      	bx	lr
 8006c30:	20000010 	.word	0x20000010

08006c34 <vPortExitCritical>:
 8006c34:	4a08      	ldr	r2, [pc, #32]	@ (8006c58 <vPortExitCritical+0x24>)
 8006c36:	6813      	ldr	r3, [r2, #0]
 8006c38:	b943      	cbnz	r3, 8006c4c <vPortExitCritical+0x18>
 8006c3a:	f04f 0350 	mov.w	r3, #80	@ 0x50
 8006c3e:	f383 8811 	msr	BASEPRI, r3
 8006c42:	f3bf 8f6f 	isb	sy
 8006c46:	f3bf 8f4f 	dsb	sy
 8006c4a:	e7fe      	b.n	8006c4a <vPortExitCritical+0x16>
 8006c4c:	3b01      	subs	r3, #1
 8006c4e:	6013      	str	r3, [r2, #0]
 8006c50:	b90b      	cbnz	r3, 8006c56 <vPortExitCritical+0x22>
 8006c52:	f383 8811 	msr	BASEPRI, r3
 8006c56:	4770      	bx	lr
 8006c58:	20000010 	.word	0x20000010
 8006c5c:	00000000 	.word	0x00000000

08006c60 <PendSV_Handler>:
 8006c60:	f3ef 8009 	mrs	r0, PSP
 8006c64:	f3bf 8f6f 	isb	sy
 8006c68:	4b0d      	ldr	r3, [pc, #52]	@ (8006ca0 <pxCurrentTCBConst>)
 8006c6a:	681a      	ldr	r2, [r3, #0]
 8006c6c:	e920 0ff0 	stmdb	r0!, {r4, r5, r6, r7, r8, r9, sl, fp}
 8006c70:	6010      	str	r0, [r2, #0]
 8006c72:	e92d 4008 	stmdb	sp!, {r3, lr}
 8006c76:	f04f 0050 	mov.w	r0, #80	@ 0x50
 8006c7a:	f380 8811 	msr	BASEPRI, r0
 8006c7e:	f7ff fb87 	bl	8006390 <vTaskSwitchContext>
 8006c82:	f04f 0000 	mov.w	r0, #0
 8006c86:	f380 8811 	msr	BASEPRI, r0
 8006c8a:	e8bd 4008 	ldmia.w	sp!, {r3, lr}
 8006c8e:	6819      	ldr	r1, [r3, #0]
 8006c90:	6808      	ldr	r0, [r1, #0]
 8006c92:	e8b0 0ff0 	ldmia.w	r0!, {r4, r5, r6, r7, r8, r9, sl, fp}
 8006c96:	f380 8809 	msr	PSP, r0
 8006c9a:	f3bf 8f6f 	isb	sy
 8006c9e:	4770      	bx	lr

08006ca0 <pxCurrentTCBConst>:
 8006ca0:	200011dc 	.word	0x200011dc

08006ca4 <xPortSysTickHandler>:
 8006ca4:	b508      	push	{r3, lr}
 8006ca6:	f04f 0350 	mov.w	r3, #80	@ 0x50
 8006caa:	f383 8811 	msr	BASEPRI, r3
 8006cae:	f3bf 8f6f 	isb	sy
 8006cb2:	f3bf 8f4f 	dsb	sy
 8006cb6:	f7ff f9f1 	bl	800609c <xTaskIncrementTick>
 8006cba:	b128      	cbz	r0, 8006cc8 <xPortSysTickHandler+0x24>
 8006cbc:	f04f 23e0 	mov.w	r3, #3758153728	@ 0xe000e000
 8006cc0:	f04f 5280 	mov.w	r2, #268435456	@ 0x10000000
 8006cc4:	f8c3 2d04 	str.w	r2, [r3, #3332]	@ 0xd04
 8006cc8:	2300      	movs	r3, #0
 8006cca:	f383 8811 	msr	BASEPRI, r3
 8006cce:	bd08      	pop	{r3, pc}

08006cd0 <vPortSetupTimerInterrupt>:
 8006cd0:	f04f 22e0 	mov.w	r2, #3758153728	@ 0xe000e000
 8006cd4:	2300      	movs	r3, #0
 8006cd6:	f44f 717a 	mov.w	r1, #1000	@ 0x3e8
 8006cda:	6113      	str	r3, [r2, #16]
 8006cdc:	6193      	str	r3, [r2, #24]
 8006cde:	4b04      	ldr	r3, [pc, #16]	@ (8006cf0 <vPortSetupTimerInterrupt+0x20>)
 8006ce0:	681b      	ldr	r3, [r3, #0]
 8006ce2:	fbb3 f3f1 	udiv	r3, r3, r1
 8006ce6:	3b01      	subs	r3, #1
 8006ce8:	6153      	str	r3, [r2, #20]
 8006cea:	2307      	movs	r3, #7
 8006cec:	6113      	str	r3, [r2, #16]
 8006cee:	4770      	bx	lr
 8006cf0:	20000004 	.word	0x20000004

08006cf4 <xPortStartScheduler>:
 8006cf4:	b513      	push	{r0, r1, r4, lr}
 8006cf6:	4b27      	ldr	r3, [pc, #156]	@ (8006d94 <xPortStartScheduler+0xa0>)
 8006cf8:	781a      	ldrb	r2, [r3, #0]
 8006cfa:	b2d2      	uxtb	r2, r2
 8006cfc:	9201      	str	r2, [sp, #4]
 8006cfe:	22ff      	movs	r2, #255	@ 0xff
 8006d00:	701a      	strb	r2, [r3, #0]
 8006d02:	781b      	ldrb	r3, [r3, #0]
 8006d04:	4a24      	ldr	r2, [pc, #144]	@ (8006d98 <xPortStartScheduler+0xa4>)
 8006d06:	b2db      	uxtb	r3, r3
 8006d08:	f88d 3003 	strb.w	r3, [sp, #3]
 8006d0c:	f89d 3003 	ldrb.w	r3, [sp, #3]
 8006d10:	f003 0350 	and.w	r3, r3, #80	@ 0x50
 8006d14:	7013      	strb	r3, [r2, #0]
 8006d16:	2307      	movs	r3, #7
 8006d18:	4a20      	ldr	r2, [pc, #128]	@ (8006d9c <xPortStartScheduler+0xa8>)
 8006d1a:	6013      	str	r3, [r2, #0]
 8006d1c:	f89d 1003 	ldrb.w	r1, [sp, #3]
 8006d20:	6813      	ldr	r3, [r2, #0]
 8006d22:	0609      	lsls	r1, r1, #24
 8006d24:	d40a      	bmi.n	8006d3c <xPortStartScheduler+0x48>
 8006d26:	2b03      	cmp	r3, #3
 8006d28:	d011      	beq.n	8006d4e <xPortStartScheduler+0x5a>
 8006d2a:	f04f 0350 	mov.w	r3, #80	@ 0x50
 8006d2e:	f383 8811 	msr	BASEPRI, r3
 8006d32:	f3bf 8f6f 	isb	sy
 8006d36:	f3bf 8f4f 	dsb	sy
 8006d3a:	e7fe      	b.n	8006d3a <xPortStartScheduler+0x46>
 8006d3c:	3b01      	subs	r3, #1
 8006d3e:	6013      	str	r3, [r2, #0]
 8006d40:	f89d 3003 	ldrb.w	r3, [sp, #3]
 8006d44:	005b      	lsls	r3, r3, #1
 8006d46:	b2db      	uxtb	r3, r3
 8006d48:	f88d 3003 	strb.w	r3, [sp, #3]
 8006d4c:	e7e6      	b.n	8006d1c <xPortStartScheduler+0x28>
 8006d4e:	f44f 7340 	mov.w	r3, #768	@ 0x300
 8006d52:	6013      	str	r3, [r2, #0]
 8006d54:	9b01      	ldr	r3, [sp, #4]
 8006d56:	4a0f      	ldr	r2, [pc, #60]	@ (8006d94 <xPortStartScheduler+0xa0>)
 8006d58:	b2db      	uxtb	r3, r3
 8006d5a:	7013      	strb	r3, [r2, #0]
 8006d5c:	f04f 23e0 	mov.w	r3, #3758153728	@ 0xe000e000
 8006d60:	2400      	movs	r4, #0
 8006d62:	f8d3 2d20 	ldr.w	r2, [r3, #3360]	@ 0xd20
 8006d66:	f442 0270 	orr.w	r2, r2, #15728640	@ 0xf00000
 8006d6a:	f8c3 2d20 	str.w	r2, [r3, #3360]	@ 0xd20
 8006d6e:	f8d3 2d20 	ldr.w	r2, [r3, #3360]	@ 0xd20
 8006d72:	f042 4270 	orr.w	r2, r2, #4026531840	@ 0xf0000000
 8006d76:	f8c3 2d20 	str.w	r2, [r3, #3360]	@ 0xd20
 8006d7a:	f7ff ffa9 	bl	8006cd0 <vPortSetupTimerInterrupt>
 8006d7e:	4b08      	ldr	r3, [pc, #32]	@ (8006da0 <xPortStartScheduler+0xac>)
 8006d80:	601c      	str	r4, [r3, #0]
 8006d82:	f7ff fee1 	bl	8006b48 <prvPortStartFirstTask>
 8006d86:	f7ff fb03 	bl	8006390 <vTaskSwitchContext>
 8006d8a:	4620      	mov	r0, r4
 8006d8c:	f7ff feec 	bl	8006b68 <prvTaskExitError>
 8006d90:	b002      	add	sp, #8
 8006d92:	bd10      	pop	{r4, pc}
 8006d94:	e000e400 	.word	0xe000e400
 8006d98:	20001310 	.word	0x20001310
 8006d9c:	2000130c 	.word	0x2000130c
 8006da0:	20000010 	.word	0x20000010

08006da4 <vPortValidateInterruptPriority>:
 8006da4:	f3ef 8305 	mrs	r3, IPSR
 8006da8:	2b0f      	cmp	r3, #15
 8006daa:	d90e      	bls.n	8006dca <vPortValidateInterruptPriority+0x26>
 8006dac:	4a11      	ldr	r2, [pc, #68]	@ (8006df4 <vPortValidateInterruptPriority+0x50>)
 8006dae:	5c9b      	ldrb	r3, [r3, r2]
 8006db0:	4a11      	ldr	r2, [pc, #68]	@ (8006df8 <vPortValidateInterruptPriority+0x54>)
 8006db2:	7812      	ldrb	r2, [r2, #0]
 8006db4:	429a      	cmp	r2, r3
 8006db6:	d908      	bls.n	8006dca <vPortValidateInterruptPriority+0x26>
 8006db8:	f04f 0350 	mov.w	r3, #80	@ 0x50
 8006dbc:	f383 8811 	msr	BASEPRI, r3
 8006dc0:	f3bf 8f6f 	isb	sy
 8006dc4:	f3bf 8f4f 	dsb	sy
 8006dc8:	e7fe      	b.n	8006dc8 <vPortValidateInterruptPriority+0x24>
 8006dca:	f04f 23e0 	mov.w	r3, #3758153728	@ 0xe000e000
 8006dce:	4a0b      	ldr	r2, [pc, #44]	@ (8006dfc <vPortValidateInterruptPriority+0x58>)
 8006dd0:	f8d3 3d0c 	ldr.w	r3, [r3, #3340]	@ 0xd0c
 8006dd4:	6812      	ldr	r2, [r2, #0]
 8006dd6:	f403 63e0 	and.w	r3, r3, #1792	@ 0x700
 8006dda:	4293      	cmp	r3, r2
 8006ddc:	d908      	bls.n	8006df0 <vPortValidateInterruptPriority+0x4c>
 8006dde:	f04f 0350 	mov.w	r3, #80	@ 0x50
 8006de2:	f383 8811 	msr	BASEPRI, r3
 8006de6:	f3bf 8f6f 	isb	sy
 8006dea:	f3bf 8f4f 	dsb	sy
 8006dee:	e7fe      	b.n	8006dee <vPortValidateInterruptPriority+0x4a>
 8006df0:	4770      	bx	lr
 8006df2:	bf00      	nop
 8006df4:	e000e3f0 	.word	0xe000e3f0
 8006df8:	20001310 	.word	0x20001310
 8006dfc:	2000130c 	.word	0x2000130c

08006e00 <prvInsertBlockIntoFreeList>:
 8006e00:	b510      	push	{r4, lr}
 8006e02:	4b10      	ldr	r3, [pc, #64]	@ (8006e44 <prvInsertBlockIntoFreeList+0x44>)
 8006e04:	461a      	mov	r2, r3
 8006e06:	681b      	ldr	r3, [r3, #0]
 8006e08:	4283      	cmp	r3, r0
 8006e0a:	d3fb      	bcc.n	8006e04 <prvInsertBlockIntoFreeList+0x4>
 8006e0c:	6854      	ldr	r4, [r2, #4]
 8006e0e:	1911      	adds	r1, r2, r4
 8006e10:	4288      	cmp	r0, r1
 8006e12:	bf01      	itttt	eq
 8006e14:	6841      	ldreq	r1, [r0, #4]
 8006e16:	4610      	moveq	r0, r2
 8006e18:	1909      	addeq	r1, r1, r4
 8006e1a:	6051      	streq	r1, [r2, #4]
 8006e1c:	6844      	ldr	r4, [r0, #4]
 8006e1e:	1901      	adds	r1, r0, r4
 8006e20:	428b      	cmp	r3, r1
 8006e22:	d10c      	bne.n	8006e3e <prvInsertBlockIntoFreeList+0x3e>
 8006e24:	4908      	ldr	r1, [pc, #32]	@ (8006e48 <prvInsertBlockIntoFreeList+0x48>)
 8006e26:	6809      	ldr	r1, [r1, #0]
 8006e28:	428b      	cmp	r3, r1
 8006e2a:	d003      	beq.n	8006e34 <prvInsertBlockIntoFreeList+0x34>
 8006e2c:	6859      	ldr	r1, [r3, #4]
 8006e2e:	4421      	add	r1, r4
 8006e30:	6041      	str	r1, [r0, #4]
 8006e32:	6819      	ldr	r1, [r3, #0]
 8006e34:	4290      	cmp	r0, r2
 8006e36:	6001      	str	r1, [r0, #0]
 8006e38:	bf18      	it	ne
 8006e3a:	6010      	strne	r0, [r2, #0]
 8006e3c:	bd10      	pop	{r4, pc}
 8006e3e:	4619      	mov	r1, r3
 8006e40:	e7f8      	b.n	8006e34 <prvInsertBlockIntoFreeList+0x34>
 8006e42:	bf00      	nop
 8006e44:	2000132c 	.word	0x2000132c
 8006e48:	20001328 	.word	0x20001328

08006e4c <pvPortMalloc>:
 8006e4c:	e92d 41f0 	stmdb	sp!, {r4, r5, r6, r7, r8, lr}
 8006e50:	4604      	mov	r4, r0
 8006e52:	f7ff f90d 	bl	8006070 <vTaskSuspendAll>
 8006e56:	4942      	ldr	r1, [pc, #264]	@ (8006f60 <pvPortMalloc+0x114>)
 8006e58:	4d42      	ldr	r5, [pc, #264]	@ (8006f64 <pvPortMalloc+0x118>)
 8006e5a:	680b      	ldr	r3, [r1, #0]
 8006e5c:	bb0b      	cbnz	r3, 8006ea2 <pvPortMalloc+0x56>
 8006e5e:	4a42      	ldr	r2, [pc, #264]	@ (8006f68 <pvPortMalloc+0x11c>)
 8006e60:	0756      	lsls	r6, r2, #29
 8006e62:	bf1f      	itttt	ne
 8006e64:	1dd0      	addne	r0, r2, #7
 8006e66:	f020 0007 	bicne.w	r0, r0, #7
 8006e6a:	f502 6240 	addne.w	r2, r2, #3072	@ 0xc00
 8006e6e:	1a13      	subne	r3, r2, r0
 8006e70:	bf0c      	ite	eq
 8006e72:	f44f 6340 	moveq.w	r3, #3072	@ 0xc00
 8006e76:	4602      	movne	r2, r0
 8006e78:	2000      	movs	r0, #0
 8006e7a:	4413      	add	r3, r2
 8006e7c:	4e3b      	ldr	r6, [pc, #236]	@ (8006f6c <pvPortMalloc+0x120>)
 8006e7e:	3b08      	subs	r3, #8
 8006e80:	f023 0307 	bic.w	r3, r3, #7
 8006e84:	6070      	str	r0, [r6, #4]
 8006e86:	6032      	str	r2, [r6, #0]
 8006e88:	e9c3 0000 	strd	r0, r0, [r3]
 8006e8c:	1a98      	subs	r0, r3, r2
 8006e8e:	e9c2 3000 	strd	r3, r0, [r2]
 8006e92:	600b      	str	r3, [r1, #0]
 8006e94:	4b36      	ldr	r3, [pc, #216]	@ (8006f70 <pvPortMalloc+0x124>)
 8006e96:	6018      	str	r0, [r3, #0]
 8006e98:	4b36      	ldr	r3, [pc, #216]	@ (8006f74 <pvPortMalloc+0x128>)
 8006e9a:	6018      	str	r0, [r3, #0]
 8006e9c:	f04f 4300 	mov.w	r3, #2147483648	@ 0x80000000
 8006ea0:	602b      	str	r3, [r5, #0]
 8006ea2:	682e      	ldr	r6, [r5, #0]
 8006ea4:	4226      	tst	r6, r4
 8006ea6:	d155      	bne.n	8006f54 <pvPortMalloc+0x108>
 8006ea8:	2c00      	cmp	r4, #0
 8006eaa:	d046      	beq.n	8006f3a <pvPortMalloc+0xee>
 8006eac:	f104 0308 	add.w	r3, r4, #8
 8006eb0:	0760      	lsls	r0, r4, #29
 8006eb2:	bf1c      	itt	ne
 8006eb4:	f023 0307 	bicne.w	r3, r3, #7
 8006eb8:	3308      	addne	r3, #8
 8006eba:	2b00      	cmp	r3, #0
 8006ebc:	d04a      	beq.n	8006f54 <pvPortMalloc+0x108>
 8006ebe:	4f2d      	ldr	r7, [pc, #180]	@ (8006f74 <pvPortMalloc+0x128>)
 8006ec0:	683c      	ldr	r4, [r7, #0]
 8006ec2:	429c      	cmp	r4, r3
 8006ec4:	d346      	bcc.n	8006f54 <pvPortMalloc+0x108>
 8006ec6:	4a29      	ldr	r2, [pc, #164]	@ (8006f6c <pvPortMalloc+0x120>)
 8006ec8:	6815      	ldr	r5, [r2, #0]
 8006eca:	6868      	ldr	r0, [r5, #4]
 8006ecc:	4298      	cmp	r0, r3
 8006ece:	d204      	bcs.n	8006eda <pvPortMalloc+0x8e>
 8006ed0:	f8d5 c000 	ldr.w	ip, [r5]
 8006ed4:	f1bc 0f00 	cmp.w	ip, #0
 8006ed8:	d115      	bne.n	8006f06 <pvPortMalloc+0xba>
 8006eda:	6809      	ldr	r1, [r1, #0]
 8006edc:	42a9      	cmp	r1, r5
 8006ede:	d039      	beq.n	8006f54 <pvPortMalloc+0x108>
 8006ee0:	6829      	ldr	r1, [r5, #0]
 8006ee2:	f8d2 8000 	ldr.w	r8, [r2]
 8006ee6:	6011      	str	r1, [r2, #0]
 8006ee8:	1ac2      	subs	r2, r0, r3
 8006eea:	2a10      	cmp	r2, #16
 8006eec:	d912      	bls.n	8006f14 <pvPortMalloc+0xc8>
 8006eee:	18e8      	adds	r0, r5, r3
 8006ef0:	0741      	lsls	r1, r0, #29
 8006ef2:	d00b      	beq.n	8006f0c <pvPortMalloc+0xc0>
 8006ef4:	f04f 0350 	mov.w	r3, #80	@ 0x50
 8006ef8:	f383 8811 	msr	BASEPRI, r3
 8006efc:	f3bf 8f6f 	isb	sy
 8006f00:	f3bf 8f4f 	dsb	sy
 8006f04:	e7fe      	b.n	8006f04 <pvPortMalloc+0xb8>
 8006f06:	462a      	mov	r2, r5
 8006f08:	4665      	mov	r5, ip
 8006f0a:	e7de      	b.n	8006eca <pvPortMalloc+0x7e>
 8006f0c:	6042      	str	r2, [r0, #4]
 8006f0e:	606b      	str	r3, [r5, #4]
 8006f10:	f7ff ff76 	bl	8006e00 <prvInsertBlockIntoFreeList>
 8006f14:	2300      	movs	r3, #0
 8006f16:	686a      	ldr	r2, [r5, #4]
 8006f18:	4915      	ldr	r1, [pc, #84]	@ (8006f70 <pvPortMalloc+0x124>)
 8006f1a:	1aa4      	subs	r4, r4, r2
 8006f1c:	4316      	orrs	r6, r2
 8006f1e:	4a16      	ldr	r2, [pc, #88]	@ (8006f78 <pvPortMalloc+0x12c>)
 8006f20:	6808      	ldr	r0, [r1, #0]
 8006f22:	602b      	str	r3, [r5, #0]
 8006f24:	6813      	ldr	r3, [r2, #0]
 8006f26:	4284      	cmp	r4, r0
 8006f28:	f103 0301 	add.w	r3, r3, #1
 8006f2c:	603c      	str	r4, [r7, #0]
 8006f2e:	bf38      	it	cc
 8006f30:	600c      	strcc	r4, [r1, #0]
 8006f32:	606e      	str	r6, [r5, #4]
 8006f34:	f108 0408 	add.w	r4, r8, #8
 8006f38:	6013      	str	r3, [r2, #0]
 8006f3a:	f7ff f947 	bl	80061cc <xTaskResumeAll>
 8006f3e:	0763      	lsls	r3, r4, #29
 8006f40:	d00a      	beq.n	8006f58 <pvPortMalloc+0x10c>
 8006f42:	f04f 0350 	mov.w	r3, #80	@ 0x50
 8006f46:	f383 8811 	msr	BASEPRI, r3
 8006f4a:	f3bf 8f6f 	isb	sy
 8006f4e:	f3bf 8f4f 	dsb	sy
 8006f52:	e7fe      	b.n	8006f52 <pvPortMalloc+0x106>
 8006f54:	2400      	movs	r4, #0
 8006f56:	e7f0      	b.n	8006f3a <pvPortMalloc+0xee>
 8006f58:	4620      	mov	r0, r4
 8006f5a:	e8bd 81f0 	ldmia.w	sp!, {r4, r5, r6, r7, r8, pc}
 8006f5e:	bf00      	nop
 8006f60:	20001328 	.word	0x20001328
 8006f64:	20001314 	.word	0x20001314
 8006f68:	20001334 	.word	0x20001334
 8006f6c:	2000132c 	.word	0x2000132c
 8006f70:	20001320 	.word	0x20001320
 8006f74:	20001324 	.word	0x20001324
 8006f78:	2000131c 	.word	0x2000131c

08006f7c <vPortFree>:
 8006f7c:	b510      	push	{r4, lr}
 8006f7e:	4604      	mov	r4, r0
 8006f80:	b390      	cbz	r0, 8006fe8 <vPortFree+0x6c>
 8006f82:	4a1a      	ldr	r2, [pc, #104]	@ (8006fec <vPortFree+0x70>)
 8006f84:	f850 3c04 	ldr.w	r3, [r0, #-4]
 8006f88:	6812      	ldr	r2, [r2, #0]
 8006f8a:	4213      	tst	r3, r2
 8006f8c:	d108      	bne.n	8006fa0 <vPortFree+0x24>
 8006f8e:	f04f 0350 	mov.w	r3, #80	@ 0x50
 8006f92:	f383 8811 	msr	BASEPRI, r3
 8006f96:	f3bf 8f6f 	isb	sy
 8006f9a:	f3bf 8f4f 	dsb	sy
 8006f9e:	e7fe      	b.n	8006f9e <vPortFree+0x22>
 8006fa0:	f850 1c08 	ldr.w	r1, [r0, #-8]
 8006fa4:	b141      	cbz	r1, 8006fb8 <vPortFree+0x3c>
 8006fa6:	f04f 0350 	mov.w	r3, #80	@ 0x50
 8006faa:	f383 8811 	msr	BASEPRI, r3
 8006fae:	f3bf 8f6f 	isb	sy
 8006fb2:	f3bf 8f4f 	dsb	sy
 8006fb6:	e7fe      	b.n	8006fb6 <vPortFree+0x3a>
 8006fb8:	ea23 0302 	bic.w	r3, r3, r2
 8006fbc:	f840 3c04 	str.w	r3, [r0, #-4]
 8006fc0:	f7ff f856 	bl	8006070 <vTaskSuspendAll>
 8006fc4:	4a0a      	ldr	r2, [pc, #40]	@ (8006ff0 <vPortFree+0x74>)
 8006fc6:	f854 3c04 	ldr.w	r3, [r4, #-4]
 8006fca:	6811      	ldr	r1, [r2, #0]
 8006fcc:	f1a4 0008 	sub.w	r0, r4, #8
 8006fd0:	440b      	add	r3, r1
 8006fd2:	6013      	str	r3, [r2, #0]
 8006fd4:	f7ff ff14 	bl	8006e00 <prvInsertBlockIntoFreeList>
 8006fd8:	e8bd 4010 	ldmia.w	sp!, {r4, lr}
 8006fdc:	4a05      	ldr	r2, [pc, #20]	@ (8006ff4 <vPortFree+0x78>)
 8006fde:	6813      	ldr	r3, [r2, #0]
 8006fe0:	3301      	adds	r3, #1
 8006fe2:	6013      	str	r3, [r2, #0]
 8006fe4:	f7ff b8f2 	b.w	80061cc <xTaskResumeAll>
 8006fe8:	bd10      	pop	{r4, pc}
 8006fea:	bf00      	nop
 8006fec:	20001314 	.word	0x20001314
 8006ff0:	20001324 	.word	0x20001324
 8006ff4:	20001318 	.word	0x20001318

08006ff8 <memset>:
 8006ff8:	4603      	mov	r3, r0
 8006ffa:	4402      	add	r2, r0
 8006ffc:	4293      	cmp	r3, r2
 8006ffe:	d100      	bne.n	8007002 <memset+0xa>
 8007000:	4770      	bx	lr
 8007002:	f803 1b01 	strb.w	r1, [r3], #1
 8007006:	e7f9      	b.n	8006ffc <memset+0x4>

08007008 <__libc_init_array>:
 8007008:	b570      	push	{r4, r5, r6, lr}
 800700a:	2600      	movs	r6, #0
 800700c:	4d0c      	ldr	r5, [pc, #48]	@ (8007040 <__libc_init_array+0x38>)
 800700e:	4c0d      	ldr	r4, [pc, #52]	@ (8007044 <__libc_init_array+0x3c>)
 8007010:	1b64      	subs	r4, r4, r5
 8007012:	10a4      	asrs	r4, r4, #2
 8007014:	42a6      	cmp	r6, r4
 8007016:	d109      	bne.n	800702c <__libc_init_array+0x24>
 8007018:	f000 f828 	bl	800706c <_init>
 800701c:	2600      	movs	r6, #0
 800701e:	4d0a      	ldr	r5, [pc, #40]	@ (8007048 <__libc_init_array+0x40>)
 8007020:	4c0a      	ldr	r4, [pc, #40]	@ (800704c <__libc_init_array+0x44>)
 8007022:	1b64      	subs	r4, r4, r5
 8007024:	10a4      	asrs	r4, r4, #2
 8007026:	42a6      	cmp	r6, r4
 8007028:	d105      	bne.n	8007036 <__libc_init_array+0x2e>
 800702a:	bd70      	pop	{r4, r5, r6, pc}
 800702c:	f855 3b04 	ldr.w	r3, [r5], #4
 8007030:	4798      	blx	r3
 8007032:	3601      	adds	r6, #1
 8007034:	e7ee      	b.n	8007014 <__libc_init_array+0xc>
 8007036:	f855 3b04 	ldr.w	r3, [r5], #4
 800703a:	4798      	blx	r3
 800703c:	3601      	adds	r6, #1
 800703e:	e7f2      	b.n	8007026 <__libc_init_array+0x1e>
 8007040:	08007198 	.word	0x08007198
 8007044:	08007198 	.word	0x08007198
 8007048:	08007198 	.word	0x08007198
 800704c:	0800719c 	.word	0x0800719c

08007050 <memcpy>:
 8007050:	440a      	add	r2, r1
 8007052:	4291      	cmp	r1, r2
 8007054:	f100 33ff 	add.w	r3, r0, #4294967295
 8007058:	d100      	bne.n	800705c <memcpy+0xc>
 800705a:	4770      	bx	lr
 800705c:	b510      	push	{r4, lr}
 800705e:	f811 4b01 	ldrb.w	r4, [r1], #1
 8007062:	4291      	cmp	r1, r2
 8007064:	f803 4f01 	strb.w	r4, [r3, #1]!
 8007068:	d1f9      	bne.n	800705e <memcpy+0xe>
 800706a:	bd10      	pop	{r4, pc}

0800706c <_init>:
 800706c:	b5f8      	push	{r3, r4, r5, r6, r7, lr}
 800706e:	bf00      	nop
 8007070:	bcf8      	pop	{r3, r4, r5, r6, r7}
 8007072:	bc08      	pop	{r3}
 8007074:	469e      	mov	lr, r3
 8007076:	4770      	bx	lr

08007078 <_fini>:
 8007078:	b5f8      	push	{r3, r4, r5, r6, r7, lr}
 800707a:	bf00      	nop
 800707c:	bcf8      	pop	{r3, r4, r5, r6, r7}
 800707e:	bc08      	pop	{r3}
 8007080:	469e      	mov	lr, r3
 8007082:	4770      	bx	lr
